; Listing generated by Microsoft (R) Optimizing Compiler Version 19.28.29914.0 

	TITLE	D:\Oscilloscope\Project\Oscilloscope\Graphic\build\Debug\obj\BitmapDatabase.obj
	.686P
	.XMM
	include listing.inc
	.model	flat

INCLUDELIB MSVCRTD
INCLUDELIB OLDNAMES

EXTRN	?_Arrow@@3QBEB:BYTE				; _Arrow
EXTRN	?_ChnControlButtonOff@@3QBEB:BYTE		; _ChnControlButtonOff
EXTRN	?_ChnControlButtonOff_alpha_channel@@3QBEB:BYTE	; _ChnControlButtonOff_alpha_channel
EXTRN	?_ChnControlButtonOn@@3QBEB:BYTE		; _ChnControlButtonOn
EXTRN	?_ChnControlButtonOn_alpha_channel@@3QBEB:BYTE	; _ChnControlButtonOn_alpha_channel
EXTRN	?_EdgeDown@@3QBEB:BYTE				; _EdgeDown
EXTRN	?_EdgeDown_alpha_channel@@3QBEB:BYTE		; _EdgeDown_alpha_channel
EXTRN	?_EdgeUp@@3QBEB:BYTE				; _EdgeUp
EXTRN	?_EdgeUp_alpha_channel@@3QBEB:BYTE		; _EdgeUp_alpha_channel
EXTRN	?_VChnControlButtonOff@@3QBEB:BYTE		; _VChnControlButtonOff
EXTRN	?_VChnControlButtonOff_alpha_channel@@3QBEB:BYTE ; _VChnControlButtonOff_alpha_channel
EXTRN	?_VChnControlButtonOn@@3QBEB:BYTE		; _VChnControlButtonOn
EXTRN	?_VChnControlButtonOn_alpha_channel@@3QBEB:BYTE	; _VChnControlButtonOn_alpha_channel
EXTRN	?_appBackground@@3QBEB:BYTE			; _appBackground
EXTRN	?_buttonDownOff@@3QBEB:BYTE			; _buttonDownOff
EXTRN	?_buttonDownOff_alpha_channel@@3QBEB:BYTE	; _buttonDownOff_alpha_channel
EXTRN	?_buttonDownOn@@3QBEB:BYTE			; _buttonDownOn
EXTRN	?_buttonDownOn_alpha_channel@@3QBEB:BYTE	; _buttonDownOn_alpha_channel
EXTRN	?_buttonUpOff@@3QBEB:BYTE			; _buttonUpOff
EXTRN	?_buttonUpOff_alpha_channel@@3QBEB:BYTE		; _buttonUpOff_alpha_channel
EXTRN	?_buttonUpOn@@3QBEB:BYTE			; _buttonUpOn
EXTRN	?_buttonUpOn_alpha_channel@@3QBEB:BYTE		; _buttonUpOn_alpha_channel
EXTRN	?_button_background@@3QBEB:BYTE			; _button_background
EXTRN	?_button_background_alpha_channel@@3QBEB:BYTE	; _button_background_alpha_channel
EXTRN	?_channel1@@3QBEB:BYTE				; _channel1
EXTRN	?_channel1_alpha_channel@@3QBEB:BYTE		; _channel1_alpha_channel
EXTRN	?_channel2@@3QBEB:BYTE				; _channel2
EXTRN	?_channel2_alpha_channel@@3QBEB:BYTE		; _channel2_alpha_channel
EXTRN	?_channelInfo@@3QBEB:BYTE			; _channelInfo
EXTRN	?_channelInfo_ch2@@3QBEB:BYTE			; _channelInfo_ch2
EXTRN	?_controlPanel@@3QBEB:BYTE			; _controlPanel
EXTRN	?_controlPanel_alpha_channel@@3QBEB:BYTE	; _controlPanel_alpha_channel
EXTRN	?_counterbox@@3QBEB:BYTE			; _counterbox
EXTRN	?_counterbox_alpha_channel@@3QBEB:BYTE		; _counterbox_alpha_channel
EXTRN	?_direction_background@@3QBEB:BYTE		; _direction_background
EXTRN	?_direction_background_alpha_channel@@3QBEB:BYTE ; _direction_background_alpha_channel
EXTRN	?_leftButtonPress@@3QBEB:BYTE			; _leftButtonPress
EXTRN	?_leftButtonPress_alpha_channel@@3QBEB:BYTE	; _leftButtonPress_alpha_channel
EXTRN	?_leftButtonUnpress@@3QBEB:BYTE			; _leftButtonUnpress
EXTRN	?_leftButtonUnpress_alpha_channel@@3QBEB:BYTE	; _leftButtonUnpress_alpha_channel
EXTRN	?_ozibackground@@3QBEB:BYTE			; _ozibackground
EXTRN	?_rightButtonPress@@3QBEB:BYTE			; _rightButtonPress
EXTRN	?_rightButtonPress_alpha_channel@@3QBEB:BYTE	; _rightButtonPress_alpha_channel
EXTRN	?_rightButtonUnpress@@3QBEB:BYTE		; _rightButtonUnpress
EXTRN	?_rightButtonUnpress_alpha_channel@@3QBEB:BYTE	; _rightButtonUnpress_alpha_channel
EXTRN	?_sideslidebutton@@3QBEB:BYTE			; _sideslidebutton
EXTRN	?_sideslidebutton_press@@3QBEB:BYTE		; _sideslidebutton_press
EXTRN	?_slideMenu@@3QBEB:BYTE				; _slideMenu
EXTRN	?_text_background@@3QBEB:BYTE			; _text_background
EXTRN	?_text_background_alpha_channel@@3QBEB:BYTE	; _text_background_alpha_channel
msvcjmc	SEGMENT
__C6E4F19F_Types@hpp DB 01H
__D9DA2383_Bitmap@hpp DB 01H
__C9D37D10_BitmapDatabase@cpp DB 01H
msvcjmc	ENDS
CONST	SEGMENT
?bitmap_database@@3QBUBitmapData@Bitmap@touchgfx@@B DD FLAT:?_Arrow@@3QBEB ; bitmap_database
	DD	00H
	DW	01e0H
	DW	0110H
	DW	00H
	DW	00H
	DW	01e0H
	DW	0110H
	DB	00H
	ORG $+3
	DD	FLAT:?_ChnControlButtonOff@@3QBEB
	DD	FLAT:?_ChnControlButtonOff_alpha_channel@@3QBEB
	DW	029H
	DW	015H
	DW	06H
	DW	02H
	DW	01cH
	DW	011H
	DB	00H
	ORG $+3
	DD	FLAT:?_ChnControlButtonOn@@3QBEB
	DD	FLAT:?_ChnControlButtonOn_alpha_channel@@3QBEB
	DW	029H
	DW	015H
	DW	06H
	DW	02H
	DW	01eH
	DW	011H
	DB	00H
	ORG $+3
	DD	FLAT:?_EdgeDown@@3QBEB
	DD	FLAT:?_EdgeDown_alpha_channel@@3QBEB
	DW	02aH
	DW	02aH
	DW	02H
	DW	02H
	DW	026H
	DW	026H
	DB	00H
	ORG $+3
	DD	FLAT:?_EdgeUp@@3QBEB
	DD	FLAT:?_EdgeUp_alpha_channel@@3QBEB
	DW	02aH
	DW	02aH
	DW	02H
	DW	02H
	DW	026H
	DW	026H
	DB	00H
	ORG $+3
	DD	FLAT:?_VChnControlButtonOff@@3QBEB
	DD	FLAT:?_VChnControlButtonOff_alpha_channel@@3QBEB
	DW	02aH
	DW	02aH
	DW	02H
	DW	02H
	DW	026H
	DW	025H
	DB	00H
	ORG $+3
	DD	FLAT:?_VChnControlButtonOn@@3QBEB
	DD	FLAT:?_VChnControlButtonOn_alpha_channel@@3QBEB
	DW	02aH
	DW	02aH
	DW	02H
	DW	02H
	DW	026H
	DW	026H
	DB	00H
	ORG $+3
	DD	FLAT:?_appBackground@@3QBEB
	DD	00H
	DW	01e0H
	DW	0110H
	DW	00H
	DW	00H
	DW	01e0H
	DW	0110H
	DB	00H
	ORG $+3
	DD	FLAT:?_buttonDownOff@@3QBEB
	DD	FLAT:?_buttonDownOff_alpha_channel@@3QBEB
	DW	01eH
	DW	01eH
	DW	07H
	DW	09H
	DW	010H
	DW	0bH
	DB	00H
	ORG $+3
	DD	FLAT:?_buttonDownOn@@3QBEB
	DD	FLAT:?_buttonDownOn_alpha_channel@@3QBEB
	DW	01eH
	DW	01eH
	DW	07H
	DW	09H
	DW	010H
	DW	0bH
	DB	00H
	ORG $+3
	DD	FLAT:?_buttonUpOff@@3QBEB
	DD	FLAT:?_buttonUpOff_alpha_channel@@3QBEB
	DW	01eH
	DW	01eH
	DW	07H
	DW	0aH
	DW	010H
	DW	0bH
	DB	00H
	ORG $+3
	DD	FLAT:?_buttonUpOn@@3QBEB
	DD	FLAT:?_buttonUpOn_alpha_channel@@3QBEB
	DW	01eH
	DW	01eH
	DW	07H
	DW	0aH
	DW	010H
	DW	0bH
	DB	00H
	ORG $+3
	DD	FLAT:?_button_background@@3QBEB
	DD	FLAT:?_button_background_alpha_channel@@3QBEB
	DW	03cH
	DW	064H
	DW	02H
	DW	04H
	DW	038H
	DW	058H
	DB	00H
	ORG $+3
	DD	FLAT:?_channel1@@3QBEB
	DD	FLAT:?_channel1_alpha_channel@@3QBEB
	DW	014H
	DW	0aH
	DW	06H
	DW	00H
	DW	0eH
	DW	0aH
	DB	00H
	ORG $+3
	DD	FLAT:?_channel2@@3QBEB
	DD	FLAT:?_channel2_alpha_channel@@3QBEB
	DW	014H
	DW	0aH
	DW	05H
	DW	00H
	DW	0fH
	DW	09H
	DB	00H
	ORG $+3
	DD	FLAT:?_channelInfo@@3QBEB
	DD	00H
	DW	05cH
	DW	01eH
	DW	00H
	DW	00H
	DW	05cH
	DW	01eH
	DB	00H
	ORG $+3
	DD	FLAT:?_channelInfo_ch2@@3QBEB
	DD	00H
	DW	05cH
	DW	01eH
	DW	00H
	DW	00H
	DW	05cH
	DW	01eH
	DB	00H
	ORG $+3
	DD	FLAT:?_controlPanel@@3QBEB
	DD	FLAT:?_controlPanel_alpha_channel@@3QBEB
	DW	0a5H
	DW	0e7H
	DW	00H
	DW	00H
	DW	0a5H
	DW	0e6H
	DB	00H
	ORG $+3
	DD	FLAT:?_counterbox@@3QBEB
	DD	FLAT:?_counterbox_alpha_channel@@3QBEB
	DW	037H
	DW	023H
	DW	02H
	DW	00H
	DW	033H
	DW	022H
	DB	00H
	ORG $+3
	DD	FLAT:?_direction_background@@3QBEB
	DD	FLAT:?_direction_background_alpha_channel@@3QBEB
	DW	078H
	DW	078H
	DW	029H
	DW	04H
	DW	026H
	DW	070H
	DB	00H
	ORG $+3
	DD	FLAT:?_leftButtonPress@@3QBEB
	DD	FLAT:?_leftButtonPress_alpha_channel@@3QBEB
	DW	017H
	DW	01eH
	DW	0cH
	DW	07H
	DW	07H
	DW	010H
	DB	00H
	ORG $+3
	DD	FLAT:?_leftButtonUnpress@@3QBEB
	DD	FLAT:?_leftButtonUnpress_alpha_channel@@3QBEB
	DW	017H
	DW	01eH
	DW	09H
	DW	06H
	DW	0bH
	DW	011H
	DB	00H
	ORG $+3
	DD	FLAT:?_ozibackground@@3QBEB
	DD	00H
	DW	0132H
	DW	0e6H
	DW	00H
	DW	00H
	DW	0132H
	DW	0e6H
	DB	00H
	ORG $+3
	DD	FLAT:?_rightButtonPress@@3QBEB
	DD	FLAT:?_rightButtonPress_alpha_channel@@3QBEB
	DW	017H
	DW	01eH
	DW	04H
	DW	08H
	DW	08H
	DW	0eH
	DB	00H
	ORG $+3
	DD	FLAT:?_rightButtonUnpress@@3QBEB
	DD	FLAT:?_rightButtonUnpress_alpha_channel@@3QBEB
	DW	017H
	DW	01eH
	DW	03H
	DW	07H
	DW	0bH
	DW	010H
	DB	00H
	ORG $+3
	DD	FLAT:?_sideslidebutton@@3QBEB
	DD	00H
	DW	0fH
	DW	023H
	DW	00H
	DW	00H
	DW	0fH
	DW	023H
	DB	00H
	ORG $+3
	DD	FLAT:?_sideslidebutton_press@@3QBEB
	DD	00H
	DW	0fH
	DW	023H
	DW	00H
	DW	00H
	DW	0fH
	DW	023H
	DB	00H
	ORG $+3
	DD	FLAT:?_slideMenu@@3QBEB
	DD	00H
	DW	0123H
	DW	023H
	DW	00H
	DW	00H
	DW	0123H
	DW	023H
	DB	00H
	ORG $+3
	DD	FLAT:?_text_background@@3QBEB
	DD	FLAT:?_text_background_alpha_channel@@3QBEB
	DW	032H
	DW	016H
	DW	04H
	DW	01H
	DW	02aH
	DW	014H
	DB	00H
	ORG $+3
CONST	ENDS
PUBLIC	?getInstance@BitmapDatabase@@YAPBUBitmapData@Bitmap@touchgfx@@XZ ; BitmapDatabase::getInstance
PUBLIC	?getInstanceSize@BitmapDatabase@@YAGXZ		; BitmapDatabase::getInstanceSize
PUBLIC	__JustMyCode_Default
EXTRN	@__CheckForDebuggerJustMyCode@4:PROC
EXTRN	__RTC_CheckEsp:PROC
EXTRN	__RTC_InitBase:PROC
EXTRN	__RTC_Shutdown:PROC
;	COMDAT rtc$TMZ
rtc$TMZ	SEGMENT
__RTC_Shutdown.rtc$TMZ DD FLAT:__RTC_Shutdown
rtc$TMZ	ENDS
;	COMDAT rtc$IMZ
rtc$IMZ	SEGMENT
__RTC_InitBase.rtc$IMZ DD FLAT:__RTC_InitBase
rtc$IMZ	ENDS
; Function compile flags: /Odt
;	COMDAT __JustMyCode_Default
_TEXT	SEGMENT
__JustMyCode_Default PROC				; COMDAT
	push	ebp
	mov	ebp, esp
	pop	ebp
	ret	0
__JustMyCode_Default ENDP
_TEXT	ENDS
; Function compile flags: /Odtp /RTCsu /ZI
;	COMDAT ?getInstanceSize@BitmapDatabase@@YAGXZ
_TEXT	SEGMENT
?getInstanceSize@BitmapDatabase@@YAGXZ PROC		; BitmapDatabase::getInstanceSize, COMDAT
; File D:\Oscilloscope\Project\Oscilloscope\Graphic\generated\images\src\BitmapDatabase.cpp
; Line 100
	push	ebp
	mov	ebp, esp
	sub	esp, 192				; 000000c0H
	push	ebx
	push	esi
	push	edi
	lea	edi, DWORD PTR [ebp-192]
	mov	ecx, 48					; 00000030H
	mov	eax, -858993460				; ccccccccH
	rep stosd
	mov	ecx, OFFSET __C9D37D10_BitmapDatabase@cpp
	call	@__CheckForDebuggerJustMyCode@4
; Line 101
	mov	eax, 29					; 0000001dH
; Line 102
	pop	edi
	pop	esi
	pop	ebx
	add	esp, 192				; 000000c0H
	cmp	ebp, esp
	call	__RTC_CheckEsp
	mov	esp, ebp
	pop	ebp
	ret	0
?getInstanceSize@BitmapDatabase@@YAGXZ ENDP		; BitmapDatabase::getInstanceSize
_TEXT	ENDS
; Function compile flags: /Odtp /RTCsu /ZI
;	COMDAT ?getInstance@BitmapDatabase@@YAPBUBitmapData@Bitmap@touchgfx@@XZ
_TEXT	SEGMENT
?getInstance@BitmapDatabase@@YAPBUBitmapData@Bitmap@touchgfx@@XZ PROC ; BitmapDatabase::getInstance, COMDAT
; File D:\Oscilloscope\Project\Oscilloscope\Graphic\generated\images\src\BitmapDatabase.cpp
; Line 96
	push	ebp
	mov	ebp, esp
	sub	esp, 192				; 000000c0H
	push	ebx
	push	esi
	push	edi
	lea	edi, DWORD PTR [ebp-192]
	mov	ecx, 48					; 00000030H
	mov	eax, -858993460				; ccccccccH
	rep stosd
	mov	ecx, OFFSET __C9D37D10_BitmapDatabase@cpp
	call	@__CheckForDebuggerJustMyCode@4
; Line 97
	mov	eax, OFFSET ?bitmap_database@@3QBUBitmapData@Bitmap@touchgfx@@B
; Line 98
	pop	edi
	pop	esi
	pop	ebx
	add	esp, 192				; 000000c0H
	cmp	ebp, esp
	call	__RTC_CheckEsp
	mov	esp, ebp
	pop	ebp
	ret	0
?getInstance@BitmapDatabase@@YAPBUBitmapData@Bitmap@touchgfx@@XZ ENDP ; BitmapDatabase::getInstance
_TEXT	ENDS
END
