; Listing generated by Microsoft (R) Optimizing Compiler Version 19.28.29914.0 

	TITLE	D:\Oscilloscope\Project\Oscilloscope\Graphic\build\Debug\obj\channel1.obj
	.686P
	.XMM
	include listing.inc
	.model	flat

INCLUDELIB MSVCRTD
INCLUDELIB OLDNAMES

PUBLIC	?_channel1@@3QBEB				; _channel1
PUBLIC	?_channel1_alpha_channel@@3QBEB			; _channel1_alpha_channel
CONST	SEGMENT
?_channel1@@3QBEB DB 00H				; _channel1
	DB	00H
	DB	00H
	DB	00H
	DB	00H
	DB	00H
	DB	00H
	DB	00H
	DB	00H
	DB	00H
	DB	0b9H
	DB	01bH
	DB	0b9H
	DB	01bH
	DB	0b8H
	DB	01bH
	DB	0b9H
	DB	01bH
	DB	0b9H
	DB	01bH
	DB	0b8H
	DB	01bH
	DB	0b9H
	DB	01bH
	DB	0b9H
	DB	01bH
	DB	0b8H
	DB	01bH
	DB	0b9H
	DB	01bH
	DB	0b9H
	DB	01bH
	DB	0b8H
	DB	01bH
	DB	0b9H
	DB	01bH
	DB	0b9H
	DB	01bH
	DB	0b8H
	DB	01bH
	DB	00H
	DB	00H
	DB	00H
	DB	00H
	DB	00H
	DB	00H
	DB	00H
	DB	00H
	DB	0b8H
	DB	01bH
	DB	0b9H
	DB	01bH
	DB	0b8H
	DB	01bH
	DB	0b9H
	DB	01bH
	DB	0b9H
	DB	01bH
	DB	0b8H
	DB	01bH
	DB	0b9H
	DB	01bH
	DB	07aH
	DB	03cH
	DB	0feH
	DB	0ceH
	DB	07aH
	DB	03cH
	DB	0b8H
	DB	01bH
	DB	0b9H
	DB	01bH
	DB	0b9H
	DB	01bH
	DB	0b8H
	DB	01bH
	DB	0b9H
	DB	01bH
	DB	0b9H
	DB	01bH
	DB	00H
	DB	00H
	DB	00H
	DB	00H
	DB	0b9H
	DB	01bH
	DB	0b9H
	DB	01bH
	DB	0b9H
	DB	01bH
	DB	0b8H
	DB	01bH
	DB	0d9H
	DB	01bH
	DB	0b9H
	DB	01bH
	DB	0d8H
	DB	01bH
	DB	0b9H
	DB	01bH
	DB	059H
	DB	03cH
	DB	05fH
	DB	0dfH
	DB	0ffH
	DB	0ffH
	DB	0baH
	DB	04cH
	DB	0b9H
	DB	01bH
	DB	0b8H
	DB	01bH
	DB	0d9H
	DB	01bH
	DB	0b8H
	DB	01bH
	DB	0b9H
	DB	01bH
	DB	0b9H
	DB	01bH
	DB	0b9H
	DB	01bH
	DB	0b8H
	DB	01bH
	DB	0b8H
	DB	01bH
	DB	0b9H
	DB	01bH
	DB	0b9H
	DB	01bH
	DB	0d8H
	DB	01bH
	DB	0b9H
	DB	01bH
	DB	0b8H
	DB	01bH
	DB	0b9H
	DB	01bH
	DB	07aH
	DB	044H
	DB	0ffH
	DB	0ffH
	DB	05eH
	DB	0dfH
	DB	0ffH
	DB	0ffH
	DB	0baH
	DB	04cH
	DB	0b9H
	DB	01bH
	DB	0b9H
	DB	01bH
	DB	0d8H
	DB	01bH
	DB	0b9H
	DB	01bH
	DB	0d8H
	DB	01bH
	DB	0b8H
	DB	01bH
	DB	0b9H
	DB	01bH
	DB	0b9H
	DB	01bH
	DB	0d8H
	DB	01bH
	DB	0b9H
	DB	01bH
	DB	0b8H
	DB	01bH
	DB	0b9H
	DB	01bH
	DB	0b9H
	DB	01bH
	DB	0b8H
	DB	01bH
	DB	0d9H
	DB	01bH
	DB	039H
	DB	034H
	DB	0baH
	DB	04cH
	DB	01bH
	DB	065H
	DB	0ffH
	DB	0ffH
	DB	09aH
	DB	04cH
	DB	0b9H
	DB	01bH
	DB	0b8H
	DB	01bH
	DB	0b9H
	DB	01bH
	DB	0b9H
	DB	01bH
	DB	0b9H
	DB	01bH
	DB	0b9H
	DB	01bH
	DB	0b9H
	DB	01bH
	DB	0b8H
	DB	01bH
	DB	0b9H
	DB	01bH
	DB	0d9H
	DB	01bH
	DB	0b8H
	DB	01bH
	DB	0d9H
	DB	01bH
	DB	0b9H
	DB	01bH
	DB	0b8H
	DB	01bH
	DB	0b9H
	DB	01bH
	DB	0b9H
	DB	01bH
	DB	0b9H
	DB	01bH
	DB	01bH
	DB	05dH
	DB	0ffH
	DB	0ffH
	DB	0baH
	DB	04cH
	DB	0b9H
	DB	01bH
	DB	0b8H
	DB	01bH
	DB	0d9H
	DB	01bH
	DB	0b8H
	DB	01bH
	DB	0b9H
	DB	01bH
	DB	0b9H
	DB	01bH
	DB	00H
	DB	00H
	DB	0b8H
	DB	01bH
	DB	0b9H
	DB	01bH
	DB	0b9H
	DB	01bH
	DB	0b8H
	DB	01bH
	DB	0d9H
	DB	01bH
	DB	0b9H
	DB	01bH
	DB	0b8H
	DB	01bH
	DB	0d9H
	DB	01bH
	DB	0b8H
	DB	01bH
	DB	0b8H
	DB	01bH
	DB	01bH
	DB	065H
	DB	0ffH
	DB	0ffH
	DB	0baH
	DB	04cH
	DB	0b9H
	DB	01bH
	DB	0b9H
	DB	01bH
	DB	0d8H
	DB	01bH
	DB	0b9H
	DB	01bH
	DB	0d8H
	DB	01bH
	DB	0b8H
	DB	01bH
	DB	00H
	DB	00H
	DB	00H
	DB	00H
	DB	00H
	DB	00H
	DB	0b9H
	DB	01bH
	DB	0b8H
	DB	01bH
	DB	0b9H
	DB	01bH
	DB	0b8H
	DB	01bH
	DB	0d9H
	DB	01bH
	DB	0b9H
	DB	01bH
	DB	0b9H
	DB	01bH
	DB	0b8H
	DB	01bH
	DB	01bH
	DB	065H
	DB	0ffH
	DB	0ffH
	DB	09aH
	DB	04cH
	DB	0b8H
	DB	01bH
	DB	0b9H
	DB	01bH
	DB	0b9H
	DB	01bH
	DB	0b9H
	DB	01bH
	DB	0b9H
	DB	01bH
	DB	0b9H
	DB	01bH
	DB	00H
	DB	00H
	DB	00H
	DB	00H
	DB	00H
	DB	00H
	DB	00H
	DB	00H
	DB	0d9H
	DB	01bH
	DB	0b8H
	DB	01bH
	DB	0b9H
	DB	01bH
	DB	0b8H
	DB	01bH
	DB	0b9H
	DB	01bH
	DB	0b9H
	DB	01bH
	DB	0b9H
	DB	01bH
	DB	01bH
	DB	05dH
	DB	0ffH
	DB	0ffH
	DB	0baH
	DB	04cH
	DB	0b9H
	DB	01bH
	DB	0b8H
	DB	01bH
	DB	0d8H
	DB	01bH
	DB	0b9H
	DB	01bH
	DB	0b8H
	DB	01bH
	DB	0b9H
	DB	01bH
	DB	00H
	DB	00H
	DB	00H
	DB	00H
	DB	00H
	DB	00H
	DB	00H
	DB	00H
	DB	00H
	DB	00H
	DB	0d9H
	DB	01bH
	DB	0b9H
	DB	01bH
	DB	0d8H
	DB	01bH
	DB	0d8H
	DB	01bH
	DB	0b9H
	DB	01bH
	DB	0b8H
	DB	01bH
	DB	0b8H
	DB	01bH
	DB	0b9H
	DB	01bH
	DB	0b9H
	DB	01bH
	DB	0b9H
	DB	01bH
	DB	0d8H
	DB	01bH
	DB	0b9H
	DB	01bH
	DB	0d9H
	DB	01bH
	DB	0b8H
	DB	01bH
	DB	0b8H
	DB	01bH
?_channel1_alpha_channel@@3QBEB DB 00H			; _channel1_alpha_channel
	DB	00H
	DB	00H
	DB	00H
	DB	00H
	DB	010H
	DB	0ffH
	DB	0ffH
	DB	0ffH
	DB	0ffH
	DB	0ffH
	DB	0ffH
	DB	0ffH
	DB	0ffH
	DB	0ffH
	DB	0ffH
	DB	0ffH
	DB	0ffH
	DB	0ffH
	DB	0ffH
	DB	00H
	DB	00H
	DB	00H
	DB	00H
	DB	04dH
	DB	0ffH
	DB	0ffH
	DB	0ffH
	DB	0ffH
	DB	0ffH
	DB	0ffH
	DB	0ffH
	DB	0ffH
	DB	0ffH
	DB	0ffH
	DB	0ffH
	DB	0ffH
	DB	0ffH
	DB	0ffH
	DB	0ffH
	DB	00H
	DB	00H
	DB	010H
	DB	0ffH
	DB	0ffH
	DB	0ffH
	DB	0ffH
	DB	0ffH
	DB	0ffH
	DB	0ffH
	DB	0ffH
	DB	0ffH
	DB	0ffH
	DB	0ffH
	DB	0ffH
	DB	0ffH
	DB	0ffH
	DB	0ffH
	DB	0ffH
	DB	0ffH
	DB	030H
	DB	04dH
	DB	0ffH
	DB	0ffH
	DB	0ffH
	DB	0ffH
	DB	0ffH
	DB	0ffH
	DB	0ffH
	DB	0ffH
	DB	0ffH
	DB	0ffH
	DB	0ffH
	DB	0ffH
	DB	0ffH
	DB	0ffH
	DB	0ffH
	DB	0ffH
	DB	0ffH
	DB	0ffH
	DB	0ffH
	DB	0ffH
	DB	0ffH
	DB	0ffH
	DB	0ffH
	DB	0ffH
	DB	0ffH
	DB	0ffH
	DB	0ffH
	DB	0ffH
	DB	0ffH
	DB	0ffH
	DB	0ffH
	DB	0ffH
	DB	0ffH
	DB	0ffH
	DB	0ffH
	DB	0ffH
	DB	0ffH
	DB	0ffH
	DB	069H
	DB	0ffH
	DB	0ffH
	DB	0ffH
	DB	0ffH
	DB	0ffH
	DB	0ffH
	DB	0ffH
	DB	0ffH
	DB	0ffH
	DB	0ffH
	DB	0ffH
	DB	0ffH
	DB	0ffH
	DB	0ffH
	DB	0ffH
	DB	0ffH
	DB	0ffH
	DB	0ffH
	DB	0ffH
	DB	00H
	DB	010H
	DB	0ffH
	DB	0ffH
	DB	0ffH
	DB	0ffH
	DB	0ffH
	DB	0ffH
	DB	0ffH
	DB	0ffH
	DB	0ffH
	DB	0ffH
	DB	0ffH
	DB	0ffH
	DB	0ffH
	DB	0ffH
	DB	0ffH
	DB	0ffH
	DB	0ffH
	DB	0ffH
	DB	00H
	DB	00H
	DB	00H
	DB	0ffH
	DB	0ffH
	DB	0ffH
	DB	0ffH
	DB	0ffH
	DB	0ffH
	DB	0ffH
	DB	0ffH
	DB	0ffH
	DB	0ffH
	DB	0ffH
	DB	0ffH
	DB	0ffH
	DB	0ffH
	DB	0ffH
	DB	0ffH
	DB	0ffH
	DB	00H
	DB	00H
	DB	00H
	DB	00H
	DB	05dH
	DB	0ffH
	DB	0ffH
	DB	0ffH
	DB	0ffH
	DB	0ffH
	DB	0ffH
	DB	0ffH
	DB	0ffH
	DB	0ffH
	DB	0ffH
	DB	0ffH
	DB	0ffH
	DB	0ffH
	DB	0ffH
	DB	0ffH
	DB	00H
	DB	00H
	DB	00H
	DB	00H
	DB	00H
	DB	065H
	DB	0ffH
	DB	0ffH
	DB	0ffH
	DB	0ffH
	DB	0ffH
	DB	0ffH
	DB	0ffH
	DB	0ffH
	DB	0ffH
	DB	0ffH
	DB	0ffH
	DB	0ffH
	DB	0ffH
	DB	0ffH
CONST	ENDS
END
