; Listing generated by Microsoft (R) Optimizing Compiler Version 19.28.29914.0 

	TITLE	D:\Oscilloscope\Project\Oscilloscope\Graphic\build\Debug\obj\channelInfo_ch2.obj
	.686P
	.XMM
	include listing.inc
	.model	flat

INCLUDELIB MSVCRTD
INCLUDELIB OLDNAMES

PUBLIC	?_channelInfo_ch2@@3QBEB			; _channelInfo_ch2
CONST	SEGMENT
?_channelInfo_ch2@@3QBEB DB 055H			; _channelInfo_ch2
	DB	0adH
	DB	034H
	DB	0a5H
	DB	034H
	DB	0a5H
	DB	034H
	DB	0a5H
	DB	034H
	DB	0a5H
	DB	034H
	DB	0a5H
	DB	034H
	DB	0a5H
	DB	034H
	DB	0a5H
	DB	034H
	DB	0a5H
	DB	034H
	DB	0a5H
	DB	034H
	DB	0a5H
	DB	034H
	DB	0a5H
	DB	034H
	DB	0a5H
	DB	034H
	DB	0a5H
	DB	034H
	DB	0a5H
	DB	034H
	DB	0a5H
	DB	034H
	DB	0a5H
	DB	034H
	DB	0a5H
	DB	034H
	DB	0a5H
	DB	034H
	DB	0a5H
	DB	034H
	DB	0a5H
	DB	034H
	DB	0a5H
	DB	034H
	DB	0a5H
	DB	034H
	DB	0a5H
	DB	034H
	DB	0a5H
	DB	034H
	DB	0a5H
	DB	034H
	DB	0a5H
	DB	034H
	DB	0a5H
	DB	034H
	DB	0a5H
	DB	034H
	DB	0a5H
	DB	034H
	DB	0a5H
	DB	034H
	DB	0a5H
	DB	034H
	DB	0a5H
	DB	034H
	DB	0a5H
	DB	034H
	DB	0a5H
	DB	034H
	DB	0a5H
	DB	034H
	DB	0a5H
	DB	034H
	DB	0a5H
	DB	034H
	DB	0a5H
	DB	034H
	DB	0a5H
	DB	034H
	DB	0a5H
	DB	034H
	DB	0a5H
	DB	034H
	DB	0a5H
	DB	034H
	DB	0a5H
	DB	034H
	DB	0a5H
	DB	034H
	DB	0a5H
	DB	034H
	DB	0a5H
	DB	034H
	DB	0a5H
	DB	034H
	DB	0a5H
	DB	034H
	DB	0a5H
	DB	034H
	DB	0a5H
	DB	034H
	DB	0a5H
	DB	034H
	DB	0a5H
	DB	034H
	DB	0a5H
	DB	034H
	DB	0a5H
	DB	034H
	DB	0a5H
	DB	034H
	DB	0a5H
	DB	034H
	DB	0a5H
	DB	034H
	DB	0a5H
	DB	034H
	DB	0a5H
	DB	034H
	DB	0a5H
	DB	034H
	DB	0a5H
	DB	034H
	DB	0a5H
	DB	034H
	DB	0a5H
	DB	034H
	DB	0a5H
	DB	034H
	DB	0a5H
	DB	034H
	DB	0a5H
	DB	034H
	DB	0a5H
	DB	034H
	DB	0a5H
	DB	034H
	DB	0a5H
	DB	034H
	DB	0a5H
	DB	034H
	DB	0a5H
	DB	034H
	DB	0a5H
	DB	034H
	DB	0a5H
	DB	034H
	DB	0a5H
	DB	034H
	DB	0a5H
	DB	034H
	DB	0a5H
	DB	034H
	DB	0a5H
	DB	034H
	DB	0a5H
	DB	034H
	DB	0a5H
	DB	034H
	DB	0a5H
	DB	034H
	DB	0a5H
	DB	034H
	DB	0a5H
	DB	034H
	DB	0a5H
	DB	034H
	DB	0a5H
	DB	034H
	DB	0a5H
	DB	034H
	DB	0a5H
	DB	034H
	DB	0a5H
	DB	034H
	DB	0a5H
	DB	034H
	DB	0a5H
	DB	034H
	DB	0a5H
	DB	055H
	DB	0adH
	DB	055H
	DB	0adH
	DB	060H
	DB	0dbH
	DB	060H
	DB	0dbH
	DB	060H
	DB	0dbH
	DB	060H
	DB	0dbH
	DB	060H
	DB	0dbH
	DB	060H
	DB	0dbH
	DB	060H
	DB	0dbH
	DB	060H
	DB	0dbH
	DB	060H
	DB	0dbH
	DB	060H
	DB	0dbH
	DB	060H
	DB	0dbH
	DB	060H
	DB	0dbH
	DB	060H
	DB	0dbH
	DB	060H
	DB	0dbH
	DB	060H
	DB	0dbH
	DB	060H
	DB	0dbH
	DB	060H
	DB	0dbH
	DB	060H
	DB	0dbH
	DB	060H
	DB	0dbH
	DB	060H
	DB	0dbH
	DB	060H
	DB	0dbH
	DB	060H
	DB	0dbH
	DB	060H
	DB	0dbH
	DB	060H
	DB	0dbH
	DB	060H
	DB	0dbH
	DB	060H
	DB	0dbH
	DB	060H
	DB	0dbH
	DB	060H
	DB	0dbH
	DB	060H
	DB	0dbH
	DB	060H
	DB	0dbH
	DB	060H
	DB	0dbH
	DB	060H
	DB	0dbH
	DB	060H
	DB	0dbH
	DB	060H
	DB	0dbH
	DB	060H
	DB	0dbH
	DB	060H
	DB	0dbH
	DB	060H
	DB	0dbH
	DB	060H
	DB	0dbH
	DB	060H
	DB	0dbH
	DB	060H
	DB	0dbH
	DB	060H
	DB	0dbH
	DB	060H
	DB	0dbH
	DB	060H
	DB	0dbH
	DB	060H
	DB	0dbH
	DB	060H
	DB	0dbH
	DB	060H
	DB	0dbH
	DB	060H
	DB	0dbH
	DB	060H
	DB	0dbH
	DB	060H
	DB	0dbH
	DB	060H
	DB	0dbH
	DB	060H
	DB	0dbH
	DB	060H
	DB	0dbH
	DB	060H
	DB	0dbH
	DB	060H
	DB	0dbH
	DB	060H
	DB	0dbH
	DB	060H
	DB	0dbH
	DB	060H
	DB	0dbH
	DB	060H
	DB	0dbH
	DB	060H
	DB	0dbH
	DB	060H
	DB	0dbH
	DB	060H
	DB	0dbH
	DB	060H
	DB	0dbH
	DB	060H
	DB	0dbH
	DB	060H
	DB	0dbH
	DB	060H
	DB	0dbH
	DB	060H
	DB	0dbH
	DB	060H
	DB	0dbH
	DB	060H
	DB	0dbH
	DB	060H
	DB	0dbH
	DB	060H
	DB	0dbH
	DB	060H
	DB	0dbH
	DB	060H
	DB	0dbH
	DB	060H
	DB	0dbH
	DB	060H
	DB	0dbH
	DB	060H
	DB	0dbH
	DB	060H
	DB	0dbH
	DB	060H
	DB	0dbH
	DB	060H
	DB	0dbH
	DB	060H
	DB	0dbH
	DB	060H
	DB	0dbH
	DB	060H
	DB	0dbH
	DB	060H
	DB	0dbH
	DB	060H
	DB	0dbH
	DB	060H
	DB	0dbH
	DB	060H
	DB	0dbH
	DB	060H
	DB	0dbH
	DB	060H
	DB	0dbH
	DB	060H
	DB	0dbH
	DB	060H
	DB	0dbH
	DB	060H
	DB	0dbH
	DB	055H
	DB	0adH
	DB	055H
	DB	0adH
	DB	060H
	DB	0dbH
	DB	060H
	DB	0dbH
	DB	060H
	DB	0dbH
	DB	060H
	DB	0dbH
	DB	060H
	DB	0dbH
	DB	060H
	DB	0dbH
	DB	060H
	DB	0dbH
	DB	060H
	DB	0dbH
	DB	060H
	DB	0dbH
	DB	060H
	DB	0dbH
	DB	060H
	DB	0dbH
	DB	060H
	DB	0dbH
	DB	060H
	DB	0dbH
	DB	060H
	DB	0dbH
	DB	060H
	DB	0dbH
	DB	060H
	DB	0dbH
	DB	060H
	DB	0dbH
	DB	060H
	DB	0dbH
	DB	060H
	DB	0dbH
	DB	060H
	DB	0dbH
	DB	060H
	DB	0dbH
	DB	060H
	DB	0dbH
	DB	060H
	DB	0dbH
	DB	060H
	DB	0dbH
	DB	060H
	DB	0dbH
	DB	060H
	DB	0dbH
	DB	060H
	DB	0dbH
	DB	060H
	DB	0dbH
	DB	060H
	DB	0dbH
	DB	060H
	DB	0dbH
	DB	060H
	DB	0dbH
	DB	060H
	DB	0dbH
	DB	060H
	DB	0dbH
	DB	060H
	DB	0dbH
	DB	060H
	DB	0dbH
	DB	060H
	DB	0dbH
	DB	060H
	DB	0dbH
	DB	060H
	DB	0dbH
	DB	060H
	DB	0dbH
	DB	060H
	DB	0dbH
	DB	060H
	DB	0dbH
	DB	060H
	DB	0dbH
	DB	060H
	DB	0dbH
	DB	060H
	DB	0dbH
	DB	060H
	DB	0dbH
	DB	060H
	DB	0dbH
	DB	060H
	DB	0dbH
	DB	060H
	DB	0dbH
	DB	060H
	DB	0dbH
	DB	060H
	DB	0dbH
	DB	060H
	DB	0dbH
	DB	060H
	DB	0dbH
	DB	060H
	DB	0dbH
	DB	060H
	DB	0dbH
	DB	060H
	DB	0dbH
	DB	060H
	DB	0dbH
	DB	060H
	DB	0dbH
	DB	060H
	DB	0dbH
	DB	060H
	DB	0dbH
	DB	060H
	DB	0dbH
	DB	060H
	DB	0dbH
	DB	060H
	DB	0dbH
	DB	060H
	DB	0dbH
	DB	060H
	DB	0dbH
	DB	060H
	DB	0dbH
	DB	060H
	DB	0dbH
	DB	060H
	DB	0dbH
	DB	060H
	DB	0dbH
	DB	060H
	DB	0dbH
	DB	060H
	DB	0dbH
	DB	060H
	DB	0dbH
	DB	060H
	DB	0dbH
	DB	060H
	DB	0dbH
	DB	060H
	DB	0dbH
	DB	060H
	DB	0dbH
	DB	060H
	DB	0dbH
	DB	060H
	DB	0dbH
	DB	060H
	DB	0dbH
	DB	060H
	DB	0dbH
	DB	060H
	DB	0dbH
	DB	060H
	DB	0dbH
	DB	060H
	DB	0dbH
	DB	060H
	DB	0dbH
	DB	060H
	DB	0dbH
	DB	060H
	DB	0dbH
	DB	060H
	DB	0dbH
	DB	060H
	DB	0dbH
	DB	060H
	DB	0dbH
	DB	060H
	DB	0dbH
	DB	060H
	DB	0dbH
	DB	055H
	DB	0adH
	DB	055H
	DB	0adH
	DB	060H
	DB	0dbH
	DB	060H
	DB	0dbH
	DB	060H
	DB	0d3H
	DB	060H
	DB	0dbH
	DB	060H
	DB	0dbH
	DB	060H
	DB	0dbH
	DB	060H
	DB	0dbH
	DB	060H
	DB	0d3H
	DB	060H
	DB	0dbH
	DB	060H
	DB	0dbH
	DB	060H
	DB	0dbH
	DB	060H
	DB	0dbH
	DB	060H
	DB	0dbH
	DB	060H
	DB	0d3H
	DB	060H
	DB	0dbH
	DB	060H
	DB	0dbH
	DB	060H
	DB	0dbH
	DB	060H
	DB	0dbH
	DB	060H
	DB	0dbH
	DB	060H
	DB	0d3H
	DB	060H
	DB	0dbH
	DB	060H
	DB	0dbH
	DB	060H
	DB	0dbH
	DB	060H
	DB	0dbH
	DB	060H
	DB	0dbH
	DB	060H
	DB	0d3H
	DB	060H
	DB	0dbH
	DB	060H
	DB	0dbH
	DB	060H
	DB	0dbH
	DB	060H
	DB	0dbH
	DB	060H
	DB	0dbH
	DB	060H
	DB	0d3H
	DB	060H
	DB	0dbH
	DB	060H
	DB	0dbH
	DB	060H
	DB	0dbH
	DB	060H
	DB	0dbH
	DB	060H
	DB	0dbH
	DB	060H
	DB	0d3H
	DB	060H
	DB	0dbH
	DB	060H
	DB	0dbH
	DB	060H
	DB	0dbH
	DB	060H
	DB	0dbH
	DB	060H
	DB	0dbH
	DB	060H
	DB	0d3H
	DB	060H
	DB	0dbH
	DB	060H
	DB	0dbH
	DB	060H
	DB	0dbH
	DB	060H
	DB	0dbH
	DB	060H
	DB	0dbH
	DB	060H
	DB	0d3H
	DB	060H
	DB	0dbH
	DB	060H
	DB	0dbH
	DB	060H
	DB	0dbH
	DB	060H
	DB	0dbH
	DB	060H
	DB	0dbH
	DB	060H
	DB	0d3H
	DB	060H
	DB	0dbH
	DB	060H
	DB	0dbH
	DB	060H
	DB	0dbH
	DB	060H
	DB	0dbH
	DB	060H
	DB	0dbH
	DB	060H
	DB	0d3H
	DB	060H
	DB	0dbH
	DB	060H
	DB	0dbH
	DB	060H
	DB	0dbH
	DB	060H
	DB	0dbH
	DB	060H
	DB	0dbH
	DB	060H
	DB	0d3H
	DB	060H
	DB	0dbH
	DB	060H
	DB	0dbH
	DB	060H
	DB	0dbH
	DB	060H
	DB	0dbH
	DB	060H
	DB	0dbH
	DB	060H
	DB	0d3H
	DB	060H
	DB	0dbH
	DB	060H
	DB	0dbH
	DB	060H
	DB	0dbH
	DB	060H
	DB	0dbH
	DB	060H
	DB	0dbH
	DB	060H
	DB	0d3H
	DB	060H
	DB	0dbH
	DB	060H
	DB	0dbH
	DB	060H
	DB	0dbH
	DB	060H
	DB	0dbH
	DB	060H
	DB	0dbH
	DB	060H
	DB	0d3H
	DB	060H
	DB	0dbH
	DB	060H
	DB	0dbH
	DB	060H
	DB	0dbH
	DB	060H
	DB	0dbH
	DB	055H
	DB	0adH
	DB	055H
	DB	0adH
	DB	060H
	DB	0dbH
	DB	060H
	DB	0dbH
	DB	060H
	DB	0dbH
	DB	080H
	DB	0d3H
	DB	060H
	DB	0dbH
	DB	080H
	DB	0dbH
	DB	060H
	DB	0d3H
	DB	080H
	DB	0dbH
	DB	060H
	DB	0dbH
	DB	080H
	DB	0d3H
	DB	060H
	DB	0d3H
	DB	080H
	DB	0dbH
	DB	060H
	DB	0dbH
	DB	080H
	DB	0dbH
	DB	060H
	DB	0d3H
	DB	080H
	DB	0dbH
	DB	060H
	DB	0d3H
	DB	080H
	DB	0dbH
	DB	060H
	DB	0dbH
	DB	080H
	DB	0dbH
	DB	060H
	DB	0d3H
	DB	080H
	DB	0dbH
	DB	060H
	DB	0d3H
	DB	080H
	DB	0dbH
	DB	060H
	DB	0dbH
	DB	080H
	DB	0dbH
	DB	060H
	DB	0d3H
	DB	080H
	DB	0dbH
	DB	060H
	DB	0d3H
	DB	080H
	DB	0dbH
	DB	060H
	DB	0dbH
	DB	080H
	DB	0dbH
	DB	060H
	DB	0d3H
	DB	080H
	DB	0dbH
	DB	060H
	DB	0d3H
	DB	080H
	DB	0dbH
	DB	060H
	DB	0dbH
	DB	080H
	DB	0dbH
	DB	060H
	DB	0d3H
	DB	080H
	DB	0dbH
	DB	060H
	DB	0d3H
	DB	080H
	DB	0dbH
	DB	060H
	DB	0dbH
	DB	080H
	DB	0dbH
	DB	060H
	DB	0d3H
	DB	080H
	DB	0dbH
	DB	060H
	DB	0d3H
	DB	080H
	DB	0dbH
	DB	060H
	DB	0dbH
	DB	080H
	DB	0dbH
	DB	060H
	DB	0d3H
	DB	080H
	DB	0dbH
	DB	060H
	DB	0d3H
	DB	080H
	DB	0dbH
	DB	060H
	DB	0dbH
	DB	080H
	DB	0dbH
	DB	060H
	DB	0d3H
	DB	080H
	DB	0dbH
	DB	060H
	DB	0d3H
	DB	080H
	DB	0dbH
	DB	060H
	DB	0dbH
	DB	080H
	DB	0dbH
	DB	060H
	DB	0d3H
	DB	080H
	DB	0dbH
	DB	060H
	DB	0d3H
	DB	080H
	DB	0dbH
	DB	060H
	DB	0dbH
	DB	080H
	DB	0dbH
	DB	060H
	DB	0d3H
	DB	080H
	DB	0dbH
	DB	060H
	DB	0d3H
	DB	080H
	DB	0dbH
	DB	060H
	DB	0dbH
	DB	080H
	DB	0dbH
	DB	060H
	DB	0d3H
	DB	080H
	DB	0dbH
	DB	060H
	DB	0d3H
	DB	080H
	DB	0dbH
	DB	060H
	DB	0dbH
	DB	080H
	DB	0dbH
	DB	060H
	DB	0d3H
	DB	080H
	DB	0dbH
	DB	060H
	DB	0d3H
	DB	080H
	DB	0dbH
	DB	060H
	DB	0dbH
	DB	080H
	DB	0dbH
	DB	060H
	DB	0d3H
	DB	080H
	DB	0dbH
	DB	060H
	DB	0d3H
	DB	060H
	DB	0dbH
	DB	055H
	DB	0adH
	DB	055H
	DB	0adH
	DB	060H
	DB	0d3H
	DB	060H
	DB	0dbH
	DB	060H
	DB	0dbH
	DB	060H
	DB	0dbH
	DB	080H
	DB	0d3H
	DB	060H
	DB	0dbH
	DB	060H
	DB	0dbH
	DB	060H
	DB	0dbH
	DB	080H
	DB	0dbH
	DB	060H
	DB	0dbH
	DB	060H
	DB	0dbH
	DB	060H
	DB	0d3H
	DB	080H
	DB	0dbH
	DB	060H
	DB	0dbH
	DB	060H
	DB	0dbH
	DB	060H
	DB	0dbH
	DB	080H
	DB	0d3H
	DB	060H
	DB	0dbH
	DB	060H
	DB	0dbH
	DB	060H
	DB	0d3H
	DB	080H
	DB	0dbH
	DB	060H
	DB	0dbH
	DB	060H
	DB	0dbH
	DB	060H
	DB	0d3H
	DB	080H
	DB	0dbH
	DB	060H
	DB	0dbH
	DB	060H
	DB	0dbH
	DB	060H
	DB	0dbH
	DB	080H
	DB	0d3H
	DB	060H
	DB	0dbH
	DB	060H
	DB	0dbH
	DB	060H
	DB	0d3H
	DB	080H
	DB	0dbH
	DB	060H
	DB	0dbH
	DB	060H
	DB	0dbH
	DB	060H
	DB	0d3H
	DB	080H
	DB	0dbH
	DB	060H
	DB	0dbH
	DB	060H
	DB	0dbH
	DB	060H
	DB	0dbH
	DB	080H
	DB	0d3H
	DB	060H
	DB	0dbH
	DB	060H
	DB	0dbH
	DB	060H
	DB	0d3H
	DB	080H
	DB	0dbH
	DB	060H
	DB	0dbH
	DB	060H
	DB	0dbH
	DB	060H
	DB	0d3H
	DB	080H
	DB	0dbH
	DB	060H
	DB	0dbH
	DB	060H
	DB	0dbH
	DB	060H
	DB	0dbH
	DB	080H
	DB	0d3H
	DB	060H
	DB	0dbH
	DB	060H
	DB	0dbH
	DB	060H
	DB	0d3H
	DB	080H
	DB	0dbH
	DB	060H
	DB	0dbH
	DB	060H
	DB	0dbH
	DB	060H
	DB	0d3H
	DB	080H
	DB	0dbH
	DB	060H
	DB	0dbH
	DB	060H
	DB	0dbH
	DB	060H
	DB	0dbH
	DB	080H
	DB	0d3H
	DB	060H
	DB	0dbH
	DB	060H
	DB	0dbH
	DB	060H
	DB	0d3H
	DB	080H
	DB	0dbH
	DB	060H
	DB	0dbH
	DB	060H
	DB	0dbH
	DB	060H
	DB	0d3H
	DB	080H
	DB	0dbH
	DB	060H
	DB	0dbH
	DB	060H
	DB	0dbH
	DB	060H
	DB	0dbH
	DB	080H
	DB	0d3H
	DB	060H
	DB	0dbH
	DB	060H
	DB	0dbH
	DB	060H
	DB	0d3H
	DB	080H
	DB	0dbH
	DB	060H
	DB	0dbH
	DB	060H
	DB	0dbH
	DB	060H
	DB	0d3H
	DB	080H
	DB	0dbH
	DB	060H
	DB	0dbH
	DB	060H
	DB	0dbH
	DB	060H
	DB	0dbH
	DB	080H
	DB	0dbH
	DB	060H
	DB	0d3H
	DB	055H
	DB	0adH
	DB	055H
	DB	0adH
	DB	060H
	DB	0dbH
	DB	060H
	DB	0d3H
	DB	080H
	DB	0dbH
	DB	060H
	DB	0dbH
	DB	060H
	DB	0dbH
	DB	060H
	DB	0d3H
	DB	060H
	DB	0dbH
	DB	060H
	DB	0dbH
	DB	060H
	DB	0d3H
	DB	060H
	DB	0dbH
	DB	060H
	DB	0dbH
	DB	060H
	DB	0dbH
	DB	060H
	DB	0d3H
	DB	060H
	DB	0dbH
	DB	060H
	DB	0dbH
	DB	060H
	DB	0dbH
	DB	060H
	DB	0dbH
	DB	060H
	DB	0dbH
	DB	060H
	DB	0d3H
	DB	060H
	DB	0dbH
	DB	060H
	DB	0dbH
	DB	060H
	DB	0dbH
	DB	060H
	DB	0dbH
	DB	060H
	DB	0d3H
	DB	060H
	DB	0dbH
	DB	060H
	DB	0dbH
	DB	060H
	DB	0d3H
	DB	060H
	DB	0dbH
	DB	060H
	DB	0dbH
	DB	060H
	DB	0dbH
	DB	060H
	DB	0dbH
	DB	060H
	DB	0dbH
	DB	060H
	DB	0dbH
	DB	060H
	DB	0dbH
	DB	060H
	DB	0dbH
	DB	060H
	DB	0d3H
	DB	060H
	DB	0dbH
	DB	060H
	DB	0dbH
	DB	060H
	DB	0d3H
	DB	060H
	DB	0dbH
	DB	060H
	DB	0dbH
	DB	060H
	DB	0dbH
	DB	060H
	DB	0dbH
	DB	060H
	DB	0dbH
	DB	060H
	DB	0dbH
	DB	060H
	DB	0dbH
	DB	060H
	DB	0dbH
	DB	060H
	DB	0d3H
	DB	060H
	DB	0dbH
	DB	060H
	DB	0dbH
	DB	060H
	DB	0d3H
	DB	060H
	DB	0dbH
	DB	060H
	DB	0dbH
	DB	060H
	DB	0dbH
	DB	060H
	DB	0dbH
	DB	060H
	DB	0dbH
	DB	060H
	DB	0dbH
	DB	060H
	DB	0dbH
	DB	060H
	DB	0dbH
	DB	060H
	DB	0d3H
	DB	060H
	DB	0dbH
	DB	060H
	DB	0dbH
	DB	060H
	DB	0d3H
	DB	060H
	DB	0dbH
	DB	060H
	DB	0dbH
	DB	060H
	DB	0dbH
	DB	060H
	DB	0dbH
	DB	060H
	DB	0dbH
	DB	060H
	DB	0dbH
	DB	060H
	DB	0dbH
	DB	060H
	DB	0dbH
	DB	060H
	DB	0d3H
	DB	060H
	DB	0dbH
	DB	060H
	DB	0dbH
	DB	060H
	DB	0d3H
	DB	060H
	DB	0dbH
	DB	060H
	DB	0dbH
	DB	060H
	DB	0dbH
	DB	060H
	DB	0dbH
	DB	060H
	DB	0dbH
	DB	060H
	DB	0dbH
	DB	060H
	DB	0dbH
	DB	060H
	DB	0dbH
	DB	060H
	DB	0d3H
	DB	060H
	DB	0dbH
	DB	060H
	DB	0dbH
	DB	060H
	DB	0d3H
	DB	060H
	DB	0dbH
	DB	060H
	DB	0dbH
	DB	060H
	DB	0dbH
	DB	055H
	DB	0adH
	DB	055H
	DB	0adH
	DB	060H
	DB	0dbH
	DB	060H
	DB	0dbH
	DB	060H
	DB	0d3H
	DB	080H
	DB	0dbH
	DB	060H
	DB	0dbH
	DB	060H
	DB	0dbH
	DB	080H
	DB	0d3H
	DB	080H
	DB	0dbH
	DB	060H
	DB	0dbH
	DB	080H
	DB	0d3H
	DB	060H
	DB	0dbH
	DB	080H
	DB	0dbH
	DB	060H
	DB	0dbH
	DB	080H
	DB	0d3H
	DB	080H
	DB	0dbH
	DB	060H
	DB	0d3H
	DB	060H
	DB	0dbH
	DB	080H
	DB	0dbH
	DB	080H
	DB	0dbH
	DB	060H
	DB	0dbH
	DB	060H
	DB	0d3H
	DB	080H
	DB	0dbH
	DB	080H
	DB	0dbH
	DB	060H
	DB	0dbH
	DB	060H
	DB	0dbH
	DB	080H
	DB	0d3H
	DB	080H
	DB	0dbH
	DB	060H
	DB	0dbH
	DB	060H
	DB	0d3H
	DB	080H
	DB	0dbH
	DB	080H
	DB	0d3H
	DB	060H
	DB	0dbH
	DB	060H
	DB	0d3H
	DB	080H
	DB	0dbH
	DB	080H
	DB	0dbH
	DB	060H
	DB	0dbH
	DB	060H
	DB	0dbH
	DB	080H
	DB	0d3H
	DB	080H
	DB	0dbH
	DB	060H
	DB	0dbH
	DB	060H
	DB	0d3H
	DB	080H
	DB	0dbH
	DB	080H
	DB	0d3H
	DB	060H
	DB	0dbH
	DB	060H
	DB	0d3H
	DB	080H
	DB	0dbH
	DB	080H
	DB	0dbH
	DB	060H
	DB	0dbH
	DB	060H
	DB	0dbH
	DB	080H
	DB	0d3H
	DB	080H
	DB	0dbH
	DB	060H
	DB	0dbH
	DB	060H
	DB	0d3H
	DB	080H
	DB	0dbH
	DB	080H
	DB	0d3H
	DB	060H
	DB	0dbH
	DB	060H
	DB	0d3H
	DB	080H
	DB	0dbH
	DB	080H
	DB	0dbH
	DB	060H
	DB	0dbH
	DB	060H
	DB	0dbH
	DB	080H
	DB	0d3H
	DB	080H
	DB	0dbH
	DB	060H
	DB	0dbH
	DB	060H
	DB	0d3H
	DB	080H
	DB	0dbH
	DB	080H
	DB	0d3H
	DB	060H
	DB	0dbH
	DB	060H
	DB	0d3H
	DB	080H
	DB	0dbH
	DB	080H
	DB	0dbH
	DB	060H
	DB	0dbH
	DB	060H
	DB	0dbH
	DB	080H
	DB	0d3H
	DB	080H
	DB	0dbH
	DB	060H
	DB	0dbH
	DB	060H
	DB	0d3H
	DB	080H
	DB	0dbH
	DB	080H
	DB	0d3H
	DB	060H
	DB	0dbH
	DB	060H
	DB	0d3H
	DB	080H
	DB	0dbH
	DB	080H
	DB	0dbH
	DB	060H
	DB	0dbH
	DB	060H
	DB	0dbH
	DB	080H
	DB	0d3H
	DB	080H
	DB	0dbH
	DB	060H
	DB	0dbH
	DB	060H
	DB	0d3H
	DB	060H
	DB	0dbH
	DB	055H
	DB	0adH
	DB	055H
	DB	0adH
	DB	060H
	DB	0dbH
	DB	060H
	DB	0dbH
	DB	060H
	DB	0dbH
	DB	060H
	DB	0d3H
	DB	080H
	DB	0dbH
	DB	060H
	DB	0dbH
	DB	060H
	DB	0dbH
	DB	060H
	DB	0dbH
	DB	060H
	DB	0dbH
	DB	060H
	DB	0dbH
	DB	060H
	DB	0d3H
	DB	060H
	DB	0dbH
	DB	060H
	DB	0dbH
	DB	060H
	DB	0dbH
	DB	060H
	DB	0dbH
	DB	060H
	DB	0d3H
	DB	060H
	DB	0dbH
	DB	060H
	DB	0dbH
	DB	060H
	DB	0d3H
	DB	080H
	DB	0dbH
	DB	060H
	DB	0dbH
	DB	060H
	DB	0d3H
	DB	060H
	DB	0dbH
	DB	060H
	DB	0dbH
	DB	060H
	DB	0d3H
	DB	060H
	DB	0dbH
	DB	060H
	DB	0dbH
	DB	080H
	DB	0dbH
	DB	060H
	DB	0dbH
	DB	060H
	DB	0d3H
	DB	060H
	DB	0dbH
	DB	060H
	DB	0dbH
	DB	060H
	DB	0d3H
	DB	060H
	DB	0dbH
	DB	060H
	DB	0dbH
	DB	080H
	DB	0d3H
	DB	060H
	DB	0dbH
	DB	060H
	DB	0dbH
	DB	060H
	DB	0dbH
	DB	060H
	DB	0dbH
	DB	060H
	DB	0dbH
	DB	060H
	DB	0d3H
	DB	060H
	DB	0dbH
	DB	080H
	DB	0dbH
	DB	060H
	DB	0d3H
	DB	060H
	DB	0dbH
	DB	060H
	DB	0dbH
	DB	060H
	DB	0d3H
	DB	060H
	DB	0dbH
	DB	060H
	DB	0dbH
	DB	060H
	DB	0dbH
	DB	080H
	DB	0dbH
	DB	060H
	DB	0dbH
	DB	060H
	DB	0d3H
	DB	060H
	DB	0dbH
	DB	060H
	DB	0dbH
	DB	060H
	DB	0d3H
	DB	060H
	DB	0dbH
	DB	060H
	DB	0dbH
	DB	080H
	DB	0d3H
	DB	060H
	DB	0dbH
	DB	060H
	DB	0dbH
	DB	060H
	DB	0dbH
	DB	060H
	DB	0dbH
	DB	060H
	DB	0dbH
	DB	060H
	DB	0d3H
	DB	060H
	DB	0dbH
	DB	080H
	DB	0dbH
	DB	060H
	DB	0d3H
	DB	060H
	DB	0dbH
	DB	060H
	DB	0dbH
	DB	060H
	DB	0d3H
	DB	060H
	DB	0dbH
	DB	060H
	DB	0dbH
	DB	060H
	DB	0dbH
	DB	080H
	DB	0dbH
	DB	060H
	DB	0dbH
	DB	060H
	DB	0d3H
	DB	060H
	DB	0dbH
	DB	060H
	DB	0dbH
	DB	060H
	DB	0d3H
	DB	060H
	DB	0dbH
	DB	060H
	DB	0dbH
	DB	080H
	DB	0d3H
	DB	060H
	DB	0dbH
	DB	060H
	DB	0dbH
	DB	060H
	DB	0dbH
	DB	080H
	DB	0dbH
	DB	060H
	DB	0d3H
	DB	060H
	DB	0dbH
	DB	055H
	DB	0adH
	DB	055H
	DB	0adH
	DB	060H
	DB	0dbH
	DB	060H
	DB	0dbH
	DB	080H
	DB	0dbH
	DB	060H
	DB	0dbH
	DB	060H
	DB	0d3H
	DB	060H
	DB	0dbH
	DB	060H
	DB	0dbH
	DB	060H
	DB	0d3H
	DB	080H
	DB	0dbH
	DB	060H
	DB	0dbH
	DB	060H
	DB	0dbH
	DB	080H
	DB	0d3H
	DB	060H
	DB	0dbH
	DB	060H
	DB	0dbH
	DB	080H
	DB	0dbH
	DB	060H
	DB	0dbH
	DB	080H
	DB	0dbH
	DB	060H
	DB	0d3H
	DB	060H
	DB	0dbH
	DB	060H
	DB	0dbH
	DB	060H
	DB	0dbH
	DB	060H
	DB	0dbH
	DB	080H
	DB	0d3H
	DB	060H
	DB	0dbH
	DB	080H
	DB	0dbH
	DB	060H
	DB	0dbH
	DB	060H
	DB	0d3H
	DB	060H
	DB	0dbH
	DB	060H
	DB	0dbH
	DB	060H
	DB	0dbH
	DB	080H
	DB	0dbH
	DB	060H
	DB	0dbH
	DB	080H
	DB	0dbH
	DB	060H
	DB	0dbH
	DB	060H
	DB	0d3H
	DB	060H
	DB	0dbH
	DB	060H
	DB	0dbH
	DB	060H
	DB	0d3H
	DB	080H
	DB	0dbH
	DB	060H
	DB	0dbH
	DB	080H
	DB	0dbH
	DB	060H
	DB	0dbH
	DB	060H
	DB	0dbH
	DB	060H
	DB	0dbH
	DB	060H
	DB	0dbH
	DB	060H
	DB	0dbH
	DB	080H
	DB	0d3H
	DB	060H
	DB	0dbH
	DB	080H
	DB	0dbH
	DB	060H
	DB	0d3H
	DB	060H
	DB	0dbH
	DB	060H
	DB	0dbH
	DB	060H
	DB	0dbH
	DB	060H
	DB	0dbH
	DB	080H
	DB	0dbH
	DB	060H
	DB	0dbH
	DB	080H
	DB	0dbH
	DB	060H
	DB	0dbH
	DB	060H
	DB	0d3H
	DB	060H
	DB	0dbH
	DB	060H
	DB	0dbH
	DB	060H
	DB	0d3H
	DB	080H
	DB	0dbH
	DB	060H
	DB	0dbH
	DB	080H
	DB	0dbH
	DB	060H
	DB	0dbH
	DB	060H
	DB	0dbH
	DB	060H
	DB	0dbH
	DB	060H
	DB	0dbH
	DB	060H
	DB	0dbH
	DB	080H
	DB	0d3H
	DB	060H
	DB	0dbH
	DB	080H
	DB	0dbH
	DB	060H
	DB	0d3H
	DB	060H
	DB	0dbH
	DB	060H
	DB	0dbH
	DB	060H
	DB	0dbH
	DB	060H
	DB	0dbH
	DB	080H
	DB	0dbH
	DB	060H
	DB	0dbH
	DB	080H
	DB	0dbH
	DB	060H
	DB	0dbH
	DB	060H
	DB	0d3H
	DB	060H
	DB	0dbH
	DB	060H
	DB	0dbH
	DB	060H
	DB	0d3H
	DB	060H
	DB	0dbH
	DB	060H
	DB	0dbH
	DB	080H
	DB	0dbH
	DB	060H
	DB	0dbH
	DB	055H
	DB	0adH
	DB	055H
	DB	0adH
	DB	060H
	DB	0d3H
	DB	060H
	DB	0dbH
	DB	060H
	DB	0dbH
	DB	080H
	DB	0d3H
	DB	060H
	DB	0dbH
	DB	080H
	DB	0dbH
	DB	060H
	DB	0d3H
	DB	060H
	DB	0dbH
	DB	080H
	DB	0dbH
	DB	060H
	DB	0d3H
	DB	060H
	DB	0dbH
	DB	080H
	DB	0dbH
	DB	060H
	DB	0d3H
	DB	060H
	DB	0dbH
	DB	080H
	DB	0d3H
	DB	060H
	DB	0dbH
	DB	060H
	DB	0dbH
	DB	080H
	DB	0dbH
	DB	060H
	DB	0d3H
	DB	060H
	DB	0dbH
	DB	080H
	DB	0dbH
	DB	060H
	DB	0d3H
	DB	060H
	DB	0dbH
	DB	080H
	DB	0dbH
	DB	060H
	DB	0dbH
	DB	060H
	DB	0d3H
	DB	080H
	DB	0dbH
	DB	060H
	DB	0dbH
	DB	060H
	DB	0d3H
	DB	080H
	DB	0dbH
	DB	060H
	DB	0dbH
	DB	060H
	DB	0d3H
	DB	080H
	DB	0dbH
	DB	060H
	DB	0dbH
	DB	060H
	DB	0dbH
	DB	080H
	DB	0dbH
	DB	060H
	DB	0dbH
	DB	060H
	DB	0d3H
	DB	080H
	DB	0dbH
	DB	060H
	DB	0d3H
	DB	060H
	DB	0d3H
	DB	080H
	DB	0dbH
	DB	060H
	DB	0dbH
	DB	060H
	DB	0d3H
	DB	080H
	DB	0dbH
	DB	060H
	DB	0dbH
	DB	060H
	DB	0dbH
	DB	080H
	DB	0dbH
	DB	060H
	DB	0dbH
	DB	060H
	DB	0d3H
	DB	080H
	DB	0dbH
	DB	060H
	DB	0d3H
	DB	060H
	DB	0d3H
	DB	080H
	DB	0dbH
	DB	060H
	DB	0dbH
	DB	060H
	DB	0d3H
	DB	080H
	DB	0dbH
	DB	060H
	DB	0dbH
	DB	060H
	DB	0dbH
	DB	080H
	DB	0dbH
	DB	060H
	DB	0dbH
	DB	060H
	DB	0d3H
	DB	080H
	DB	0dbH
	DB	060H
	DB	0d3H
	DB	060H
	DB	0d3H
	DB	080H
	DB	0dbH
	DB	060H
	DB	0dbH
	DB	060H
	DB	0d3H
	DB	080H
	DB	0dbH
	DB	060H
	DB	0dbH
	DB	060H
	DB	0dbH
	DB	080H
	DB	0dbH
	DB	060H
	DB	0dbH
	DB	060H
	DB	0d3H
	DB	080H
	DB	0dbH
	DB	060H
	DB	0d3H
	DB	060H
	DB	0d3H
	DB	080H
	DB	0dbH
	DB	060H
	DB	0dbH
	DB	060H
	DB	0d3H
	DB	080H
	DB	0dbH
	DB	060H
	DB	0dbH
	DB	060H
	DB	0dbH
	DB	080H
	DB	0dbH
	DB	060H
	DB	0dbH
	DB	080H
	DB	0d3H
	DB	060H
	DB	0dbH
	DB	060H
	DB	0dbH
	DB	060H
	DB	0d3H
	DB	060H
	DB	0dbH
	DB	055H
	DB	0adH
	DB	055H
	DB	0adH
	DB	060H
	DB	0dbH
	DB	060H
	DB	0dbH
	DB	060H
	DB	0d3H
	DB	060H
	DB	0dbH
	DB	060H
	DB	0dbH
	DB	060H
	DB	0dbH
	DB	080H
	DB	0dbH
	DB	060H
	DB	0dbH
	DB	060H
	DB	0d3H
	DB	060H
	DB	0dbH
	DB	060H
	DB	0dbH
	DB	060H
	DB	0dbH
	DB	060H
	DB	0dbH
	DB	060H
	DB	0dbH
	DB	060H
	DB	0d3H
	DB	060H
	DB	0dbH
	DB	060H
	DB	0dbH
	DB	060H
	DB	0d3H
	DB	080H
	DB	0dbH
	DB	060H
	DB	0dbH
	DB	060H
	DB	0dbH
	DB	060H
	DB	0dbH
	DB	060H
	DB	0dbH
	DB	060H
	DB	0d3H
	DB	060H
	DB	0dbH
	DB	060H
	DB	0dbH
	DB	080H
	DB	0dbH
	DB	060H
	DB	0dbH
	DB	060H
	DB	0d3H
	DB	080H
	DB	0dbH
	DB	060H
	DB	0dbH
	DB	060H
	DB	0d3H
	DB	060H
	DB	0dbH
	DB	060H
	DB	0dbH
	DB	080H
	DB	0d3H
	DB	060H
	DB	0dbH
	DB	060H
	DB	0dbH
	DB	060H
	DB	0dbH
	DB	060H
	DB	0dbH
	DB	060H
	DB	0dbH
	DB	060H
	DB	0dbH
	DB	060H
	DB	0dbH
	DB	080H
	DB	0d3H
	DB	060H
	DB	0dbH
	DB	060H
	DB	0dbH
	DB	060H
	DB	0d3H
	DB	060H
	DB	0dbH
	DB	060H
	DB	0dbH
	DB	060H
	DB	0d3H
	DB	060H
	DB	0dbH
	DB	080H
	DB	0dbH
	DB	060H
	DB	0dbH
	DB	060H
	DB	0dbH
	DB	080H
	DB	0dbH
	DB	060H
	DB	0d3H
	DB	060H
	DB	0dbH
	DB	060H
	DB	0dbH
	DB	060H
	DB	0d3H
	DB	080H
	DB	0dbH
	DB	060H
	DB	0dbH
	DB	060H
	DB	0d3H
	DB	060H
	DB	0dbH
	DB	060H
	DB	0dbH
	DB	060H
	DB	0dbH
	DB	060H
	DB	0dbH
	DB	060H
	DB	0dbH
	DB	080H
	DB	0d3H
	DB	060H
	DB	0dbH
	DB	060H
	DB	0dbH
	DB	060H
	DB	0d3H
	DB	060H
	DB	0dbH
	DB	060H
	DB	0dbH
	DB	060H
	DB	0d3H
	DB	060H
	DB	0dbH
	DB	080H
	DB	0dbH
	DB	060H
	DB	0dbH
	DB	060H
	DB	0dbH
	DB	080H
	DB	0dbH
	DB	060H
	DB	0d3H
	DB	060H
	DB	0dbH
	DB	060H
	DB	0dbH
	DB	060H
	DB	0d3H
	DB	080H
	DB	0dbH
	DB	060H
	DB	0dbH
	DB	060H
	DB	0d3H
	DB	080H
	DB	0dbH
	DB	060H
	DB	0dbH
	DB	060H
	DB	0d3H
	DB	080H
	DB	0dbH
	DB	060H
	DB	0dbH
	DB	055H
	DB	0adH
	DB	055H
	DB	0adH
	DB	060H
	DB	0dbH
	DB	060H
	DB	0dbH
	DB	080H
	DB	0dbH
	DB	060H
	DB	0dbH
	DB	060H
	DB	0d3H
	DB	060H
	DB	0dbH
	DB	060H
	DB	0dbH
	DB	080H
	DB	0d3H
	DB	060H
	DB	0dbH
	DB	080H
	DB	0dbH
	DB	060H
	DB	0d3H
	DB	080H
	DB	0dbH
	DB	080H
	DB	0dbH
	DB	060H
	DB	0dbH
	DB	060H
	DB	0dbH
	DB	080H
	DB	0dbH
	DB	060H
	DB	0d3H
	DB	060H
	DB	0dbH
	DB	060H
	DB	0dbH
	DB	080H
	DB	0d3H
	DB	060H
	DB	0dbH
	DB	080H
	DB	0dbH
	DB	060H
	DB	0d3H
	DB	080H
	DB	0dbH
	DB	060H
	DB	0dbH
	DB	060H
	DB	0d3H
	DB	060H
	DB	0dbH
	DB	060H
	DB	0dbH
	DB	060H
	DB	0dbH
	DB	060H
	DB	0dbH
	DB	060H
	DB	0dbH
	DB	080H
	DB	0dbH
	DB	060H
	DB	0d3H
	DB	060H
	DB	0dbH
	DB	060H
	DB	0dbH
	DB	080H
	DB	0d3H
	DB	060H
	DB	0dbH
	DB	080H
	DB	0dbH
	DB	060H
	DB	0d3H
	DB	080H
	DB	0dbH
	DB	060H
	DB	0dbH
	DB	060H
	DB	0dbH
	DB	060H
	DB	0dbH
	DB	080H
	DB	0dbH
	DB	060H
	DB	0d3H
	DB	080H
	DB	0dbH
	DB	060H
	DB	0dbH
	DB	080H
	DB	0d3H
	DB	060H
	DB	0dbH
	DB	060H
	DB	0dbH
	DB	060H
	DB	0dbH
	DB	060H
	DB	0dbH
	DB	060H
	DB	0dbH
	DB	060H
	DB	0dbH
	DB	060H
	DB	0dbH
	DB	080H
	DB	0dbH
	DB	060H
	DB	0d3H
	DB	060H
	DB	0dbH
	DB	060H
	DB	0dbH
	DB	080H
	DB	0d3H
	DB	060H
	DB	0dbH
	DB	080H
	DB	0dbH
	DB	060H
	DB	0dbH
	DB	080H
	DB	0dbH
	DB	060H
	DB	0dbH
	DB	060H
	DB	0dbH
	DB	060H
	DB	0dbH
	DB	080H
	DB	0dbH
	DB	060H
	DB	0d3H
	DB	080H
	DB	0dbH
	DB	060H
	DB	0dbH
	DB	080H
	DB	0d3H
	DB	060H
	DB	0dbH
	DB	060H
	DB	0dbH
	DB	060H
	DB	0dbH
	DB	060H
	DB	0dbH
	DB	060H
	DB	0dbH
	DB	060H
	DB	0dbH
	DB	060H
	DB	0dbH
	DB	080H
	DB	0dbH
	DB	060H
	DB	0d3H
	DB	060H
	DB	0dbH
	DB	060H
	DB	0dbH
	DB	060H
	DB	0d3H
	DB	060H
	DB	0dbH
	DB	060H
	DB	0dbH
	DB	060H
	DB	0dbH
	DB	080H
	DB	0dbH
	DB	060H
	DB	0dbH
	DB	060H
	DB	0dbH
	DB	055H
	DB	0adH
	DB	055H
	DB	0adH
	DB	060H
	DB	0dbH
	DB	060H
	DB	0d3H
	DB	080H
	DB	0dbH
	DB	060H
	DB	0dbH
	DB	080H
	DB	0d3H
	DB	060H
	DB	0dbH
	DB	060H
	DB	0dbH
	DB	060H
	DB	0dbH
	DB	060H
	DB	0dbH
	DB	060H
	DB	0dbH
	DB	060H
	DB	0d3H
	DB	060H
	DB	0dbH
	DB	060H
	DB	0d3H
	DB	060H
	DB	0d3H
	DB	080H
	DB	0dbH
	DB	060H
	DB	0dbH
	DB	060H
	DB	0dbH
	DB	080H
	DB	0dbH
	DB	060H
	DB	0dbH
	DB	060H
	DB	0d3H
	DB	060H
	DB	0dbH
	DB	060H
	DB	0dbH
	DB	080H
	DB	0d3H
	DB	060H
	DB	0dbH
	DB	060H
	DB	0dbH
	DB	080H
	DB	0dbH
	DB	060H
	DB	0d3H
	DB	080H
	DB	0dbH
	DB	060H
	DB	0d3H
	DB	060H
	DB	0dbH
	DB	080H
	DB	0dbH
	DB	060H
	DB	0d3H
	DB	060H
	DB	0dbH
	DB	060H
	DB	0dbH
	DB	080H
	DB	0dbH
	DB	060H
	DB	0d3H
	DB	060H
	DB	0dbH
	DB	060H
	DB	0dbH
	DB	060H
	DB	0d3H
	DB	080H
	DB	0dbH
	DB	060H
	DB	0d3H
	DB	060H
	DB	0d3H
	DB	060H
	DB	0dbH
	DB	060H
	DB	0dbH
	DB	060H
	DB	0dbH
	DB	060H
	DB	0dbH
	DB	080H
	DB	0dbH
	DB	060H
	DB	0dbH
	DB	060H
	DB	0dbH
	DB	080H
	DB	0d3H
	DB	060H
	DB	0d3H
	DB	080H
	DB	0dbH
	DB	060H
	DB	0d3H
	DB	060H
	DB	0d3H
	DB	080H
	DB	0dbH
	DB	060H
	DB	0dbH
	DB	060H
	DB	0dbH
	DB	060H
	DB	0dbH
	DB	080H
	DB	0dbH
	DB	060H
	DB	0dbH
	DB	060H
	DB	0dbH
	DB	060H
	DB	0d3H
	DB	060H
	DB	0d3H
	DB	080H
	DB	0dbH
	DB	060H
	DB	0d3H
	DB	060H
	DB	0d3H
	DB	060H
	DB	0dbH
	DB	060H
	DB	0dbH
	DB	060H
	DB	0dbH
	DB	060H
	DB	0dbH
	DB	080H
	DB	0dbH
	DB	060H
	DB	0dbH
	DB	060H
	DB	0dbH
	DB	080H
	DB	0d3H
	DB	060H
	DB	0d3H
	DB	080H
	DB	0dbH
	DB	060H
	DB	0d3H
	DB	060H
	DB	0d3H
	DB	080H
	DB	0dbH
	DB	060H
	DB	0dbH
	DB	060H
	DB	0dbH
	DB	080H
	DB	0dbH
	DB	060H
	DB	0dbH
	DB	080H
	DB	0dbH
	DB	060H
	DB	0dbH
	DB	060H
	DB	0d3H
	DB	080H
	DB	0dbH
	DB	060H
	DB	0dbH
	DB	060H
	DB	0d3H
	DB	060H
	DB	0d3H
	DB	055H
	DB	0adH
	DB	055H
	DB	0adH
	DB	060H
	DB	0dbH
	DB	060H
	DB	0d3H
	DB	060H
	DB	0dbH
	DB	060H
	DB	0dbH
	DB	060H
	DB	0dbH
	DB	080H
	DB	0d3H
	DB	060H
	DB	0dbH
	DB	060H
	DB	0dbH
	DB	080H
	DB	0d3H
	DB	060H
	DB	0dbH
	DB	060H
	DB	0dbH
	DB	080H
	DB	0dbH
	DB	060H
	DB	0dbH
	DB	060H
	DB	0dbH
	DB	060H
	DB	0dbH
	DB	060H
	DB	0d3H
	DB	060H
	DB	0dbH
	DB	080H
	DB	0dbH
	DB	060H
	DB	0d3H
	DB	060H
	DB	0dbH
	DB	060H
	DB	0dbH
	DB	060H
	DB	0dbH
	DB	060H
	DB	0dbH
	DB	060H
	DB	0dbH
	DB	060H
	DB	0dbH
	DB	060H
	DB	0dbH
	DB	080H
	DB	0dbH
	DB	060H
	DB	0dbH
	DB	060H
	DB	0d3H
	DB	080H
	DB	0dbH
	DB	060H
	DB	0dbH
	DB	060H
	DB	0dbH
	DB	060H
	DB	0dbH
	DB	080H
	DB	0dbH
	DB	060H
	DB	0d3H
	DB	060H
	DB	0dbH
	DB	060H
	DB	0dbH
	DB	060H
	DB	0dbH
	DB	060H
	DB	0dbH
	DB	060H
	DB	0dbH
	DB	080H
	DB	0dbH
	DB	060H
	DB	0dbH
	DB	080H
	DB	0dbH
	DB	060H
	DB	0d3H
	DB	060H
	DB	0dbH
	DB	060H
	DB	0d3H
	DB	060H
	DB	0d3H
	DB	060H
	DB	0dbH
	DB	060H
	DB	0dbH
	DB	060H
	DB	0dbH
	DB	080H
	DB	0dbH
	DB	060H
	DB	0dbH
	DB	060H
	DB	0dbH
	DB	080H
	DB	0dbH
	DB	060H
	DB	0d3H
	DB	060H
	DB	0dbH
	DB	060H
	DB	0d3H
	DB	080H
	DB	0dbH
	DB	060H
	DB	0d3H
	DB	060H
	DB	0dbH
	DB	060H
	DB	0dbH
	DB	060H
	DB	0dbH
	DB	060H
	DB	0dbH
	DB	060H
	DB	0dbH
	DB	080H
	DB	0dbH
	DB	060H
	DB	0dbH
	DB	080H
	DB	0d3H
	DB	060H
	DB	0dbH
	DB	060H
	DB	0d3H
	DB	060H
	DB	0dbH
	DB	060H
	DB	0d3H
	DB	060H
	DB	0dbH
	DB	060H
	DB	0dbH
	DB	060H
	DB	0dbH
	DB	080H
	DB	0dbH
	DB	060H
	DB	0dbH
	DB	060H
	DB	0dbH
	DB	080H
	DB	0dbH
	DB	060H
	DB	0d3H
	DB	060H
	DB	0dbH
	DB	060H
	DB	0d3H
	DB	060H
	DB	0dbH
	DB	080H
	DB	0d3H
	DB	060H
	DB	0dbH
	DB	060H
	DB	0dbH
	DB	080H
	DB	0d3H
	DB	060H
	DB	0dbH
	DB	060H
	DB	0dbH
	DB	060H
	DB	0dbH
	DB	060H
	DB	0dbH
	DB	055H
	DB	0adH
	DB	055H
	DB	0adH
	DB	060H
	DB	0dbH
	DB	060H
	DB	0dbH
	DB	080H
	DB	0dbH
	DB	060H
	DB	0dbH
	DB	060H
	DB	0d3H
	DB	080H
	DB	0dbH
	DB	060H
	DB	0dbH
	DB	060H
	DB	0d3H
	DB	080H
	DB	0dbH
	DB	060H
	DB	0dbH
	DB	060H
	DB	0dbH
	DB	080H
	DB	0d3H
	DB	060H
	DB	0dbH
	DB	060H
	DB	0dbH
	DB	080H
	DB	0dbH
	DB	060H
	DB	0d3H
	DB	060H
	DB	0dbH
	DB	060H
	DB	0dbH
	DB	080H
	DB	0dbH
	DB	060H
	DB	0dbH
	DB	080H
	DB	0d3H
	DB	080H
	DB	0dbH
	DB	060H
	DB	0dbH
	DB	080H
	DB	0d3H
	DB	060H
	DB	0d3H
	DB	060H
	DB	0dbH
	DB	060H
	DB	0dbH
	DB	060H
	DB	0dbH
	DB	060H
	DB	0dbH
	DB	060H
	DB	0d3H
	DB	060H
	DB	0dbH
	DB	080H
	DB	0d3H
	DB	060H
	DB	0dbH
	DB	060H
	DB	0dbH
	DB	060H
	DB	0dbH
	DB	080H
	DB	0dbH
	DB	080H
	DB	0d3H
	DB	060H
	DB	0dbH
	DB	080H
	DB	0dbH
	DB	060H
	DB	0d3H
	DB	060H
	DB	0dbH
	DB	060H
	DB	0dbH
	DB	080H
	DB	0dbH
	DB	060H
	DB	0dbH
	DB	080H
	DB	0dbH
	DB	080H
	DB	0dbH
	DB	060H
	DB	0dbH
	DB	080H
	DB	0d3H
	DB	060H
	DB	0dbH
	DB	060H
	DB	0dbH
	DB	060H
	DB	0dbH
	DB	060H
	DB	0d3H
	DB	060H
	DB	0dbH
	DB	060H
	DB	0dbH
	DB	060H
	DB	0dbH
	DB	080H
	DB	0dbH
	DB	060H
	DB	0dbH
	DB	060H
	DB	0d3H
	DB	060H
	DB	0dbH
	DB	080H
	DB	0dbH
	DB	080H
	DB	0d3H
	DB	060H
	DB	0dbH
	DB	080H
	DB	0dbH
	DB	060H
	DB	0d3H
	DB	060H
	DB	0dbH
	DB	060H
	DB	0dbH
	DB	080H
	DB	0dbH
	DB	060H
	DB	0dbH
	DB	080H
	DB	0dbH
	DB	080H
	DB	0d3H
	DB	060H
	DB	0dbH
	DB	080H
	DB	0dbH
	DB	060H
	DB	0d3H
	DB	060H
	DB	0dbH
	DB	060H
	DB	0dbH
	DB	060H
	DB	0d3H
	DB	060H
	DB	0dbH
	DB	060H
	DB	0dbH
	DB	060H
	DB	0dbH
	DB	080H
	DB	0dbH
	DB	060H
	DB	0dbH
	DB	060H
	DB	0d3H
	DB	060H
	DB	0dbH
	DB	060H
	DB	0dbH
	DB	060H
	DB	0dbH
	DB	060H
	DB	0dbH
	DB	060H
	DB	0d3H
	DB	080H
	DB	0dbH
	DB	060H
	DB	0dbH
	DB	060H
	DB	0dbH
	DB	055H
	DB	0adH
	DB	055H
	DB	0adH
	DB	060H
	DB	0dbH
	DB	060H
	DB	0d3H
	DB	060H
	DB	0dbH
	DB	060H
	DB	0dbH
	DB	060H
	DB	0dbH
	DB	060H
	DB	0dbH
	DB	060H
	DB	0dbH
	DB	060H
	DB	0dbH
	DB	060H
	DB	0dbH
	DB	060H
	DB	0d3H
	DB	060H
	DB	0dbH
	DB	060H
	DB	0dbH
	DB	060H
	DB	0d3H
	DB	080H
	DB	0dbH
	DB	060H
	DB	0dbH
	DB	080H
	DB	0dbH
	DB	060H
	DB	0d3H
	DB	060H
	DB	0dbH
	DB	060H
	DB	0dbH
	DB	060H
	DB	0d3H
	DB	060H
	DB	0dbH
	DB	060H
	DB	0dbH
	DB	060H
	DB	0dbH
	DB	060H
	DB	0dbH
	DB	080H
	DB	0dbH
	DB	060H
	DB	0d3H
	DB	080H
	DB	0d3H
	DB	060H
	DB	0dbH
	DB	080H
	DB	0dbH
	DB	060H
	DB	0dbH
	DB	060H
	DB	0dbH
	DB	080H
	DB	0d3H
	DB	060H
	DB	0dbH
	DB	060H
	DB	0dbH
	DB	060H
	DB	0d3H
	DB	060H
	DB	0dbH
	DB	060H
	DB	0dbH
	DB	060H
	DB	0d3H
	DB	060H
	DB	0dbH
	DB	080H
	DB	0dbH
	DB	060H
	DB	0d3H
	DB	060H
	DB	0dbH
	DB	060H
	DB	0d3H
	DB	060H
	DB	0dbH
	DB	060H
	DB	0dbH
	DB	060H
	DB	0dbH
	DB	060H
	DB	0dbH
	DB	060H
	DB	0dbH
	DB	080H
	DB	0d3H
	DB	060H
	DB	0dbH
	DB	080H
	DB	0dbH
	DB	060H
	DB	0d3H
	DB	080H
	DB	0dbH
	DB	060H
	DB	0dbH
	DB	060H
	DB	0d3H
	DB	080H
	DB	0dbH
	DB	060H
	DB	0dbH
	DB	060H
	DB	0dbH
	DB	060H
	DB	0dbH
	DB	060H
	DB	0dbH
	DB	060H
	DB	0d3H
	DB	060H
	DB	0dbH
	DB	060H
	DB	0dbH
	DB	080H
	DB	0d3H
	DB	060H
	DB	0dbH
	DB	060H
	DB	0dbH
	DB	060H
	DB	0d3H
	DB	060H
	DB	0dbH
	DB	060H
	DB	0dbH
	DB	060H
	DB	0dbH
	DB	060H
	DB	0dbH
	DB	060H
	DB	0dbH
	DB	080H
	DB	0d3H
	DB	060H
	DB	0dbH
	DB	080H
	DB	0dbH
	DB	060H
	DB	0d3H
	DB	080H
	DB	0dbH
	DB	060H
	DB	0dbH
	DB	060H
	DB	0d3H
	DB	080H
	DB	0dbH
	DB	060H
	DB	0dbH
	DB	060H
	DB	0dbH
	DB	080H
	DB	0dbH
	DB	060H
	DB	0d3H
	DB	080H
	DB	0dbH
	DB	060H
	DB	0dbH
	DB	060H
	DB	0dbH
	DB	080H
	DB	0d3H
	DB	060H
	DB	0dbH
	DB	060H
	DB	0d3H
	DB	055H
	DB	0adH
	DB	055H
	DB	0adH
	DB	060H
	DB	0dbH
	DB	060H
	DB	0dbH
	DB	080H
	DB	0d3H
	DB	060H
	DB	0dbH
	DB	080H
	DB	0d3H
	DB	060H
	DB	0dbH
	DB	080H
	DB	0d3H
	DB	080H
	DB	0dbH
	DB	060H
	DB	0dbH
	DB	080H
	DB	0d3H
	DB	080H
	DB	0dbH
	DB	060H
	DB	0dbH
	DB	060H
	DB	0dbH
	DB	060H
	DB	0d3H
	DB	060H
	DB	0dbH
	DB	060H
	DB	0dbH
	DB	080H
	DB	0dbH
	DB	060H
	DB	0d3H
	DB	060H
	DB	0dbH
	DB	080H
	DB	0dbH
	DB	060H
	DB	0dbH
	DB	060H
	DB	0d3H
	DB	060H
	DB	0d3H
	DB	060H
	DB	0dbH
	DB	060H
	DB	0dbH
	DB	060H
	DB	0dbH
	DB	060H
	DB	0dbH
	DB	080H
	DB	0dbH
	DB	060H
	DB	0d3H
	DB	060H
	DB	0dbH
	DB	060H
	DB	0dbH
	DB	060H
	DB	0dbH
	DB	080H
	DB	0dbH
	DB	060H
	DB	0d3H
	DB	080H
	DB	0dbH
	DB	060H
	DB	0dbH
	DB	060H
	DB	0dbH
	DB	060H
	DB	0dbH
	DB	060H
	DB	0dbH
	DB	060H
	DB	0dbH
	DB	080H
	DB	0dbH
	DB	060H
	DB	0dbH
	DB	060H
	DB	0d3H
	DB	080H
	DB	0dbH
	DB	060H
	DB	0d3H
	DB	060H
	DB	0d3H
	DB	060H
	DB	0dbH
	DB	060H
	DB	0dbH
	DB	060H
	DB	0dbH
	DB	060H
	DB	0d3H
	DB	060H
	DB	0dbH
	DB	080H
	DB	0dbH
	DB	060H
	DB	0dbH
	DB	060H
	DB	0dbH
	DB	060H
	DB	0d3H
	DB	060H
	DB	0dbH
	DB	080H
	DB	0dbH
	DB	060H
	DB	0d3H
	DB	080H
	DB	0dbH
	DB	060H
	DB	0dbH
	DB	060H
	DB	0dbH
	DB	060H
	DB	0dbH
	DB	060H
	DB	0dbH
	DB	060H
	DB	0dbH
	DB	080H
	DB	0dbH
	DB	060H
	DB	0dbH
	DB	060H
	DB	0d3H
	DB	080H
	DB	0dbH
	DB	060H
	DB	0dbH
	DB	060H
	DB	0d3H
	DB	060H
	DB	0dbH
	DB	060H
	DB	0dbH
	DB	060H
	DB	0dbH
	DB	060H
	DB	0dbH
	DB	060H
	DB	0dbH
	DB	080H
	DB	0dbH
	DB	060H
	DB	0dbH
	DB	060H
	DB	0dbH
	DB	060H
	DB	0d3H
	DB	060H
	DB	0dbH
	DB	060H
	DB	0dbH
	DB	080H
	DB	0d3H
	DB	060H
	DB	0dbH
	DB	060H
	DB	0dbH
	DB	060H
	DB	0d3H
	DB	080H
	DB	0dbH
	DB	060H
	DB	0dbH
	DB	060H
	DB	0dbH
	DB	060H
	DB	0dbH
	DB	060H
	DB	0dbH
	DB	055H
	DB	0adH
	DB	055H
	DB	0adH
	DB	060H
	DB	0dbH
	DB	060H
	DB	0dbH
	DB	060H
	DB	0dbH
	DB	080H
	DB	0d3H
	DB	060H
	DB	0dbH
	DB	060H
	DB	0dbH
	DB	060H
	DB	0dbH
	DB	060H
	DB	0d3H
	DB	060H
	DB	0dbH
	DB	060H
	DB	0dbH
	DB	060H
	DB	0dbH
	DB	080H
	DB	0dbH
	DB	060H
	DB	0dbH
	DB	060H
	DB	0dbH
	DB	080H
	DB	0d3H
	DB	060H
	DB	0dbH
	DB	060H
	DB	0dbH
	DB	080H
	DB	0dbH
	DB	060H
	DB	0d3H
	DB	060H
	DB	0dbH
	DB	080H
	DB	0dbH
	DB	060H
	DB	0dbH
	DB	080H
	DB	0dbH
	DB	080H
	DB	0dbH
	DB	060H
	DB	0d3H
	DB	060H
	DB	0dbH
	DB	060H
	DB	0dbH
	DB	060H
	DB	0dbH
	DB	060H
	DB	0d3H
	DB	080H
	DB	0dbH
	DB	060H
	DB	0dbH
	DB	060H
	DB	0d3H
	DB	060H
	DB	0dbH
	DB	060H
	DB	0dbH
	DB	060H
	DB	0dbH
	DB	080H
	DB	0d3H
	DB	080H
	DB	0dbH
	DB	060H
	DB	0d3H
	DB	060H
	DB	0dbH
	DB	080H
	DB	0d3H
	DB	060H
	DB	0dbH
	DB	060H
	DB	0dbH
	DB	060H
	DB	0dbH
	DB	080H
	DB	0dbH
	DB	060H
	DB	0dbH
	DB	080H
	DB	0dbH
	DB	080H
	DB	0d3H
	DB	060H
	DB	0dbH
	DB	060H
	DB	0dbH
	DB	080H
	DB	0dbH
	DB	060H
	DB	0dbH
	DB	060H
	DB	0d3H
	DB	060H
	DB	0dbH
	DB	080H
	DB	0dbH
	DB	060H
	DB	0dbH
	DB	060H
	DB	0dbH
	DB	060H
	DB	0d3H
	DB	060H
	DB	0dbH
	DB	060H
	DB	0dbH
	DB	080H
	DB	0d3H
	DB	080H
	DB	0dbH
	DB	060H
	DB	0d3H
	DB	060H
	DB	0dbH
	DB	080H
	DB	0d3H
	DB	060H
	DB	0dbH
	DB	060H
	DB	0dbH
	DB	060H
	DB	0dbH
	DB	080H
	DB	0dbH
	DB	060H
	DB	0d3H
	DB	080H
	DB	0dbH
	DB	080H
	DB	0dbH
	DB	060H
	DB	0d3H
	DB	060H
	DB	0dbH
	DB	080H
	DB	0d3H
	DB	060H
	DB	0dbH
	DB	060H
	DB	0d3H
	DB	060H
	DB	0dbH
	DB	080H
	DB	0dbH
	DB	060H
	DB	0dbH
	DB	060H
	DB	0dbH
	DB	080H
	DB	0d3H
	DB	060H
	DB	0dbH
	DB	060H
	DB	0dbH
	DB	060H
	DB	0dbH
	DB	060H
	DB	0dbH
	DB	060H
	DB	0d3H
	DB	060H
	DB	0dbH
	DB	080H
	DB	0dbH
	DB	060H
	DB	0d3H
	DB	060H
	DB	0dbH
	DB	055H
	DB	0adH
	DB	055H
	DB	0adH
	DB	060H
	DB	0d3H
	DB	060H
	DB	0dbH
	DB	060H
	DB	0dbH
	DB	060H
	DB	0dbH
	DB	060H
	DB	0dbH
	DB	060H
	DB	0dbH
	DB	060H
	DB	0dbH
	DB	080H
	DB	0dbH
	DB	060H
	DB	0d3H
	DB	060H
	DB	0dbH
	DB	060H
	DB	0d3H
	DB	060H
	DB	0dbH
	DB	080H
	DB	0dbH
	DB	060H
	DB	0d3H
	DB	060H
	DB	0dbH
	DB	060H
	DB	0dbH
	DB	060H
	DB	0d3H
	DB	060H
	DB	0dbH
	DB	060H
	DB	0dbH
	DB	060H
	DB	0d3H
	DB	060H
	DB	0dbH
	DB	060H
	DB	0dbH
	DB	060H
	DB	0dbH
	DB	060H
	DB	0dbH
	DB	080H
	DB	0d3H
	DB	060H
	DB	0dbH
	DB	080H
	DB	0dbH
	DB	060H
	DB	0d3H
	DB	060H
	DB	0dbH
	DB	080H
	DB	0dbH
	DB	060H
	DB	0dbH
	DB	060H
	DB	0d3H
	DB	080H
	DB	0dbH
	DB	060H
	DB	0dbH
	DB	060H
	DB	0d3H
	DB	060H
	DB	0dbH
	DB	060H
	DB	0dbH
	DB	060H
	DB	0dbH
	DB	080H
	DB	0d3H
	DB	060H
	DB	0dbH
	DB	060H
	DB	0dbH
	DB	060H
	DB	0d3H
	DB	080H
	DB	0dbH
	DB	060H
	DB	0dbH
	DB	060H
	DB	0dbH
	DB	060H
	DB	0dbH
	DB	060H
	DB	0dbH
	DB	060H
	DB	0d3H
	DB	080H
	DB	0dbH
	DB	060H
	DB	0dbH
	DB	060H
	DB	0d3H
	DB	060H
	DB	0dbH
	DB	080H
	DB	0dbH
	DB	060H
	DB	0d3H
	DB	060H
	DB	0dbH
	DB	080H
	DB	0dbH
	DB	060H
	DB	0dbH
	DB	060H
	DB	0dbH
	DB	060H
	DB	0dbH
	DB	060H
	DB	0d3H
	DB	060H
	DB	0dbH
	DB	060H
	DB	0dbH
	DB	080H
	DB	0dbH
	DB	060H
	DB	0dbH
	DB	060H
	DB	0d3H
	DB	060H
	DB	0dbH
	DB	080H
	DB	0dbH
	DB	060H
	DB	0d3H
	DB	060H
	DB	0dbH
	DB	060H
	DB	0dbH
	DB	060H
	DB	0dbH
	DB	060H
	DB	0dbH
	DB	080H
	DB	0d3H
	DB	060H
	DB	0dbH
	DB	060H
	DB	0dbH
	DB	060H
	DB	0dbH
	DB	080H
	DB	0d3H
	DB	060H
	DB	0dbH
	DB	060H
	DB	0dbH
	DB	080H
	DB	0d3H
	DB	060H
	DB	0dbH
	DB	060H
	DB	0dbH
	DB	080H
	DB	0d3H
	DB	060H
	DB	0dbH
	DB	080H
	DB	0dbH
	DB	060H
	DB	0d3H
	DB	060H
	DB	0dbH
	DB	080H
	DB	0dbH
	DB	060H
	DB	0d3H
	DB	060H
	DB	0dbH
	DB	055H
	DB	0adH
	DB	055H
	DB	0adH
	DB	060H
	DB	0dbH
	DB	060H
	DB	0dbH
	DB	080H
	DB	0d3H
	DB	060H
	DB	0dbH
	DB	080H
	DB	0d3H
	DB	060H
	DB	0d3H
	DB	060H
	DB	0dbH
	DB	080H
	DB	0dbH
	DB	060H
	DB	0dbH
	DB	060H
	DB	0dbH
	DB	080H
	DB	0dbH
	DB	060H
	DB	0d3H
	DB	060H
	DB	0dbH
	DB	060H
	DB	0dbH
	DB	080H
	DB	0dbH
	DB	060H
	DB	0dbH
	DB	080H
	DB	0dbH
	DB	060H
	DB	0dbH
	DB	080H
	DB	0dbH
	DB	060H
	DB	0dbH
	DB	080H
	DB	0d3H
	DB	060H
	DB	0dbH
	DB	060H
	DB	0d3H
	DB	060H
	DB	0dbH
	DB	060H
	DB	0dbH
	DB	060H
	DB	0dbH
	DB	080H
	DB	0dbH
	DB	060H
	DB	0dbH
	DB	060H
	DB	0dbH
	DB	060H
	DB	0d3H
	DB	060H
	DB	0dbH
	DB	080H
	DB	0dbH
	DB	060H
	DB	0dbH
	DB	060H
	DB	0dbH
	DB	080H
	DB	0dbH
	DB	060H
	DB	0dbH
	DB	060H
	DB	0dbH
	DB	060H
	DB	0dbH
	DB	060H
	DB	0dbH
	DB	060H
	DB	0dbH
	DB	080H
	DB	0dbH
	DB	060H
	DB	0d3H
	DB	060H
	DB	0dbH
	DB	060H
	DB	0d3H
	DB	060H
	DB	0d3H
	DB	060H
	DB	0dbH
	DB	060H
	DB	0dbH
	DB	080H
	DB	0dbH
	DB	060H
	DB	0d3H
	DB	060H
	DB	0dbH
	DB	060H
	DB	0dbH
	DB	080H
	DB	0dbH
	DB	060H
	DB	0dbH
	DB	060H
	DB	0d3H
	DB	060H
	DB	0dbH
	DB	080H
	DB	0dbH
	DB	060H
	DB	0d3H
	DB	080H
	DB	0dbH
	DB	060H
	DB	0dbH
	DB	060H
	DB	0dbH
	DB	060H
	DB	0dbH
	DB	080H
	DB	0dbH
	DB	060H
	DB	0d3H
	DB	060H
	DB	0dbH
	DB	060H
	DB	0dbH
	DB	080H
	DB	0d3H
	DB	060H
	DB	0dbH
	DB	060H
	DB	0dbH
	DB	060H
	DB	0dbH
	DB	060H
	DB	0d3H
	DB	060H
	DB	0dbH
	DB	080H
	DB	0dbH
	DB	060H
	DB	0dbH
	DB	060H
	DB	0dbH
	DB	060H
	DB	0dbH
	DB	080H
	DB	0dbH
	DB	060H
	DB	0d3H
	DB	060H
	DB	0dbH
	DB	060H
	DB	0dbH
	DB	060H
	DB	0dbH
	DB	060H
	DB	0dbH
	DB	060H
	DB	0dbH
	DB	060H
	DB	0d3H
	DB	080H
	DB	0dbH
	DB	060H
	DB	0dbH
	DB	060H
	DB	0dbH
	DB	060H
	DB	0dbH
	DB	060H
	DB	0dbH
	DB	060H
	DB	0dbH
	DB	060H
	DB	0dbH
	DB	055H
	DB	0adH
	DB	055H
	DB	0adH
	DB	060H
	DB	0dbH
	DB	060H
	DB	0dbH
	DB	060H
	DB	0dbH
	DB	080H
	DB	0dbH
	DB	060H
	DB	0dbH
	DB	060H
	DB	0dbH
	DB	060H
	DB	0d3H
	DB	060H
	DB	0dbH
	DB	060H
	DB	0dbH
	DB	080H
	DB	0d3H
	DB	060H
	DB	0dbH
	DB	060H
	DB	0dbH
	DB	060H
	DB	0d3H
	DB	080H
	DB	0dbH
	DB	060H
	DB	0d3H
	DB	060H
	DB	0dbH
	DB	060H
	DB	0d3H
	DB	080H
	DB	0dbH
	DB	060H
	DB	0dbH
	DB	060H
	DB	0d3H
	DB	060H
	DB	0dbH
	DB	080H
	DB	0dbH
	DB	060H
	DB	0dbH
	DB	080H
	DB	0d3H
	DB	060H
	DB	0dbH
	DB	060H
	DB	0d3H
	DB	060H
	DB	0dbH
	DB	080H
	DB	0dbH
	DB	060H
	DB	0d3H
	DB	060H
	DB	0dbH
	DB	080H
	DB	0dbH
	DB	060H
	DB	0d3H
	DB	060H
	DB	0dbH
	DB	060H
	DB	0d3H
	DB	080H
	DB	0dbH
	DB	060H
	DB	0d3H
	DB	080H
	DB	0d3H
	DB	080H
	DB	0dbH
	DB	060H
	DB	0dbH
	DB	060H
	DB	0d3H
	DB	060H
	DB	0dbH
	DB	080H
	DB	0dbH
	DB	060H
	DB	0dbH
	DB	060H
	DB	0dbH
	DB	080H
	DB	0dbH
	DB	060H
	DB	0d3H
	DB	060H
	DB	0dbH
	DB	080H
	DB	0dbH
	DB	060H
	DB	0dbH
	DB	060H
	DB	0d3H
	DB	080H
	DB	0dbH
	DB	060H
	DB	0dbH
	DB	060H
	DB	0d3H
	DB	060H
	DB	0dbH
	DB	080H
	DB	0dbH
	DB	060H
	DB	0d3H
	DB	060H
	DB	0dbH
	DB	060H
	DB	0d3H
	DB	080H
	DB	0dbH
	DB	060H
	DB	0d3H
	DB	080H
	DB	0dbH
	DB	060H
	DB	0dbH
	DB	060H
	DB	0d3H
	DB	060H
	DB	0dbH
	DB	080H
	DB	0dbH
	DB	060H
	DB	0dbH
	DB	060H
	DB	0dbH
	DB	060H
	DB	0dbH
	DB	080H
	DB	0d3H
	DB	060H
	DB	0dbH
	DB	060H
	DB	0dbH
	DB	060H
	DB	0d3H
	DB	060H
	DB	0dbH
	DB	080H
	DB	0d3H
	DB	060H
	DB	0dbH
	DB	060H
	DB	0dbH
	DB	060H
	DB	0dbH
	DB	080H
	DB	0d3H
	DB	060H
	DB	0dbH
	DB	060H
	DB	0dbH
	DB	080H
	DB	0d3H
	DB	060H
	DB	0dbH
	DB	060H
	DB	0dbH
	DB	060H
	DB	0dbH
	DB	060H
	DB	0d3H
	DB	080H
	DB	0dbH
	DB	060H
	DB	0d3H
	DB	080H
	DB	0dbH
	DB	060H
	DB	0dbH
	DB	060H
	DB	0d3H
	DB	055H
	DB	0adH
	DB	055H
	DB	0adH
	DB	060H
	DB	0dbH
	DB	060H
	DB	0d3H
	DB	060H
	DB	0dbH
	DB	060H
	DB	0dbH
	DB	060H
	DB	0dbH
	DB	080H
	DB	0dbH
	DB	080H
	DB	0dbH
	DB	060H
	DB	0d3H
	DB	060H
	DB	0dbH
	DB	060H
	DB	0dbH
	DB	060H
	DB	0dbH
	DB	080H
	DB	0dbH
	DB	060H
	DB	0dbH
	DB	060H
	DB	0dbH
	DB	060H
	DB	0dbH
	DB	060H
	DB	0d3H
	DB	060H
	DB	0dbH
	DB	060H
	DB	0dbH
	DB	060H
	DB	0d3H
	DB	060H
	DB	0dbH
	DB	060H
	DB	0dbH
	DB	060H
	DB	0dbH
	DB	060H
	DB	0dbH
	DB	080H
	DB	0dbH
	DB	060H
	DB	0dbH
	DB	060H
	DB	0d3H
	DB	060H
	DB	0dbH
	DB	060H
	DB	0dbH
	DB	080H
	DB	0d3H
	DB	060H
	DB	0dbH
	DB	060H
	DB	0dbH
	DB	060H
	DB	0dbH
	DB	060H
	DB	0dbH
	DB	080H
	DB	0dbH
	DB	060H
	DB	0dbH
	DB	060H
	DB	0dbH
	DB	060H
	DB	0dbH
	DB	060H
	DB	0dbH
	DB	060H
	DB	0d3H
	DB	080H
	DB	0dbH
	DB	060H
	DB	0dbH
	DB	060H
	DB	0dbH
	DB	060H
	DB	0d3H
	DB	080H
	DB	0dbH
	DB	060H
	DB	0dbH
	DB	060H
	DB	0dbH
	DB	060H
	DB	0d3H
	DB	060H
	DB	0dbH
	DB	060H
	DB	0dbH
	DB	060H
	DB	0dbH
	DB	060H
	DB	0d3H
	DB	060H
	DB	0dbH
	DB	060H
	DB	0dbH
	DB	080H
	DB	0dbH
	DB	060H
	DB	0dbH
	DB	060H
	DB	0dbH
	DB	060H
	DB	0dbH
	DB	060H
	DB	0dbH
	DB	060H
	DB	0dbH
	DB	060H
	DB	0d3H
	DB	060H
	DB	0dbH
	DB	060H
	DB	0dbH
	DB	080H
	DB	0dbH
	DB	060H
	DB	0dbH
	DB	060H
	DB	0d3H
	DB	060H
	DB	0dbH
	DB	060H
	DB	0dbH
	DB	080H
	DB	0d3H
	DB	060H
	DB	0dbH
	DB	080H
	DB	0dbH
	DB	060H
	DB	0dbH
	DB	060H
	DB	0dbH
	DB	080H
	DB	0d3H
	DB	060H
	DB	0dbH
	DB	060H
	DB	0dbH
	DB	060H
	DB	0d3H
	DB	080H
	DB	0dbH
	DB	060H
	DB	0dbH
	DB	060H
	DB	0d3H
	DB	080H
	DB	0dbH
	DB	060H
	DB	0dbH
	DB	060H
	DB	0d3H
	DB	080H
	DB	0dbH
	DB	060H
	DB	0dbH
	DB	060H
	DB	0dbH
	DB	060H
	DB	0dbH
	DB	080H
	DB	0d3H
	DB	060H
	DB	0dbH
	DB	060H
	DB	0dbH
	DB	080H
	DB	0dbH
	DB	055H
	DB	0adH
	DB	055H
	DB	0adH
	DB	060H
	DB	0dbH
	DB	060H
	DB	0d3H
	DB	080H
	DB	0dbH
	DB	060H
	DB	0d3H
	DB	060H
	DB	0d3H
	DB	060H
	DB	0dbH
	DB	060H
	DB	0dbH
	DB	080H
	DB	0dbH
	DB	060H
	DB	0d3H
	DB	060H
	DB	0dbH
	DB	080H
	DB	0dbH
	DB	060H
	DB	0d3H
	DB	060H
	DB	0dbH
	DB	080H
	DB	0dbH
	DB	060H
	DB	0dbH
	DB	080H
	DB	0dbH
	DB	060H
	DB	0dbH
	DB	060H
	DB	0dbH
	DB	080H
	DB	0dbH
	DB	080H
	DB	0dbH
	DB	060H
	DB	0d3H
	DB	060H
	DB	0dbH
	DB	080H
	DB	0d3H
	DB	060H
	DB	0dbH
	DB	060H
	DB	0dbH
	DB	080H
	DB	0dbH
	DB	060H
	DB	0dbH
	DB	060H
	DB	0dbH
	DB	060H
	DB	0dbH
	DB	060H
	DB	0dbH
	DB	080H
	DB	0d3H
	DB	060H
	DB	0dbH
	DB	060H
	DB	0dbH
	DB	060H
	DB	0d3H
	DB	060H
	DB	0dbH
	DB	060H
	DB	0dbH
	DB	060H
	DB	0dbH
	DB	060H
	DB	0d3H
	DB	080H
	DB	0dbH
	DB	060H
	DB	0dbH
	DB	060H
	DB	0d3H
	DB	060H
	DB	0dbH
	DB	080H
	DB	0dbH
	DB	060H
	DB	0d3H
	DB	060H
	DB	0dbH
	DB	080H
	DB	0dbH
	DB	080H
	DB	0dbH
	DB	060H
	DB	0d3H
	DB	080H
	DB	0dbH
	DB	060H
	DB	0dbH
	DB	080H
	DB	0dbH
	DB	060H
	DB	0dbH
	DB	060H
	DB	0d3H
	DB	060H
	DB	0dbH
	DB	060H
	DB	0dbH
	DB	080H
	DB	0d3H
	DB	060H
	DB	0dbH
	DB	080H
	DB	0dbH
	DB	060H
	DB	0dbH
	DB	080H
	DB	0dbH
	DB	060H
	DB	0d3H
	DB	060H
	DB	0dbH
	DB	060H
	DB	0dbH
	DB	080H
	DB	0d3H
	DB	060H
	DB	0dbH
	DB	060H
	DB	0dbH
	DB	080H
	DB	0d3H
	DB	060H
	DB	0dbH
	DB	060H
	DB	0dbH
	DB	060H
	DB	0d3H
	DB	080H
	DB	0dbH
	DB	060H
	DB	0dbH
	DB	060H
	DB	0dbH
	DB	060H
	DB	0dbH
	DB	080H
	DB	0dbH
	DB	060H
	DB	0d3H
	DB	060H
	DB	0dbH
	DB	060H
	DB	0dbH
	DB	060H
	DB	0dbH
	DB	060H
	DB	0dbH
	DB	060H
	DB	0dbH
	DB	080H
	DB	0dbH
	DB	060H
	DB	0d3H
	DB	060H
	DB	0dbH
	DB	080H
	DB	0dbH
	DB	060H
	DB	0dbH
	DB	060H
	DB	0dbH
	DB	060H
	DB	0d3H
	DB	060H
	DB	0dbH
	DB	060H
	DB	0dbH
	DB	055H
	DB	0adH
	DB	055H
	DB	0adH
	DB	060H
	DB	0dbH
	DB	060H
	DB	0dbH
	DB	080H
	DB	0dbH
	DB	060H
	DB	0dbH
	DB	060H
	DB	0dbH
	DB	060H
	DB	0d3H
	DB	060H
	DB	0dbH
	DB	060H
	DB	0dbH
	DB	080H
	DB	0dbH
	DB	060H
	DB	0d3H
	DB	060H
	DB	0dbH
	DB	060H
	DB	0dbH
	DB	060H
	DB	0d3H
	DB	060H
	DB	0dbH
	DB	080H
	DB	0d3H
	DB	060H
	DB	0dbH
	DB	060H
	DB	0d3H
	DB	080H
	DB	0dbH
	DB	060H
	DB	0dbH
	DB	060H
	DB	0d3H
	DB	060H
	DB	0dbH
	DB	080H
	DB	0dbH
	DB	060H
	DB	0dbH
	DB	060H
	DB	0d3H
	DB	060H
	DB	0dbH
	DB	080H
	DB	0dbH
	DB	060H
	DB	0d3H
	DB	060H
	DB	0dbH
	DB	080H
	DB	0dbH
	DB	060H
	DB	0d3H
	DB	060H
	DB	0dbH
	DB	080H
	DB	0dbH
	DB	060H
	DB	0d3H
	DB	060H
	DB	0dbH
	DB	080H
	DB	0d3H
	DB	080H
	DB	0dbH
	DB	060H
	DB	0dbH
	DB	060H
	DB	0d3H
	DB	060H
	DB	0dbH
	DB	060H
	DB	0dbH
	DB	080H
	DB	0dbH
	DB	060H
	DB	0dbH
	DB	060H
	DB	0dbH
	DB	060H
	DB	0dbH
	DB	060H
	DB	0d3H
	DB	060H
	DB	0dbH
	DB	060H
	DB	0dbH
	DB	060H
	DB	0dbH
	DB	060H
	DB	0d3H
	DB	080H
	DB	0dbH
	DB	060H
	DB	0dbH
	DB	060H
	DB	0d3H
	DB	080H
	DB	0dbH
	DB	060H
	DB	0dbH
	DB	060H
	DB	0d3H
	DB	060H
	DB	0dbH
	DB	080H
	DB	0d3H
	DB	060H
	DB	0dbH
	DB	060H
	DB	0dbH
	DB	060H
	DB	0dbH
	DB	080H
	DB	0dbH
	DB	060H
	DB	0d3H
	DB	060H
	DB	0dbH
	DB	060H
	DB	0dbH
	DB	080H
	DB	0dbH
	DB	060H
	DB	0dbH
	DB	060H
	DB	0dbH
	DB	060H
	DB	0dbH
	DB	060H
	DB	0dbH
	DB	060H
	DB	0d3H
	DB	060H
	DB	0dbH
	DB	080H
	DB	0dbH
	DB	060H
	DB	0d3H
	DB	060H
	DB	0dbH
	DB	060H
	DB	0dbH
	DB	080H
	DB	0dbH
	DB	060H
	DB	0dbH
	DB	080H
	DB	0d3H
	DB	060H
	DB	0dbH
	DB	060H
	DB	0d3H
	DB	080H
	DB	0dbH
	DB	060H
	DB	0dbH
	DB	060H
	DB	0dbH
	DB	060H
	DB	0d3H
	DB	080H
	DB	0dbH
	DB	060H
	DB	0d3H
	DB	060H
	DB	0dbH
	DB	080H
	DB	0dbH
	DB	060H
	DB	0d3H
	DB	060H
	DB	0dbH
	DB	055H
	DB	0adH
	DB	055H
	DB	0adH
	DB	060H
	DB	0dbH
	DB	060H
	DB	0dbH
	DB	060H
	DB	0d3H
	DB	080H
	DB	0dbH
	DB	060H
	DB	0dbH
	DB	080H
	DB	0dbH
	DB	060H
	DB	0d3H
	DB	060H
	DB	0dbH
	DB	060H
	DB	0dbH
	DB	080H
	DB	0dbH
	DB	060H
	DB	0dbH
	DB	060H
	DB	0dbH
	DB	080H
	DB	0dbH
	DB	060H
	DB	0d3H
	DB	060H
	DB	0dbH
	DB	060H
	DB	0dbH
	DB	060H
	DB	0dbH
	DB	060H
	DB	0d3H
	DB	060H
	DB	0dbH
	DB	060H
	DB	0dbH
	DB	060H
	DB	0dbH
	DB	060H
	DB	0dbH
	DB	060H
	DB	0dbH
	DB	060H
	DB	0d3H
	DB	080H
	DB	0dbH
	DB	060H
	DB	0dbH
	DB	060H
	DB	0d3H
	DB	080H
	DB	0dbH
	DB	060H
	DB	0dbH
	DB	060H
	DB	0d3H
	DB	060H
	DB	0dbH
	DB	080H
	DB	0dbH
	DB	060H
	DB	0dbH
	DB	060H
	DB	0dbH
	DB	060H
	DB	0dbH
	DB	060H
	DB	0d3H
	DB	080H
	DB	0dbH
	DB	060H
	DB	0dbH
	DB	060H
	DB	0dbH
	DB	080H
	DB	0d3H
	DB	060H
	DB	0dbH
	DB	060H
	DB	0d3H
	DB	080H
	DB	0dbH
	DB	060H
	DB	0dbH
	DB	060H
	DB	0dbH
	DB	080H
	DB	0d3H
	DB	060H
	DB	0dbH
	DB	060H
	DB	0dbH
	DB	060H
	DB	0dbH
	DB	060H
	DB	0dbH
	DB	060H
	DB	0d3H
	DB	060H
	DB	0dbH
	DB	080H
	DB	0dbH
	DB	060H
	DB	0dbH
	DB	060H
	DB	0dbH
	DB	060H
	DB	0dbH
	DB	060H
	DB	0dbH
	DB	060H
	DB	0d3H
	DB	060H
	DB	0d3H
	DB	060H
	DB	0dbH
	DB	080H
	DB	0dbH
	DB	060H
	DB	0dbH
	DB	060H
	DB	0d3H
	DB	060H
	DB	0dbH
	DB	060H
	DB	0dbH
	DB	080H
	DB	0d3H
	DB	060H
	DB	0dbH
	DB	080H
	DB	0dbH
	DB	060H
	DB	0d3H
	DB	060H
	DB	0dbH
	DB	080H
	DB	0dbH
	DB	060H
	DB	0dbH
	DB	060H
	DB	0d3H
	DB	080H
	DB	0dbH
	DB	060H
	DB	0dbH
	DB	060H
	DB	0d3H
	DB	060H
	DB	0dbH
	DB	060H
	DB	0dbH
	DB	080H
	DB	0dbH
	DB	060H
	DB	0dbH
	DB	060H
	DB	0d3H
	DB	060H
	DB	0dbH
	DB	060H
	DB	0dbH
	DB	080H
	DB	0dbH
	DB	060H
	DB	0dbH
	DB	060H
	DB	0dbH
	DB	060H
	DB	0dbH
	DB	080H
	DB	0dbH
	DB	060H
	DB	0dbH
	DB	060H
	DB	0d3H
	DB	055H
	DB	0adH
	DB	055H
	DB	0adH
	DB	060H
	DB	0dbH
	DB	060H
	DB	0d3H
	DB	060H
	DB	0dbH
	DB	060H
	DB	0dbH
	DB	080H
	DB	0dbH
	DB	060H
	DB	0dbH
	DB	060H
	DB	0dbH
	DB	080H
	DB	0d3H
	DB	060H
	DB	0dbH
	DB	060H
	DB	0dbH
	DB	060H
	DB	0d3H
	DB	080H
	DB	0dbH
	DB	060H
	DB	0dbH
	DB	060H
	DB	0dbH
	DB	080H
	DB	0dbH
	DB	060H
	DB	0dbH
	DB	080H
	DB	0dbH
	DB	060H
	DB	0dbH
	DB	080H
	DB	0d3H
	DB	080H
	DB	0dbH
	DB	060H
	DB	0d3H
	DB	060H
	DB	0dbH
	DB	080H
	DB	0dbH
	DB	060H
	DB	0dbH
	DB	060H
	DB	0dbH
	DB	060H
	DB	0dbH
	DB	060H
	DB	0dbH
	DB	060H
	DB	0dbH
	DB	060H
	DB	0dbH
	DB	060H
	DB	0dbH
	DB	080H
	DB	0dbH
	DB	060H
	DB	0d3H
	DB	060H
	DB	0dbH
	DB	080H
	DB	0dbH
	DB	060H
	DB	0dbH
	DB	060H
	DB	0dbH
	DB	060H
	DB	0d3H
	DB	080H
	DB	0dbH
	DB	060H
	DB	0dbH
	DB	060H
	DB	0dbH
	DB	060H
	DB	0dbH
	DB	060H
	DB	0d3H
	DB	080H
	DB	0dbH
	DB	060H
	DB	0dbH
	DB	060H
	DB	0dbH
	DB	080H
	DB	0dbH
	DB	060H
	DB	0d3H
	DB	080H
	DB	0dbH
	DB	060H
	DB	0dbH
	DB	060H
	DB	0d3H
	DB	080H
	DB	0dbH
	DB	060H
	DB	0dbH
	DB	060H
	DB	0d3H
	DB	080H
	DB	0dbH
	DB	060H
	DB	0dbH
	DB	080H
	DB	0d3H
	DB	060H
	DB	0dbH
	DB	080H
	DB	0dbH
	DB	060H
	DB	0dbH
	DB	060H
	DB	0dbH
	DB	060H
	DB	0d3H
	DB	080H
	DB	0dbH
	DB	060H
	DB	0dbH
	DB	060H
	DB	0dbH
	DB	080H
	DB	0d3H
	DB	060H
	DB	0dbH
	DB	060H
	DB	0dbH
	DB	060H
	DB	0d3H
	DB	080H
	DB	0dbH
	DB	060H
	DB	0dbH
	DB	060H
	DB	0dbH
	DB	060H
	DB	0d3H
	DB	060H
	DB	0dbH
	DB	060H
	DB	0dbH
	DB	080H
	DB	0d3H
	DB	060H
	DB	0dbH
	DB	060H
	DB	0dbH
	DB	060H
	DB	0d3H
	DB	060H
	DB	0dbH
	DB	080H
	DB	0dbH
	DB	060H
	DB	0dbH
	DB	060H
	DB	0d3H
	DB	080H
	DB	0dbH
	DB	060H
	DB	0dbH
	DB	060H
	DB	0d3H
	DB	060H
	DB	0dbH
	DB	060H
	DB	0d3H
	DB	060H
	DB	0dbH
	DB	060H
	DB	0dbH
	DB	060H
	DB	0dbH
	DB	055H
	DB	0adH
	DB	055H
	DB	0adH
	DB	060H
	DB	0dbH
	DB	060H
	DB	0dbH
	DB	080H
	DB	0dbH
	DB	060H
	DB	0d3H
	DB	060H
	DB	0d3H
	DB	060H
	DB	0dbH
	DB	060H
	DB	0dbH
	DB	080H
	DB	0dbH
	DB	060H
	DB	0d3H
	DB	060H
	DB	0dbH
	DB	080H
	DB	0dbH
	DB	060H
	DB	0d3H
	DB	060H
	DB	0dbH
	DB	060H
	DB	0d3H
	DB	060H
	DB	0dbH
	DB	060H
	DB	0d3H
	DB	060H
	DB	0dbH
	DB	060H
	DB	0dbH
	DB	060H
	DB	0dbH
	DB	060H
	DB	0dbH
	DB	060H
	DB	0d3H
	DB	080H
	DB	0dbH
	DB	060H
	DB	0dbH
	DB	060H
	DB	0d3H
	DB	080H
	DB	0d3H
	DB	060H
	DB	0dbH
	DB	060H
	DB	0d3H
	DB	080H
	DB	0d3H
	DB	060H
	DB	0dbH
	DB	060H
	DB	0dbH
	DB	060H
	DB	0d3H
	DB	060H
	DB	0dbH
	DB	060H
	DB	0dbH
	DB	080H
	DB	0d3H
	DB	060H
	DB	0dbH
	DB	060H
	DB	0dbH
	DB	060H
	DB	0dbH
	DB	060H
	DB	0d3H
	DB	080H
	DB	0dbH
	DB	060H
	DB	0dbH
	DB	060H
	DB	0dbH
	DB	080H
	DB	0dbH
	DB	060H
	DB	0d3H
	DB	060H
	DB	0dbH
	DB	060H
	DB	0dbH
	DB	060H
	DB	0d3H
	DB	060H
	DB	0dbH
	DB	060H
	DB	0dbH
	DB	080H
	DB	0dbH
	DB	060H
	DB	0dbH
	DB	060H
	DB	0dbH
	DB	060H
	DB	0dbH
	DB	060H
	DB	0d3H
	DB	060H
	DB	0dbH
	DB	060H
	DB	0dbH
	DB	060H
	DB	0d3H
	DB	080H
	DB	0dbH
	DB	060H
	DB	0dbH
	DB	060H
	DB	0dbH
	DB	080H
	DB	0dbH
	DB	060H
	DB	0d3H
	DB	060H
	DB	0dbH
	DB	080H
	DB	0dbH
	DB	060H
	DB	0d3H
	DB	060H
	DB	0dbH
	DB	060H
	DB	0dbH
	DB	060H
	DB	0dbH
	DB	060H
	DB	0dbH
	DB	060H
	DB	0dbH
	DB	080H
	DB	0dbH
	DB	060H
	DB	0d3H
	DB	060H
	DB	0dbH
	DB	080H
	DB	0dbH
	DB	060H
	DB	0dbH
	DB	060H
	DB	0dbH
	DB	080H
	DB	0dbH
	DB	060H
	DB	0dbH
	DB	060H
	DB	0d3H
	DB	080H
	DB	0dbH
	DB	060H
	DB	0dbH
	DB	060H
	DB	0d3H
	DB	080H
	DB	0dbH
	DB	060H
	DB	0dbH
	DB	060H
	DB	0d3H
	DB	080H
	DB	0dbH
	DB	060H
	DB	0dbH
	DB	080H
	DB	0d3H
	DB	060H
	DB	0dbH
	DB	060H
	DB	0dbH
	DB	080H
	DB	0d3H
	DB	055H
	DB	0adH
	DB	055H
	DB	0adH
	DB	060H
	DB	0dbH
	DB	060H
	DB	0dbH
	DB	060H
	DB	0dbH
	DB	080H
	DB	0dbH
	DB	060H
	DB	0dbH
	DB	060H
	DB	0d3H
	DB	080H
	DB	0dbH
	DB	060H
	DB	0dbH
	DB	060H
	DB	0dbH
	DB	060H
	DB	0dbH
	DB	060H
	DB	0dbH
	DB	060H
	DB	0dbH
	DB	080H
	DB	0d3H
	DB	060H
	DB	0dbH
	DB	060H
	DB	0dbH
	DB	080H
	DB	0dbH
	DB	060H
	DB	0d3H
	DB	060H
	DB	0dbH
	DB	080H
	DB	0dbH
	DB	060H
	DB	0dbH
	DB	060H
	DB	0dbH
	DB	060H
	DB	0d3H
	DB	060H
	DB	0dbH
	DB	060H
	DB	0dbH
	DB	080H
	DB	0dbH
	DB	060H
	DB	0dbH
	DB	060H
	DB	0dbH
	DB	080H
	DB	0dbH
	DB	060H
	DB	0dbH
	DB	080H
	DB	0d3H
	DB	060H
	DB	0dbH
	DB	060H
	DB	0dbH
	DB	080H
	DB	0dbH
	DB	060H
	DB	0d3H
	DB	060H
	DB	0dbH
	DB	080H
	DB	0dbH
	DB	060H
	DB	0dbH
	DB	060H
	DB	0dbH
	DB	060H
	DB	0d3H
	DB	080H
	DB	0dbH
	DB	060H
	DB	0dbH
	DB	060H
	DB	0d3H
	DB	060H
	DB	0dbH
	DB	080H
	DB	0dbH
	DB	060H
	DB	0d3H
	DB	060H
	DB	0dbH
	DB	080H
	DB	0dbH
	DB	060H
	DB	0d3H
	DB	060H
	DB	0dbH
	DB	080H
	DB	0d3H
	DB	060H
	DB	0dbH
	DB	080H
	DB	0dbH
	DB	060H
	DB	0dbH
	DB	060H
	DB	0dbH
	DB	080H
	DB	0dbH
	DB	060H
	DB	0dbH
	DB	060H
	DB	0dbH
	DB	060H
	DB	0d3H
	DB	060H
	DB	0dbH
	DB	080H
	DB	0dbH
	DB	060H
	DB	0dbH
	DB	060H
	DB	0dbH
	DB	060H
	DB	0dbH
	DB	060H
	DB	0dbH
	DB	080H
	DB	0dbH
	DB	060H
	DB	0d3H
	DB	080H
	DB	0dbH
	DB	060H
	DB	0d3H
	DB	060H
	DB	0dbH
	DB	060H
	DB	0dbH
	DB	080H
	DB	0dbH
	DB	060H
	DB	0dbH
	DB	060H
	DB	0d3H
	DB	060H
	DB	0dbH
	DB	060H
	DB	0dbH
	DB	060H
	DB	0d3H
	DB	080H
	DB	0dbH
	DB	060H
	DB	0dbH
	DB	060H
	DB	0dbH
	DB	060H
	DB	0dbH
	DB	060H
	DB	0dbH
	DB	060H
	DB	0dbH
	DB	060H
	DB	0dbH
	DB	060H
	DB	0dbH
	DB	060H
	DB	0dbH
	DB	080H
	DB	0dbH
	DB	060H
	DB	0dbH
	DB	060H
	DB	0dbH
	DB	060H
	DB	0dbH
	DB	060H
	DB	0dbH
	DB	055H
	DB	0adH
	DB	055H
	DB	0adH
	DB	034H
	DB	0a5H
	DB	034H
	DB	0a5H
	DB	034H
	DB	0a5H
	DB	034H
	DB	0a5H
	DB	034H
	DB	0a5H
	DB	034H
	DB	0a5H
	DB	034H
	DB	0a5H
	DB	034H
	DB	0a5H
	DB	034H
	DB	0a5H
	DB	034H
	DB	0a5H
	DB	035H
	DB	0a5H
	DB	034H
	DB	0a5H
	DB	034H
	DB	0a5H
	DB	035H
	DB	0a5H
	DB	034H
	DB	0a5H
	DB	035H
	DB	0a5H
	DB	035H
	DB	0a5H
	DB	034H
	DB	0a5H
	DB	035H
	DB	0a5H
	DB	035H
	DB	0a5H
	DB	034H
	DB	0a5H
	DB	035H
	DB	0a5H
	DB	035H
	DB	0a5H
	DB	034H
	DB	0a5H
	DB	035H
	DB	0a5H
	DB	035H
	DB	0a5H
	DB	034H
	DB	0a5H
	DB	035H
	DB	0a5H
	DB	035H
	DB	0a5H
	DB	035H
	DB	0a5H
	DB	034H
	DB	0a5H
	DB	035H
	DB	0a5H
	DB	035H
	DB	0a5H
	DB	035H
	DB	0a5H
	DB	034H
	DB	0a5H
	DB	035H
	DB	0a5H
	DB	035H
	DB	0a5H
	DB	035H
	DB	0a5H
	DB	034H
	DB	0a5H
	DB	035H
	DB	0a5H
	DB	035H
	DB	0a5H
	DB	035H
	DB	0a5H
	DB	034H
	DB	0a5H
	DB	035H
	DB	0a5H
	DB	035H
	DB	0a5H
	DB	035H
	DB	0a5H
	DB	034H
	DB	0a5H
	DB	035H
	DB	0a5H
	DB	035H
	DB	0a5H
	DB	035H
	DB	0a5H
	DB	034H
	DB	0a5H
	DB	035H
	DB	0a5H
	DB	035H
	DB	0a5H
	DB	035H
	DB	0a5H
	DB	034H
	DB	0a5H
	DB	035H
	DB	0a5H
	DB	035H
	DB	0a5H
	DB	035H
	DB	0a5H
	DB	034H
	DB	0a5H
	DB	035H
	DB	0a5H
	DB	035H
	DB	0a5H
	DB	035H
	DB	0a5H
	DB	034H
	DB	0a5H
	DB	035H
	DB	0a5H
	DB	035H
	DB	0a5H
	DB	035H
	DB	0a5H
	DB	034H
	DB	0a5H
	DB	035H
	DB	0a5H
	DB	035H
	DB	0a5H
	DB	035H
	DB	0a5H
	DB	034H
	DB	0a5H
	DB	035H
	DB	0a5H
	DB	035H
	DB	0a5H
	DB	035H
	DB	0a5H
	DB	034H
	DB	0a5H
	DB	035H
	DB	0a5H
	DB	035H
	DB	0a5H
	DB	035H
	DB	0a5H
	DB	034H
	DB	0a5H
	DB	035H
	DB	0a5H
	DB	035H
	DB	0a5H
	DB	035H
	DB	0a5H
	DB	034H
	DB	0a5H
	DB	035H
	DB	0a5H
	DB	035H
	DB	0a5H
	DB	034H
	DB	0a5H
	DB	035H
	DB	0a5H
	DB	035H
	DB	0a5H
	DB	034H
	DB	0a5H
	DB	034H
	DB	0a5H
	DB	055H
	DB	0adH
CONST	ENDS
END
