; Listing generated by Microsoft (R) Optimizing Compiler Version 19.28.29914.0 

	TITLE	D:\Oscilloscope\Project\Oscilloscope\Graphic\build\Debug\obj\channelInfo.obj
	.686P
	.XMM
	include listing.inc
	.model	flat

INCLUDELIB MSVCRTD
INCLUDELIB OLDNAMES

PUBLIC	?_channelInfo@@3QBEB				; _channelInfo
CONST	SEGMENT
?_channelInfo@@3QBEB DB 055H				; _channelInfo
	DB	0adH
	DB	034H
	DB	0a5H
	DB	034H
	DB	0a5H
	DB	034H
	DB	0a5H
	DB	034H
	DB	0a5H
	DB	034H
	DB	0a5H
	DB	034H
	DB	0a5H
	DB	034H
	DB	0a5H
	DB	034H
	DB	0a5H
	DB	034H
	DB	0a5H
	DB	034H
	DB	0a5H
	DB	034H
	DB	0a5H
	DB	034H
	DB	0a5H
	DB	034H
	DB	0a5H
	DB	034H
	DB	0a5H
	DB	034H
	DB	0a5H
	DB	034H
	DB	0a5H
	DB	034H
	DB	0a5H
	DB	034H
	DB	0a5H
	DB	034H
	DB	0a5H
	DB	034H
	DB	0a5H
	DB	034H
	DB	0a5H
	DB	034H
	DB	0a5H
	DB	034H
	DB	0a5H
	DB	034H
	DB	0a5H
	DB	034H
	DB	0a5H
	DB	034H
	DB	0a5H
	DB	034H
	DB	0a5H
	DB	034H
	DB	0a5H
	DB	034H
	DB	0a5H
	DB	034H
	DB	0a5H
	DB	034H
	DB	0a5H
	DB	034H
	DB	0a5H
	DB	034H
	DB	0a5H
	DB	034H
	DB	0a5H
	DB	034H
	DB	0a5H
	DB	034H
	DB	0a5H
	DB	034H
	DB	0a5H
	DB	034H
	DB	0a5H
	DB	034H
	DB	0a5H
	DB	034H
	DB	0a5H
	DB	034H
	DB	0a5H
	DB	034H
	DB	0a5H
	DB	034H
	DB	0a5H
	DB	034H
	DB	0a5H
	DB	034H
	DB	0a5H
	DB	034H
	DB	0a5H
	DB	034H
	DB	0a5H
	DB	034H
	DB	0a5H
	DB	034H
	DB	0a5H
	DB	034H
	DB	0a5H
	DB	034H
	DB	0a5H
	DB	034H
	DB	0a5H
	DB	034H
	DB	0a5H
	DB	034H
	DB	0a5H
	DB	034H
	DB	0a5H
	DB	034H
	DB	0a5H
	DB	034H
	DB	0a5H
	DB	034H
	DB	0a5H
	DB	034H
	DB	0a5H
	DB	034H
	DB	0a5H
	DB	034H
	DB	0a5H
	DB	034H
	DB	0a5H
	DB	034H
	DB	0a5H
	DB	034H
	DB	0a5H
	DB	034H
	DB	0a5H
	DB	034H
	DB	0a5H
	DB	034H
	DB	0a5H
	DB	034H
	DB	0a5H
	DB	034H
	DB	0a5H
	DB	034H
	DB	0a5H
	DB	034H
	DB	0a5H
	DB	034H
	DB	0a5H
	DB	034H
	DB	0a5H
	DB	034H
	DB	0a5H
	DB	034H
	DB	0a5H
	DB	034H
	DB	0a5H
	DB	034H
	DB	0a5H
	DB	034H
	DB	0a5H
	DB	034H
	DB	0a5H
	DB	034H
	DB	0a5H
	DB	034H
	DB	0a5H
	DB	034H
	DB	0a5H
	DB	034H
	DB	0a5H
	DB	034H
	DB	0a5H
	DB	034H
	DB	0a5H
	DB	034H
	DB	0a5H
	DB	034H
	DB	0a5H
	DB	034H
	DB	0a5H
	DB	034H
	DB	0a5H
	DB	034H
	DB	0a5H
	DB	055H
	DB	0adH
	DB	055H
	DB	0adH
	DB	0b9H
	DB	01bH
	DB	0b9H
	DB	01bH
	DB	0b9H
	DB	01bH
	DB	0b9H
	DB	01bH
	DB	0b9H
	DB	01bH
	DB	0b9H
	DB	01bH
	DB	0b9H
	DB	01bH
	DB	0b9H
	DB	01bH
	DB	0b9H
	DB	01bH
	DB	0b9H
	DB	01bH
	DB	0b9H
	DB	01bH
	DB	0b9H
	DB	01bH
	DB	0b9H
	DB	01bH
	DB	0b9H
	DB	01bH
	DB	0b9H
	DB	01bH
	DB	0b9H
	DB	01bH
	DB	0b9H
	DB	01bH
	DB	0b9H
	DB	01bH
	DB	0b9H
	DB	01bH
	DB	0b9H
	DB	01bH
	DB	0b9H
	DB	01bH
	DB	0b9H
	DB	01bH
	DB	0b9H
	DB	01bH
	DB	0b9H
	DB	01bH
	DB	0b9H
	DB	01bH
	DB	0b9H
	DB	01bH
	DB	0b9H
	DB	01bH
	DB	0b9H
	DB	01bH
	DB	0b9H
	DB	01bH
	DB	0b9H
	DB	01bH
	DB	0b9H
	DB	01bH
	DB	0b9H
	DB	01bH
	DB	0b9H
	DB	01bH
	DB	0b9H
	DB	01bH
	DB	0b9H
	DB	01bH
	DB	0b9H
	DB	01bH
	DB	0b9H
	DB	01bH
	DB	0b9H
	DB	01bH
	DB	0b9H
	DB	01bH
	DB	0b9H
	DB	01bH
	DB	0b9H
	DB	01bH
	DB	0b9H
	DB	01bH
	DB	0b9H
	DB	01bH
	DB	0b9H
	DB	01bH
	DB	0b9H
	DB	01bH
	DB	0b9H
	DB	01bH
	DB	0b9H
	DB	01bH
	DB	0b9H
	DB	01bH
	DB	0b9H
	DB	01bH
	DB	0b9H
	DB	01bH
	DB	0b9H
	DB	01bH
	DB	0b9H
	DB	01bH
	DB	0b9H
	DB	01bH
	DB	0b9H
	DB	01bH
	DB	0b9H
	DB	01bH
	DB	0b9H
	DB	01bH
	DB	0b9H
	DB	01bH
	DB	0b9H
	DB	01bH
	DB	0b9H
	DB	01bH
	DB	0b9H
	DB	01bH
	DB	0b9H
	DB	01bH
	DB	0b9H
	DB	01bH
	DB	0b9H
	DB	01bH
	DB	0b9H
	DB	01bH
	DB	0b9H
	DB	01bH
	DB	0b9H
	DB	01bH
	DB	0b9H
	DB	01bH
	DB	0b9H
	DB	01bH
	DB	0b9H
	DB	01bH
	DB	0b9H
	DB	01bH
	DB	0b9H
	DB	01bH
	DB	0b9H
	DB	01bH
	DB	0b9H
	DB	01bH
	DB	0b9H
	DB	01bH
	DB	0b9H
	DB	01bH
	DB	0b9H
	DB	01bH
	DB	0b9H
	DB	01bH
	DB	0b9H
	DB	01bH
	DB	0b9H
	DB	01bH
	DB	0b9H
	DB	01bH
	DB	0b9H
	DB	01bH
	DB	0b9H
	DB	01bH
	DB	0b9H
	DB	01bH
	DB	0b9H
	DB	01bH
	DB	0b9H
	DB	01bH
	DB	0b9H
	DB	01bH
	DB	0b9H
	DB	01bH
	DB	0b9H
	DB	01bH
	DB	0b9H
	DB	01bH
	DB	0b9H
	DB	01bH
	DB	055H
	DB	0adH
	DB	055H
	DB	0adH
	DB	0b9H
	DB	01bH
	DB	0b8H
	DB	01bH
	DB	0b9H
	DB	01bH
	DB	0b9H
	DB	01bH
	DB	0b9H
	DB	01bH
	DB	0b9H
	DB	01bH
	DB	0b9H
	DB	01bH
	DB	0b9H
	DB	01bH
	DB	0b9H
	DB	01bH
	DB	0b9H
	DB	01bH
	DB	0b9H
	DB	01bH
	DB	0b9H
	DB	01bH
	DB	0b9H
	DB	01bH
	DB	0b9H
	DB	01bH
	DB	0b9H
	DB	01bH
	DB	0b9H
	DB	01bH
	DB	0b9H
	DB	01bH
	DB	0b9H
	DB	01bH
	DB	0b9H
	DB	01bH
	DB	0b9H
	DB	01bH
	DB	0b9H
	DB	01bH
	DB	0b9H
	DB	01bH
	DB	0b9H
	DB	01bH
	DB	0b9H
	DB	01bH
	DB	0b9H
	DB	01bH
	DB	0b9H
	DB	01bH
	DB	0b9H
	DB	01bH
	DB	0b9H
	DB	01bH
	DB	0b9H
	DB	01bH
	DB	0b9H
	DB	01bH
	DB	0b9H
	DB	01bH
	DB	0b9H
	DB	01bH
	DB	0b9H
	DB	01bH
	DB	0b9H
	DB	01bH
	DB	0b9H
	DB	01bH
	DB	0b9H
	DB	01bH
	DB	0b9H
	DB	01bH
	DB	0b9H
	DB	01bH
	DB	0b9H
	DB	01bH
	DB	0b9H
	DB	01bH
	DB	0b9H
	DB	01bH
	DB	0b9H
	DB	01bH
	DB	0b9H
	DB	01bH
	DB	0b9H
	DB	01bH
	DB	0b9H
	DB	01bH
	DB	0b9H
	DB	01bH
	DB	0b9H
	DB	01bH
	DB	0b9H
	DB	01bH
	DB	0b9H
	DB	01bH
	DB	0b9H
	DB	01bH
	DB	0b9H
	DB	01bH
	DB	0b9H
	DB	01bH
	DB	0b9H
	DB	01bH
	DB	0b9H
	DB	01bH
	DB	0b9H
	DB	01bH
	DB	0b9H
	DB	01bH
	DB	0b9H
	DB	01bH
	DB	0b9H
	DB	01bH
	DB	0b9H
	DB	01bH
	DB	0b9H
	DB	01bH
	DB	0b9H
	DB	01bH
	DB	0b9H
	DB	01bH
	DB	0b9H
	DB	01bH
	DB	0b9H
	DB	01bH
	DB	0b9H
	DB	01bH
	DB	0b9H
	DB	01bH
	DB	0b9H
	DB	01bH
	DB	0b9H
	DB	01bH
	DB	0b9H
	DB	01bH
	DB	0b9H
	DB	01bH
	DB	0b9H
	DB	01bH
	DB	0b9H
	DB	01bH
	DB	0b9H
	DB	01bH
	DB	0b9H
	DB	01bH
	DB	0b9H
	DB	01bH
	DB	0b9H
	DB	01bH
	DB	0b9H
	DB	01bH
	DB	0b9H
	DB	01bH
	DB	0b9H
	DB	01bH
	DB	0b9H
	DB	01bH
	DB	0b9H
	DB	01bH
	DB	0b9H
	DB	01bH
	DB	0b9H
	DB	01bH
	DB	0b9H
	DB	01bH
	DB	0b9H
	DB	01bH
	DB	0b9H
	DB	01bH
	DB	0b9H
	DB	01bH
	DB	0b8H
	DB	01bH
	DB	0b9H
	DB	01bH
	DB	0b9H
	DB	01bH
	DB	055H
	DB	0adH
	DB	055H
	DB	0adH
	DB	0b8H
	DB	01bH
	DB	0b9H
	DB	01bH
	DB	0b8H
	DB	01bH
	DB	0b8H
	DB	01bH
	DB	0b8H
	DB	01bH
	DB	0b8H
	DB	01bH
	DB	0b8H
	DB	01bH
	DB	0b8H
	DB	01bH
	DB	0b8H
	DB	01bH
	DB	0b8H
	DB	01bH
	DB	0b8H
	DB	01bH
	DB	0b8H
	DB	01bH
	DB	0b8H
	DB	01bH
	DB	0b8H
	DB	01bH
	DB	0b8H
	DB	01bH
	DB	0b8H
	DB	01bH
	DB	0b8H
	DB	01bH
	DB	0b8H
	DB	01bH
	DB	0b8H
	DB	01bH
	DB	0b8H
	DB	01bH
	DB	0b8H
	DB	01bH
	DB	0b8H
	DB	01bH
	DB	0b8H
	DB	01bH
	DB	0b8H
	DB	01bH
	DB	0b8H
	DB	01bH
	DB	0b8H
	DB	01bH
	DB	0b8H
	DB	01bH
	DB	0b8H
	DB	01bH
	DB	0b8H
	DB	01bH
	DB	0b8H
	DB	01bH
	DB	0b8H
	DB	01bH
	DB	0b8H
	DB	01bH
	DB	0b8H
	DB	01bH
	DB	0b8H
	DB	01bH
	DB	0b8H
	DB	01bH
	DB	0b8H
	DB	01bH
	DB	0b8H
	DB	01bH
	DB	0b8H
	DB	01bH
	DB	0b8H
	DB	01bH
	DB	0b8H
	DB	01bH
	DB	0b8H
	DB	01bH
	DB	0b8H
	DB	01bH
	DB	0b8H
	DB	01bH
	DB	0b8H
	DB	01bH
	DB	0b8H
	DB	01bH
	DB	0b8H
	DB	01bH
	DB	0b8H
	DB	01bH
	DB	0b8H
	DB	01bH
	DB	0b8H
	DB	01bH
	DB	0b8H
	DB	01bH
	DB	0b8H
	DB	01bH
	DB	0b8H
	DB	01bH
	DB	0b8H
	DB	01bH
	DB	0b8H
	DB	01bH
	DB	0b8H
	DB	01bH
	DB	0b8H
	DB	01bH
	DB	0b8H
	DB	01bH
	DB	0b8H
	DB	01bH
	DB	0b8H
	DB	01bH
	DB	0b8H
	DB	01bH
	DB	0b8H
	DB	01bH
	DB	0b8H
	DB	01bH
	DB	0b8H
	DB	01bH
	DB	0b8H
	DB	01bH
	DB	0b8H
	DB	01bH
	DB	0b8H
	DB	01bH
	DB	0b8H
	DB	01bH
	DB	0b8H
	DB	01bH
	DB	0b8H
	DB	01bH
	DB	0b8H
	DB	01bH
	DB	0b8H
	DB	01bH
	DB	0b8H
	DB	01bH
	DB	0b8H
	DB	01bH
	DB	0b8H
	DB	01bH
	DB	0b8H
	DB	01bH
	DB	0b8H
	DB	01bH
	DB	0b8H
	DB	01bH
	DB	0b8H
	DB	01bH
	DB	0b8H
	DB	01bH
	DB	0b8H
	DB	01bH
	DB	0b8H
	DB	01bH
	DB	0b8H
	DB	01bH
	DB	0b8H
	DB	01bH
	DB	0b8H
	DB	01bH
	DB	0b8H
	DB	01bH
	DB	0b8H
	DB	01bH
	DB	0b9H
	DB	01bH
	DB	0b8H
	DB	01bH
	DB	0b8H
	DB	01bH
	DB	0b9H
	DB	01bH
	DB	055H
	DB	0adH
	DB	055H
	DB	0adH
	DB	0b9H
	DB	01bH
	DB	0b9H
	DB	01bH
	DB	0b9H
	DB	01bH
	DB	0d9H
	DB	01bH
	DB	0b9H
	DB	01bH
	DB	0d9H
	DB	01bH
	DB	0b9H
	DB	01bH
	DB	0d9H
	DB	01bH
	DB	0b9H
	DB	01bH
	DB	0d9H
	DB	01bH
	DB	0b9H
	DB	01bH
	DB	0d9H
	DB	01bH
	DB	0b9H
	DB	01bH
	DB	0d9H
	DB	01bH
	DB	0b9H
	DB	01bH
	DB	0d9H
	DB	01bH
	DB	0b9H
	DB	01bH
	DB	0d9H
	DB	01bH
	DB	0b9H
	DB	01bH
	DB	0d9H
	DB	01bH
	DB	0b9H
	DB	01bH
	DB	0d9H
	DB	01bH
	DB	0b9H
	DB	01bH
	DB	0d9H
	DB	01bH
	DB	0b9H
	DB	01bH
	DB	0d9H
	DB	01bH
	DB	0b9H
	DB	01bH
	DB	0d9H
	DB	01bH
	DB	0b9H
	DB	01bH
	DB	0d9H
	DB	01bH
	DB	0b9H
	DB	01bH
	DB	0d9H
	DB	01bH
	DB	0b9H
	DB	01bH
	DB	0d9H
	DB	01bH
	DB	0b9H
	DB	01bH
	DB	0d9H
	DB	01bH
	DB	0b9H
	DB	01bH
	DB	0d9H
	DB	01bH
	DB	0b9H
	DB	01bH
	DB	0d9H
	DB	01bH
	DB	0b9H
	DB	01bH
	DB	0d9H
	DB	01bH
	DB	0b9H
	DB	01bH
	DB	0d9H
	DB	01bH
	DB	0b9H
	DB	01bH
	DB	0d9H
	DB	01bH
	DB	0b9H
	DB	01bH
	DB	0d9H
	DB	01bH
	DB	0b9H
	DB	01bH
	DB	0d9H
	DB	01bH
	DB	0b9H
	DB	01bH
	DB	0d9H
	DB	01bH
	DB	0b9H
	DB	01bH
	DB	0d9H
	DB	01bH
	DB	0b9H
	DB	01bH
	DB	0d9H
	DB	01bH
	DB	0b9H
	DB	01bH
	DB	0d9H
	DB	01bH
	DB	0b9H
	DB	01bH
	DB	0d9H
	DB	01bH
	DB	0b9H
	DB	01bH
	DB	0d9H
	DB	01bH
	DB	0b9H
	DB	01bH
	DB	0d9H
	DB	01bH
	DB	0b9H
	DB	01bH
	DB	0d9H
	DB	01bH
	DB	0b9H
	DB	01bH
	DB	0d9H
	DB	01bH
	DB	0b9H
	DB	01bH
	DB	0d9H
	DB	01bH
	DB	0b9H
	DB	01bH
	DB	0d9H
	DB	01bH
	DB	0b9H
	DB	01bH
	DB	0d9H
	DB	01bH
	DB	0b9H
	DB	01bH
	DB	0d9H
	DB	01bH
	DB	0b9H
	DB	01bH
	DB	0d9H
	DB	01bH
	DB	0b9H
	DB	01bH
	DB	0d9H
	DB	01bH
	DB	0b9H
	DB	01bH
	DB	0d9H
	DB	01bH
	DB	0b9H
	DB	01bH
	DB	0d9H
	DB	01bH
	DB	0b9H
	DB	01bH
	DB	0d9H
	DB	01bH
	DB	0b9H
	DB	01bH
	DB	0d9H
	DB	01bH
	DB	0b8H
	DB	01bH
	DB	0b9H
	DB	01bH
	DB	055H
	DB	0adH
	DB	055H
	DB	0adH
	DB	0b8H
	DB	01bH
	DB	0b8H
	DB	01bH
	DB	0b9H
	DB	01bH
	DB	0b9H
	DB	01bH
	DB	0d8H
	DB	01bH
	DB	0b9H
	DB	01bH
	DB	0b9H
	DB	01bH
	DB	0b8H
	DB	01bH
	DB	0d9H
	DB	01bH
	DB	0b9H
	DB	01bH
	DB	0b8H
	DB	01bH
	DB	0b9H
	DB	01bH
	DB	0d9H
	DB	01bH
	DB	0b8H
	DB	01bH
	DB	0b9H
	DB	01bH
	DB	0b9H
	DB	01bH
	DB	0d8H
	DB	01bH
	DB	0b9H
	DB	01bH
	DB	0b9H
	DB	01bH
	DB	0b8H
	DB	01bH
	DB	0d9H
	DB	01bH
	DB	0b9H
	DB	01bH
	DB	0b8H
	DB	01bH
	DB	0b9H
	DB	01bH
	DB	0d9H
	DB	01bH
	DB	0b8H
	DB	01bH
	DB	0b9H
	DB	01bH
	DB	0b9H
	DB	01bH
	DB	0d8H
	DB	01bH
	DB	0b9H
	DB	01bH
	DB	0b9H
	DB	01bH
	DB	0b8H
	DB	01bH
	DB	0d9H
	DB	01bH
	DB	0b9H
	DB	01bH
	DB	0b8H
	DB	01bH
	DB	0b9H
	DB	01bH
	DB	0d9H
	DB	01bH
	DB	0b8H
	DB	01bH
	DB	0b9H
	DB	01bH
	DB	0b9H
	DB	01bH
	DB	0d8H
	DB	01bH
	DB	0b9H
	DB	01bH
	DB	0b9H
	DB	01bH
	DB	0b8H
	DB	01bH
	DB	0d9H
	DB	01bH
	DB	0b9H
	DB	01bH
	DB	0b8H
	DB	01bH
	DB	0b9H
	DB	01bH
	DB	0d9H
	DB	01bH
	DB	0b8H
	DB	01bH
	DB	0b9H
	DB	01bH
	DB	0b9H
	DB	01bH
	DB	0d8H
	DB	01bH
	DB	0b9H
	DB	01bH
	DB	0b9H
	DB	01bH
	DB	0b8H
	DB	01bH
	DB	0d9H
	DB	01bH
	DB	0b9H
	DB	01bH
	DB	0b8H
	DB	01bH
	DB	0b9H
	DB	01bH
	DB	0d9H
	DB	01bH
	DB	0b8H
	DB	01bH
	DB	0b9H
	DB	01bH
	DB	0b9H
	DB	01bH
	DB	0d8H
	DB	01bH
	DB	0b9H
	DB	01bH
	DB	0b9H
	DB	01bH
	DB	0b8H
	DB	01bH
	DB	0d9H
	DB	01bH
	DB	0b9H
	DB	01bH
	DB	0b8H
	DB	01bH
	DB	0b9H
	DB	01bH
	DB	0d9H
	DB	01bH
	DB	0b8H
	DB	01bH
	DB	0b9H
	DB	01bH
	DB	0b9H
	DB	01bH
	DB	0d8H
	DB	01bH
	DB	0b9H
	DB	01bH
	DB	0b9H
	DB	01bH
	DB	0b8H
	DB	01bH
	DB	0d9H
	DB	01bH
	DB	0b9H
	DB	01bH
	DB	0b8H
	DB	01bH
	DB	0b9H
	DB	01bH
	DB	0d8H
	DB	01bH
	DB	0b9H
	DB	01bH
	DB	0b8H
	DB	01bH
	DB	0b9H
	DB	01bH
	DB	0d9H
	DB	01bH
	DB	0b8H
	DB	01bH
	DB	055H
	DB	0adH
	DB	055H
	DB	0adH
	DB	0b9H
	DB	01bH
	DB	0b8H
	DB	01bH
	DB	0d9H
	DB	01bH
	DB	0b8H
	DB	01bH
	DB	0b8H
	DB	01bH
	DB	0b9H
	DB	01bH
	DB	0b8H
	DB	01bH
	DB	0b8H
	DB	01bH
	DB	0b9H
	DB	01bH
	DB	0b8H
	DB	01bH
	DB	0b8H
	DB	01bH
	DB	0b9H
	DB	01bH
	DB	0b8H
	DB	01bH
	DB	0b8H
	DB	01bH
	DB	0b9H
	DB	01bH
	DB	0b8H
	DB	01bH
	DB	0b8H
	DB	01bH
	DB	0b9H
	DB	01bH
	DB	0b8H
	DB	01bH
	DB	0b8H
	DB	01bH
	DB	0b9H
	DB	01bH
	DB	0b8H
	DB	01bH
	DB	0b8H
	DB	01bH
	DB	0b9H
	DB	01bH
	DB	0b8H
	DB	01bH
	DB	0b8H
	DB	01bH
	DB	0b9H
	DB	01bH
	DB	0b8H
	DB	01bH
	DB	0b8H
	DB	01bH
	DB	0b9H
	DB	01bH
	DB	0b8H
	DB	01bH
	DB	0b8H
	DB	01bH
	DB	0b9H
	DB	01bH
	DB	0b8H
	DB	01bH
	DB	0b8H
	DB	01bH
	DB	0b9H
	DB	01bH
	DB	0b8H
	DB	01bH
	DB	0b8H
	DB	01bH
	DB	0b9H
	DB	01bH
	DB	0b8H
	DB	01bH
	DB	0b8H
	DB	01bH
	DB	0b9H
	DB	01bH
	DB	0b8H
	DB	01bH
	DB	0b8H
	DB	01bH
	DB	0b9H
	DB	01bH
	DB	0b8H
	DB	01bH
	DB	0b8H
	DB	01bH
	DB	0b9H
	DB	01bH
	DB	0b8H
	DB	01bH
	DB	0b8H
	DB	01bH
	DB	0b9H
	DB	01bH
	DB	0b8H
	DB	01bH
	DB	0b8H
	DB	01bH
	DB	0b9H
	DB	01bH
	DB	0b8H
	DB	01bH
	DB	0b8H
	DB	01bH
	DB	0b9H
	DB	01bH
	DB	0b8H
	DB	01bH
	DB	0b8H
	DB	01bH
	DB	0b9H
	DB	01bH
	DB	0b8H
	DB	01bH
	DB	0b8H
	DB	01bH
	DB	0b9H
	DB	01bH
	DB	0b8H
	DB	01bH
	DB	0b8H
	DB	01bH
	DB	0b9H
	DB	01bH
	DB	0b8H
	DB	01bH
	DB	0b8H
	DB	01bH
	DB	0b9H
	DB	01bH
	DB	0b8H
	DB	01bH
	DB	0b8H
	DB	01bH
	DB	0b9H
	DB	01bH
	DB	0b8H
	DB	01bH
	DB	0b8H
	DB	01bH
	DB	0b9H
	DB	01bH
	DB	0b8H
	DB	01bH
	DB	0b8H
	DB	01bH
	DB	0b9H
	DB	01bH
	DB	0b8H
	DB	01bH
	DB	0b8H
	DB	01bH
	DB	0b9H
	DB	01bH
	DB	0b8H
	DB	01bH
	DB	0b8H
	DB	01bH
	DB	0b9H
	DB	01bH
	DB	0b9H
	DB	01bH
	DB	0b8H
	DB	01bH
	DB	0b9H
	DB	01bH
	DB	0b8H
	DB	01bH
	DB	0b9H
	DB	01bH
	DB	0b9H
	DB	01bH
	DB	055H
	DB	0adH
	DB	055H
	DB	0adH
	DB	0b9H
	DB	01bH
	DB	0b9H
	DB	01bH
	DB	0b9H
	DB	01bH
	DB	0d9H
	DB	01bH
	DB	0b9H
	DB	01bH
	DB	0b9H
	DB	01bH
	DB	0d9H
	DB	01bH
	DB	0d9H
	DB	01bH
	DB	0b9H
	DB	01bH
	DB	0d9H
	DB	01bH
	DB	0b9H
	DB	01bH
	DB	0d9H
	DB	01bH
	DB	0b9H
	DB	01bH
	DB	0d9H
	DB	01bH
	DB	0d9H
	DB	01bH
	DB	0b9H
	DB	01bH
	DB	0b9H
	DB	01bH
	DB	0d9H
	DB	01bH
	DB	0d9H
	DB	01bH
	DB	0b9H
	DB	01bH
	DB	0b9H
	DB	01bH
	DB	0d9H
	DB	01bH
	DB	0d9H
	DB	01bH
	DB	0b9H
	DB	01bH
	DB	0b9H
	DB	01bH
	DB	0d9H
	DB	01bH
	DB	0d9H
	DB	01bH
	DB	0b9H
	DB	01bH
	DB	0b9H
	DB	01bH
	DB	0d9H
	DB	01bH
	DB	0d9H
	DB	01bH
	DB	0b9H
	DB	01bH
	DB	0b9H
	DB	01bH
	DB	0d9H
	DB	01bH
	DB	0d9H
	DB	01bH
	DB	0b9H
	DB	01bH
	DB	0b9H
	DB	01bH
	DB	0d9H
	DB	01bH
	DB	0d9H
	DB	01bH
	DB	0b9H
	DB	01bH
	DB	0b9H
	DB	01bH
	DB	0d9H
	DB	01bH
	DB	0d9H
	DB	01bH
	DB	0b9H
	DB	01bH
	DB	0b9H
	DB	01bH
	DB	0d9H
	DB	01bH
	DB	0d9H
	DB	01bH
	DB	0b9H
	DB	01bH
	DB	0b9H
	DB	01bH
	DB	0d9H
	DB	01bH
	DB	0d9H
	DB	01bH
	DB	0b9H
	DB	01bH
	DB	0b9H
	DB	01bH
	DB	0d9H
	DB	01bH
	DB	0d9H
	DB	01bH
	DB	0b9H
	DB	01bH
	DB	0b9H
	DB	01bH
	DB	0d9H
	DB	01bH
	DB	0d9H
	DB	01bH
	DB	0b9H
	DB	01bH
	DB	0b9H
	DB	01bH
	DB	0d9H
	DB	01bH
	DB	0d9H
	DB	01bH
	DB	0b9H
	DB	01bH
	DB	0b9H
	DB	01bH
	DB	0d9H
	DB	01bH
	DB	0d9H
	DB	01bH
	DB	0b9H
	DB	01bH
	DB	0b9H
	DB	01bH
	DB	0d9H
	DB	01bH
	DB	0d9H
	DB	01bH
	DB	0b9H
	DB	01bH
	DB	0b9H
	DB	01bH
	DB	0d9H
	DB	01bH
	DB	0d9H
	DB	01bH
	DB	0b9H
	DB	01bH
	DB	0b9H
	DB	01bH
	DB	0d9H
	DB	01bH
	DB	0d9H
	DB	01bH
	DB	0b9H
	DB	01bH
	DB	0b9H
	DB	01bH
	DB	0d9H
	DB	01bH
	DB	0d9H
	DB	01bH
	DB	0b8H
	DB	01bH
	DB	0b9H
	DB	01bH
	DB	0d9H
	DB	01bH
	DB	0d8H
	DB	01bH
	DB	0b9H
	DB	01bH
	DB	0b8H
	DB	01bH
	DB	0b9H
	DB	01bH
	DB	055H
	DB	0adH
	DB	055H
	DB	0adH
	DB	0b8H
	DB	01bH
	DB	0b8H
	DB	01bH
	DB	0b9H
	DB	01bH
	DB	0b8H
	DB	01bH
	DB	0d8H
	DB	01bH
	DB	0b9H
	DB	01bH
	DB	0b8H
	DB	01bH
	DB	0b8H
	DB	01bH
	DB	0b9H
	DB	01bH
	DB	0b8H
	DB	01bH
	DB	0b8H
	DB	01bH
	DB	0b9H
	DB	01bH
	DB	0b8H
	DB	01bH
	DB	0b8H
	DB	01bH
	DB	0b9H
	DB	01bH
	DB	0b8H
	DB	01bH
	DB	0b8H
	DB	01bH
	DB	0b9H
	DB	01bH
	DB	0b8H
	DB	01bH
	DB	0d8H
	DB	01bH
	DB	0b9H
	DB	01bH
	DB	0b8H
	DB	01bH
	DB	0b8H
	DB	01bH
	DB	0b9H
	DB	01bH
	DB	0b8H
	DB	01bH
	DB	0b8H
	DB	01bH
	DB	0b9H
	DB	01bH
	DB	0d8H
	DB	01bH
	DB	0b8H
	DB	01bH
	DB	0b9H
	DB	01bH
	DB	0b8H
	DB	01bH
	DB	0b8H
	DB	01bH
	DB	0b9H
	DB	01bH
	DB	0b8H
	DB	01bH
	DB	0b8H
	DB	01bH
	DB	0d9H
	DB	01bH
	DB	0b8H
	DB	01bH
	DB	0b8H
	DB	01bH
	DB	0b9H
	DB	01bH
	DB	0b8H
	DB	01bH
	DB	0b8H
	DB	01bH
	DB	0b9H
	DB	01bH
	DB	0b8H
	DB	01bH
	DB	0d8H
	DB	01bH
	DB	0b9H
	DB	01bH
	DB	0b8H
	DB	01bH
	DB	0b8H
	DB	01bH
	DB	0b9H
	DB	01bH
	DB	0b8H
	DB	01bH
	DB	0b8H
	DB	01bH
	DB	0b9H
	DB	01bH
	DB	0d8H
	DB	01bH
	DB	0b8H
	DB	01bH
	DB	0b9H
	DB	01bH
	DB	0b8H
	DB	01bH
	DB	0b8H
	DB	01bH
	DB	0b9H
	DB	01bH
	DB	0b8H
	DB	01bH
	DB	0b8H
	DB	01bH
	DB	0d9H
	DB	01bH
	DB	0b8H
	DB	01bH
	DB	0b8H
	DB	01bH
	DB	0b9H
	DB	01bH
	DB	0b8H
	DB	01bH
	DB	0b8H
	DB	01bH
	DB	0b9H
	DB	01bH
	DB	0b8H
	DB	01bH
	DB	0d8H
	DB	01bH
	DB	0b9H
	DB	01bH
	DB	0b8H
	DB	01bH
	DB	0b8H
	DB	01bH
	DB	0b9H
	DB	01bH
	DB	0b8H
	DB	01bH
	DB	0b8H
	DB	01bH
	DB	0b9H
	DB	01bH
	DB	0d8H
	DB	01bH
	DB	0b8H
	DB	01bH
	DB	0b9H
	DB	01bH
	DB	0b8H
	DB	01bH
	DB	0b8H
	DB	01bH
	DB	0b9H
	DB	01bH
	DB	0b8H
	DB	01bH
	DB	0b9H
	DB	01bH
	DB	0d9H
	DB	01bH
	DB	0b8H
	DB	01bH
	DB	0b9H
	DB	01bH
	DB	0b9H
	DB	01bH
	DB	0d8H
	DB	01bH
	DB	0b9H
	DB	01bH
	DB	0b8H
	DB	01bH
	DB	055H
	DB	0adH
	DB	055H
	DB	0adH
	DB	0b9H
	DB	01bH
	DB	0b8H
	DB	01bH
	DB	0d9H
	DB	01bH
	DB	0b9H
	DB	01bH
	DB	0b8H
	DB	01bH
	DB	0b9H
	DB	01bH
	DB	0b9H
	DB	01bH
	DB	0b8H
	DB	01bH
	DB	0d9H
	DB	01bH
	DB	0b9H
	DB	01bH
	DB	0b8H
	DB	01bH
	DB	0d9H
	DB	01bH
	DB	0b9H
	DB	01bH
	DB	0b8H
	DB	01bH
	DB	0d9H
	DB	01bH
	DB	0b9H
	DB	01bH
	DB	0d8H
	DB	01bH
	DB	0b9H
	DB	01bH
	DB	0b9H
	DB	01bH
	DB	0b8H
	DB	01bH
	DB	0b9H
	DB	01bH
	DB	0b9H
	DB	01bH
	DB	0d8H
	DB	01bH
	DB	0b9H
	DB	01bH
	DB	0d9H
	DB	01bH
	DB	0b8H
	DB	01bH
	DB	0b9H
	DB	01bH
	DB	0b9H
	DB	01bH
	DB	0b8H
	DB	01bH
	DB	0b9H
	DB	01bH
	DB	0d9H
	DB	01bH
	DB	0b8H
	DB	01bH
	DB	0d9H
	DB	01bH
	DB	0b9H
	DB	01bH
	DB	0b8H
	DB	01bH
	DB	0b9H
	DB	01bH
	DB	0b9H
	DB	01bH
	DB	0b8H
	DB	01bH
	DB	0d9H
	DB	01bH
	DB	0b9H
	DB	01bH
	DB	0d8H
	DB	01bH
	DB	0b9H
	DB	01bH
	DB	0b9H
	DB	01bH
	DB	0b8H
	DB	01bH
	DB	0b9H
	DB	01bH
	DB	0b9H
	DB	01bH
	DB	0d8H
	DB	01bH
	DB	0b9H
	DB	01bH
	DB	0d9H
	DB	01bH
	DB	0b8H
	DB	01bH
	DB	0b9H
	DB	01bH
	DB	0b9H
	DB	01bH
	DB	0b8H
	DB	01bH
	DB	0b9H
	DB	01bH
	DB	0d9H
	DB	01bH
	DB	0b8H
	DB	01bH
	DB	0d9H
	DB	01bH
	DB	0b9H
	DB	01bH
	DB	0b8H
	DB	01bH
	DB	0b9H
	DB	01bH
	DB	0b9H
	DB	01bH
	DB	0b8H
	DB	01bH
	DB	0d9H
	DB	01bH
	DB	0b9H
	DB	01bH
	DB	0d8H
	DB	01bH
	DB	0b9H
	DB	01bH
	DB	0b9H
	DB	01bH
	DB	0b8H
	DB	01bH
	DB	0b9H
	DB	01bH
	DB	0b9H
	DB	01bH
	DB	0d8H
	DB	01bH
	DB	0b9H
	DB	01bH
	DB	0d9H
	DB	01bH
	DB	0b8H
	DB	01bH
	DB	0b9H
	DB	01bH
	DB	0b9H
	DB	01bH
	DB	0b8H
	DB	01bH
	DB	0b9H
	DB	01bH
	DB	0d9H
	DB	01bH
	DB	0b8H
	DB	01bH
	DB	0d9H
	DB	01bH
	DB	0b8H
	DB	01bH
	DB	0b9H
	DB	01bH
	DB	0b9H
	DB	01bH
	DB	0b8H
	DB	01bH
	DB	0b9H
	DB	01bH
	DB	0b9H
	DB	01bH
	DB	0b8H
	DB	01bH
	DB	0d9H
	DB	01bH
	DB	0b9H
	DB	01bH
	DB	055H
	DB	0adH
	DB	055H
	DB	0adH
	DB	0b9H
	DB	01bH
	DB	0b9H
	DB	01bH
	DB	0b8H
	DB	01bH
	DB	0d9H
	DB	01bH
	DB	0b9H
	DB	01bH
	DB	0d8H
	DB	01bH
	DB	0b9H
	DB	01bH
	DB	0b9H
	DB	01bH
	DB	0d8H
	DB	01bH
	DB	0b9H
	DB	01bH
	DB	0b9H
	DB	01bH
	DB	0d8H
	DB	01bH
	DB	0b9H
	DB	01bH
	DB	0b9H
	DB	01bH
	DB	0d8H
	DB	01bH
	DB	0b9H
	DB	01bH
	DB	0b9H
	DB	01bH
	DB	0d8H
	DB	01bH
	DB	0b9H
	DB	01bH
	DB	0b9H
	DB	01bH
	DB	0d8H
	DB	01bH
	DB	0b9H
	DB	01bH
	DB	0b9H
	DB	01bH
	DB	0d8H
	DB	01bH
	DB	0b9H
	DB	01bH
	DB	0b9H
	DB	01bH
	DB	0d8H
	DB	01bH
	DB	0b9H
	DB	01bH
	DB	0b9H
	DB	01bH
	DB	0d8H
	DB	01bH
	DB	0b9H
	DB	01bH
	DB	0b9H
	DB	01bH
	DB	0d8H
	DB	01bH
	DB	0b9H
	DB	01bH
	DB	0b9H
	DB	01bH
	DB	0d8H
	DB	01bH
	DB	0b9H
	DB	01bH
	DB	0b9H
	DB	01bH
	DB	0d8H
	DB	01bH
	DB	0b9H
	DB	01bH
	DB	0b9H
	DB	01bH
	DB	0d8H
	DB	01bH
	DB	0b9H
	DB	01bH
	DB	0b9H
	DB	01bH
	DB	0d8H
	DB	01bH
	DB	0b9H
	DB	01bH
	DB	0b9H
	DB	01bH
	DB	0d8H
	DB	01bH
	DB	0b9H
	DB	01bH
	DB	0b9H
	DB	01bH
	DB	0d8H
	DB	01bH
	DB	0b9H
	DB	01bH
	DB	0b9H
	DB	01bH
	DB	0d8H
	DB	01bH
	DB	0b9H
	DB	01bH
	DB	0b9H
	DB	01bH
	DB	0d8H
	DB	01bH
	DB	0b9H
	DB	01bH
	DB	0b9H
	DB	01bH
	DB	0d8H
	DB	01bH
	DB	0b9H
	DB	01bH
	DB	0b9H
	DB	01bH
	DB	0d8H
	DB	01bH
	DB	0b9H
	DB	01bH
	DB	0b9H
	DB	01bH
	DB	0d8H
	DB	01bH
	DB	0b9H
	DB	01bH
	DB	0b9H
	DB	01bH
	DB	0d8H
	DB	01bH
	DB	0b9H
	DB	01bH
	DB	0b9H
	DB	01bH
	DB	0d8H
	DB	01bH
	DB	0b9H
	DB	01bH
	DB	0b9H
	DB	01bH
	DB	0d8H
	DB	01bH
	DB	0b9H
	DB	01bH
	DB	0b9H
	DB	01bH
	DB	0d8H
	DB	01bH
	DB	0b9H
	DB	01bH
	DB	0b9H
	DB	01bH
	DB	0d9H
	DB	01bH
	DB	0b8H
	DB	01bH
	DB	0b9H
	DB	01bH
	DB	0d8H
	DB	01bH
	DB	0b8H
	DB	01bH
	DB	0d9H
	DB	01bH
	DB	0b9H
	DB	01bH
	DB	0b8H
	DB	01bH
	DB	0b9H
	DB	01bH
	DB	0b9H
	DB	01bH
	DB	055H
	DB	0adH
	DB	055H
	DB	0adH
	DB	0b8H
	DB	01bH
	DB	0b9H
	DB	01bH
	DB	0b8H
	DB	01bH
	DB	0b9H
	DB	01bH
	DB	0b9H
	DB	01bH
	DB	0b8H
	DB	01bH
	DB	0d9H
	DB	01bH
	DB	0b9H
	DB	01bH
	DB	0b8H
	DB	01bH
	DB	0b9H
	DB	01bH
	DB	0b9H
	DB	01bH
	DB	0b8H
	DB	01bH
	DB	0b9H
	DB	01bH
	DB	0b9H
	DB	01bH
	DB	0b8H
	DB	01bH
	DB	0b9H
	DB	01bH
	DB	0b9H
	DB	01bH
	DB	0b8H
	DB	01bH
	DB	0d9H
	DB	01bH
	DB	0b9H
	DB	01bH
	DB	0b8H
	DB	01bH
	DB	0b9H
	DB	01bH
	DB	0b9H
	DB	01bH
	DB	0b8H
	DB	01bH
	DB	0b9H
	DB	01bH
	DB	0b9H
	DB	01bH
	DB	0d8H
	DB	01bH
	DB	0b9H
	DB	01bH
	DB	0b9H
	DB	01bH
	DB	0d8H
	DB	01bH
	DB	0b9H
	DB	01bH
	DB	0b9H
	DB	01bH
	DB	0b8H
	DB	01bH
	DB	0b9H
	DB	01bH
	DB	0d9H
	DB	01bH
	DB	0b8H
	DB	01bH
	DB	0b9H
	DB	01bH
	DB	0b9H
	DB	01bH
	DB	0b8H
	DB	01bH
	DB	0b9H
	DB	01bH
	DB	0b9H
	DB	01bH
	DB	0b8H
	DB	01bH
	DB	0d9H
	DB	01bH
	DB	0b9H
	DB	01bH
	DB	0b8H
	DB	01bH
	DB	0b9H
	DB	01bH
	DB	0b9H
	DB	01bH
	DB	0b8H
	DB	01bH
	DB	0b9H
	DB	01bH
	DB	0b9H
	DB	01bH
	DB	0d8H
	DB	01bH
	DB	0b9H
	DB	01bH
	DB	0b9H
	DB	01bH
	DB	0d8H
	DB	01bH
	DB	0b9H
	DB	01bH
	DB	0b9H
	DB	01bH
	DB	0b8H
	DB	01bH
	DB	0b9H
	DB	01bH
	DB	0d9H
	DB	01bH
	DB	0b8H
	DB	01bH
	DB	0b9H
	DB	01bH
	DB	0b9H
	DB	01bH
	DB	0b8H
	DB	01bH
	DB	0b9H
	DB	01bH
	DB	0b9H
	DB	01bH
	DB	0b8H
	DB	01bH
	DB	0d9H
	DB	01bH
	DB	0b9H
	DB	01bH
	DB	0b8H
	DB	01bH
	DB	0b9H
	DB	01bH
	DB	0b9H
	DB	01bH
	DB	0b8H
	DB	01bH
	DB	0b9H
	DB	01bH
	DB	0b9H
	DB	01bH
	DB	0d8H
	DB	01bH
	DB	0b9H
	DB	01bH
	DB	0b9H
	DB	01bH
	DB	0d8H
	DB	01bH
	DB	0b9H
	DB	01bH
	DB	0b9H
	DB	01bH
	DB	0b8H
	DB	01bH
	DB	0b9H
	DB	01bH
	DB	0d9H
	DB	01bH
	DB	0b9H
	DB	01bH
	DB	0b8H
	DB	01bH
	DB	0d9H
	DB	01bH
	DB	0b9H
	DB	01bH
	DB	0b8H
	DB	01bH
	DB	0d8H
	DB	01bH
	DB	0b9H
	DB	01bH
	DB	055H
	DB	0adH
	DB	055H
	DB	0adH
	DB	0b9H
	DB	01bH
	DB	0b8H
	DB	01bH
	DB	0d9H
	DB	01bH
	DB	0b9H
	DB	01bH
	DB	0b8H
	DB	01bH
	DB	0b9H
	DB	01bH
	DB	0b8H
	DB	01bH
	DB	0d9H
	DB	01bH
	DB	0b9H
	DB	01bH
	DB	0d8H
	DB	01bH
	DB	0b9H
	DB	01bH
	DB	0d8H
	DB	01bH
	DB	0d9H
	DB	01bH
	DB	0b9H
	DB	01bH
	DB	0b8H
	DB	01bH
	DB	0d9H
	DB	01bH
	DB	0b8H
	DB	01bH
	DB	0b9H
	DB	01bH
	DB	0b9H
	DB	01bH
	DB	0d8H
	DB	01bH
	DB	0b9H
	DB	01bH
	DB	0d8H
	DB	01bH
	DB	0b9H
	DB	01bH
	DB	0d9H
	DB	01bH
	DB	0b8H
	DB	01bH
	DB	0b9H
	DB	01bH
	DB	0b8H
	DB	01bH
	DB	0b9H
	DB	01bH
	DB	0b9H
	DB	01bH
	DB	0b8H
	DB	01bH
	DB	0b9H
	DB	01bH
	DB	0d8H
	DB	01bH
	DB	0b9H
	DB	01bH
	DB	0b9H
	DB	01bH
	DB	0b8H
	DB	01bH
	DB	0d9H
	DB	01bH
	DB	0b8H
	DB	01bH
	DB	0d9H
	DB	01bH
	DB	0b9H
	DB	01bH
	DB	0d8H
	DB	01bH
	DB	0b9H
	DB	01bH
	DB	0b8H
	DB	01bH
	DB	0b9H
	DB	01bH
	DB	0d9H
	DB	01bH
	DB	0b8H
	DB	01bH
	DB	0d9H
	DB	01bH
	DB	0b8H
	DB	01bH
	DB	0d9H
	DB	01bH
	DB	0b9H
	DB	01bH
	DB	0b8H
	DB	01bH
	DB	0b9H
	DB	01bH
	DB	0b8H
	DB	01bH
	DB	0b9H
	DB	01bH
	DB	0b9H
	DB	01bH
	DB	0b8H
	DB	01bH
	DB	0d9H
	DB	01bH
	DB	0b8H
	DB	01bH
	DB	0b9H
	DB	01bH
	DB	0b9H
	DB	01bH
	DB	0d8H
	DB	01bH
	DB	0b9H
	DB	01bH
	DB	0d8H
	DB	01bH
	DB	0b9H
	DB	01bH
	DB	0d9H
	DB	01bH
	DB	0b8H
	DB	01bH
	DB	0b9H
	DB	01bH
	DB	0b8H
	DB	01bH
	DB	0d9H
	DB	01bH
	DB	0b9H
	DB	01bH
	DB	0d8H
	DB	01bH
	DB	0b9H
	DB	01bH
	DB	0d8H
	DB	01bH
	DB	0b9H
	DB	01bH
	DB	0b9H
	DB	01bH
	DB	0b8H
	DB	01bH
	DB	0b9H
	DB	01bH
	DB	0b8H
	DB	01bH
	DB	0b9H
	DB	01bH
	DB	0b8H
	DB	01bH
	DB	0d8H
	DB	01bH
	DB	0b9H
	DB	01bH
	DB	0b8H
	DB	01bH
	DB	0b9H
	DB	01bH
	DB	0b9H
	DB	01bH
	DB	0b8H
	DB	01bH
	DB	0b9H
	DB	01bH
	DB	0b9H
	DB	01bH
	DB	0d8H
	DB	01bH
	DB	0b9H
	DB	01bH
	DB	0b8H
	DB	01bH
	DB	055H
	DB	0adH
	DB	055H
	DB	0adH
	DB	0b9H
	DB	01bH
	DB	0b8H
	DB	01bH
	DB	0d9H
	DB	01bH
	DB	0b8H
	DB	01bH
	DB	0d9H
	DB	01bH
	DB	0b9H
	DB	01bH
	DB	0b8H
	DB	01bH
	DB	0b9H
	DB	01bH
	DB	0b8H
	DB	01bH
	DB	0b9H
	DB	01bH
	DB	0b9H
	DB	01bH
	DB	0b8H
	DB	01bH
	DB	0b9H
	DB	01bH
	DB	0b8H
	DB	01bH
	DB	0d9H
	DB	01bH
	DB	0b9H
	DB	01bH
	DB	0b8H
	DB	01bH
	DB	0d9H
	DB	01bH
	DB	0b8H
	DB	01bH
	DB	0b9H
	DB	01bH
	DB	0b9H
	DB	01bH
	DB	0b8H
	DB	01bH
	DB	0d9H
	DB	01bH
	DB	0b8H
	DB	01bH
	DB	0b9H
	DB	01bH
	DB	0d9H
	DB	01bH
	DB	0b8H
	DB	01bH
	DB	0d9H
	DB	01bH
	DB	0b8H
	DB	01bH
	DB	0b9H
	DB	01bH
	DB	0d9H
	DB	01bH
	DB	0b8H
	DB	01bH
	DB	0b9H
	DB	01bH
	DB	0b8H
	DB	01bH
	DB	0d9H
	DB	01bH
	DB	0b9H
	DB	01bH
	DB	0b8H
	DB	01bH
	DB	0b9H
	DB	01bH
	DB	0b8H
	DB	01bH
	DB	0d9H
	DB	01bH
	DB	0b9H
	DB	01bH
	DB	0b8H
	DB	01bH
	DB	0b9H
	DB	01bH
	DB	0b8H
	DB	01bH
	DB	0b9H
	DB	01bH
	DB	0b9H
	DB	01bH
	DB	0d8H
	DB	01bH
	DB	0b9H
	DB	01bH
	DB	0b8H
	DB	01bH
	DB	0d9H
	DB	01bH
	DB	0b9H
	DB	01bH
	DB	0d8H
	DB	01bH
	DB	0b9H
	DB	01bH
	DB	0b8H
	DB	01bH
	DB	0d9H
	DB	01bH
	DB	0b9H
	DB	01bH
	DB	0b8H
	DB	01bH
	DB	0b9H
	DB	01bH
	DB	0d8H
	DB	01bH
	DB	0b9H
	DB	01bH
	DB	0b9H
	DB	01bH
	DB	0b8H
	DB	01bH
	DB	0b9H
	DB	01bH
	DB	0d8H
	DB	01bH
	DB	0b9H
	DB	01bH
	DB	0b9H
	DB	01bH
	DB	0b8H
	DB	01bH
	DB	0b9H
	DB	01bH
	DB	0b8H
	DB	01bH
	DB	0b9H
	DB	01bH
	DB	0d9H
	DB	01bH
	DB	0b8H
	DB	01bH
	DB	0b9H
	DB	01bH
	DB	0d8H
	DB	01bH
	DB	0b9H
	DB	01bH
	DB	0d9H
	DB	01bH
	DB	0b8H
	DB	01bH
	DB	0b9H
	DB	01bH
	DB	0d9H
	DB	01bH
	DB	0b9H
	DB	01bH
	DB	0b9H
	DB	01bH
	DB	0d8H
	DB	01bH
	DB	0b9H
	DB	01bH
	DB	0d8H
	DB	01bH
	DB	0b9H
	DB	01bH
	DB	0b9H
	DB	01bH
	DB	0d8H
	DB	01bH
	DB	0b9H
	DB	01bH
	DB	0b9H
	DB	01bH
	DB	0b9H
	DB	01bH
	DB	055H
	DB	0adH
	DB	055H
	DB	0adH
	DB	0b8H
	DB	01bH
	DB	0b9H
	DB	01bH
	DB	0b9H
	DB	01bH
	DB	0b8H
	DB	01bH
	DB	0b9H
	DB	01bH
	DB	0d9H
	DB	01bH
	DB	0b8H
	DB	01bH
	DB	0b9H
	DB	01bH
	DB	0d9H
	DB	01bH
	DB	0b8H
	DB	01bH
	DB	0b9H
	DB	01bH
	DB	0d9H
	DB	01bH
	DB	0b8H
	DB	01bH
	DB	0b9H
	DB	01bH
	DB	0b9H
	DB	01bH
	DB	0b8H
	DB	01bH
	DB	0b9H
	DB	01bH
	DB	0d9H
	DB	01bH
	DB	0b8H
	DB	01bH
	DB	0b9H
	DB	01bH
	DB	0b9H
	DB	01bH
	DB	0b8H
	DB	01bH
	DB	0b9H
	DB	01bH
	DB	0b9H
	DB	01bH
	DB	0b8H
	DB	01bH
	DB	0b9H
	DB	01bH
	DB	0d9H
	DB	01bH
	DB	0b8H
	DB	01bH
	DB	0b9H
	DB	01bH
	DB	0d9H
	DB	01bH
	DB	0b8H
	DB	01bH
	DB	0b9H
	DB	01bH
	DB	0b9H
	DB	01bH
	DB	0d8H
	DB	01bH
	DB	0b9H
	DB	01bH
	DB	0b9H
	DB	01bH
	DB	0b8H
	DB	01bH
	DB	0b9H
	DB	01bH
	DB	0b9H
	DB	01bH
	DB	0b8H
	DB	01bH
	DB	0d9H
	DB	01bH
	DB	0b9H
	DB	01bH
	DB	0d8H
	DB	01bH
	DB	0b9H
	DB	01bH
	DB	0b9H
	DB	01bH
	DB	0b8H
	DB	01bH
	DB	0b9H
	DB	01bH
	DB	0b9H
	DB	01bH
	DB	0b8H
	DB	01bH
	DB	0b9H
	DB	01bH
	DB	0d9H
	DB	01bH
	DB	0b8H
	DB	01bH
	DB	0b9H
	DB	01bH
	DB	0d9H
	DB	01bH
	DB	0b8H
	DB	01bH
	DB	0b9H
	DB	01bH
	DB	0b9H
	DB	01bH
	DB	0d8H
	DB	01bH
	DB	0b9H
	DB	01bH
	DB	0b9H
	DB	01bH
	DB	0b8H
	DB	01bH
	DB	0b9H
	DB	01bH
	DB	0b9H
	DB	01bH
	DB	0b8H
	DB	01bH
	DB	0d9H
	DB	01bH
	DB	0b9H
	DB	01bH
	DB	0d8H
	DB	01bH
	DB	0b9H
	DB	01bH
	DB	0b9H
	DB	01bH
	DB	0b8H
	DB	01bH
	DB	0b9H
	DB	01bH
	DB	0b9H
	DB	01bH
	DB	0b8H
	DB	01bH
	DB	0b9H
	DB	01bH
	DB	0d9H
	DB	01bH
	DB	0b8H
	DB	01bH
	DB	0b9H
	DB	01bH
	DB	0d9H
	DB	01bH
	DB	0b8H
	DB	01bH
	DB	0b9H
	DB	01bH
	DB	0b9H
	DB	01bH
	DB	0b8H
	DB	01bH
	DB	0d9H
	DB	01bH
	DB	0b9H
	DB	01bH
	DB	0b8H
	DB	01bH
	DB	0d9H
	DB	01bH
	DB	0b8H
	DB	01bH
	DB	0b9H
	DB	01bH
	DB	0b8H
	DB	01bH
	DB	0b8H
	DB	01bH
	DB	055H
	DB	0adH
	DB	055H
	DB	0adH
	DB	0b9H
	DB	01bH
	DB	0b8H
	DB	01bH
	DB	0d9H
	DB	01bH
	DB	0b9H
	DB	01bH
	DB	0b8H
	DB	01bH
	DB	0d9H
	DB	01bH
	DB	0b8H
	DB	01bH
	DB	0b9H
	DB	01bH
	DB	0d9H
	DB	01bH
	DB	0b8H
	DB	01bH
	DB	0b9H
	DB	01bH
	DB	0d9H
	DB	01bH
	DB	0b8H
	DB	01bH
	DB	0b9H
	DB	01bH
	DB	0d8H
	DB	01bH
	DB	0b9H
	DB	01bH
	DB	0b9H
	DB	01bH
	DB	0b8H
	DB	01bH
	DB	0d9H
	DB	01bH
	DB	0b8H
	DB	01bH
	DB	0d9H
	DB	01bH
	DB	0d9H
	DB	01bH
	DB	0b8H
	DB	01bH
	DB	0d9H
	DB	01bH
	DB	0b8H
	DB	01bH
	DB	0b9H
	DB	01bH
	DB	0b9H
	DB	01bH
	DB	0b8H
	DB	01bH
	DB	0b9H
	DB	01bH
	DB	0b8H
	DB	01bH
	DB	0b9H
	DB	01bH
	DB	0d9H
	DB	01bH
	DB	0b8H
	DB	01bH
	DB	0b9H
	DB	01bH
	DB	0b8H
	DB	01bH
	DB	0d9H
	DB	01bH
	DB	0d9H
	DB	01bH
	DB	0b8H
	DB	01bH
	DB	0d9H
	DB	01bH
	DB	0b8H
	DB	01bH
	DB	0b9H
	DB	01bH
	DB	0b9H
	DB	01bH
	DB	0d8H
	DB	01bH
	DB	0b9H
	DB	01bH
	DB	0d8H
	DB	01bH
	DB	0d9H
	DB	01bH
	DB	0b9H
	DB	01bH
	DB	0d8H
	DB	01bH
	DB	0b9H
	DB	01bH
	DB	0b8H
	DB	01bH
	DB	0b9H
	DB	01bH
	DB	0b9H
	DB	01bH
	DB	0b8H
	DB	01bH
	DB	0b9H
	DB	01bH
	DB	0b8H
	DB	01bH
	DB	0d9H
	DB	01bH
	DB	0b9H
	DB	01bH
	DB	0b8H
	DB	01bH
	DB	0b9H
	DB	01bH
	DB	0d8H
	DB	01bH
	DB	0d9H
	DB	01bH
	DB	0b9H
	DB	01bH
	DB	0d8H
	DB	01bH
	DB	0b9H
	DB	01bH
	DB	0b8H
	DB	01bH
	DB	0b9H
	DB	01bH
	DB	0d9H
	DB	01bH
	DB	0b8H
	DB	01bH
	DB	0d9H
	DB	01bH
	DB	0d8H
	DB	01bH
	DB	0b9H
	DB	01bH
	DB	0d9H
	DB	01bH
	DB	0b8H
	DB	01bH
	DB	0b9H
	DB	01bH
	DB	0b8H
	DB	01bH
	DB	0b9H
	DB	01bH
	DB	0b9H
	DB	01bH
	DB	0b8H
	DB	01bH
	DB	0b8H
	DB	01bH
	DB	0d9H
	DB	01bH
	DB	0b8H
	DB	01bH
	DB	0b9H
	DB	01bH
	DB	0b9H
	DB	01bH
	DB	0b8H
	DB	01bH
	DB	0b9H
	DB	01bH
	DB	0b9H
	DB	01bH
	DB	0b9H
	DB	01bH
	DB	0d8H
	DB	01bH
	DB	0b9H
	DB	01bH
	DB	0b9H
	DB	01bH
	DB	055H
	DB	0adH
	DB	055H
	DB	0adH
	DB	0b9H
	DB	01bH
	DB	0b8H
	DB	01bH
	DB	0b9H
	DB	01bH
	DB	0b9H
	DB	01bH
	DB	0b8H
	DB	01bH
	DB	0b9H
	DB	01bH
	DB	0b9H
	DB	01bH
	DB	0b8H
	DB	01bH
	DB	0b9H
	DB	01bH
	DB	0b8H
	DB	01bH
	DB	0b9H
	DB	01bH
	DB	0b8H
	DB	01bH
	DB	0b9H
	DB	01bH
	DB	0d9H
	DB	01bH
	DB	0b8H
	DB	01bH
	DB	0d9H
	DB	01bH
	DB	0b8H
	DB	01bH
	DB	0b9H
	DB	01bH
	DB	0b9H
	DB	01bH
	DB	0b8H
	DB	01bH
	DB	0b9H
	DB	01bH
	DB	0b9H
	DB	01bH
	DB	0b8H
	DB	01bH
	DB	0b9H
	DB	01bH
	DB	0d9H
	DB	01bH
	DB	0b8H
	DB	01bH
	DB	0d9H
	DB	01bH
	DB	0b9H
	DB	01bH
	DB	0d8H
	DB	01bH
	DB	0b9H
	DB	01bH
	DB	0b9H
	DB	01bH
	DB	0d8H
	DB	01bH
	DB	0b9H
	DB	01bH
	DB	0b9H
	DB	01bH
	DB	0b8H
	DB	01bH
	DB	0b9H
	DB	01bH
	DB	0b9H
	DB	01bH
	DB	0b8H
	DB	01bH
	DB	0b9H
	DB	01bH
	DB	0d9H
	DB	01bH
	DB	0b8H
	DB	01bH
	DB	0b9H
	DB	01bH
	DB	0b9H
	DB	01bH
	DB	0b8H
	DB	01bH
	DB	0b9H
	DB	01bH
	DB	0b9H
	DB	01bH
	DB	0b8H
	DB	01bH
	DB	0b9H
	DB	01bH
	DB	0d9H
	DB	01bH
	DB	0b8H
	DB	01bH
	DB	0d9H
	DB	01bH
	DB	0b9H
	DB	01bH
	DB	0d8H
	DB	01bH
	DB	0b9H
	DB	01bH
	DB	0b9H
	DB	01bH
	DB	0d8H
	DB	01bH
	DB	0b9H
	DB	01bH
	DB	0b9H
	DB	01bH
	DB	0b8H
	DB	01bH
	DB	0b9H
	DB	01bH
	DB	0b9H
	DB	01bH
	DB	0b8H
	DB	01bH
	DB	0b9H
	DB	01bH
	DB	0d9H
	DB	01bH
	DB	0b8H
	DB	01bH
	DB	0b9H
	DB	01bH
	DB	0b9H
	DB	01bH
	DB	0b8H
	DB	01bH
	DB	0b9H
	DB	01bH
	DB	0b9H
	DB	01bH
	DB	0b8H
	DB	01bH
	DB	0b9H
	DB	01bH
	DB	0d9H
	DB	01bH
	DB	0b8H
	DB	01bH
	DB	0d9H
	DB	01bH
	DB	0b9H
	DB	01bH
	DB	0d8H
	DB	01bH
	DB	0b9H
	DB	01bH
	DB	0b9H
	DB	01bH
	DB	0d9H
	DB	01bH
	DB	0b8H
	DB	01bH
	DB	0b9H
	DB	01bH
	DB	0d8H
	DB	01bH
	DB	0b9H
	DB	01bH
	DB	0d8H
	DB	01bH
	DB	0b9H
	DB	01bH
	DB	0b8H
	DB	01bH
	DB	0d9H
	DB	01bH
	DB	0b9H
	DB	01bH
	DB	0b8H
	DB	01bH
	DB	055H
	DB	0adH
	DB	055H
	DB	0adH
	DB	0b8H
	DB	01bH
	DB	0b9H
	DB	01bH
	DB	0d8H
	DB	01bH
	DB	0b9H
	DB	01bH
	DB	0d8H
	DB	01bH
	DB	0b9H
	DB	01bH
	DB	0d9H
	DB	01bH
	DB	0d8H
	DB	01bH
	DB	0b9H
	DB	01bH
	DB	0d9H
	DB	01bH
	DB	0d8H
	DB	01bH
	DB	0b9H
	DB	01bH
	DB	0b9H
	DB	01bH
	DB	0b8H
	DB	01bH
	DB	0b9H
	DB	01bH
	DB	0b9H
	DB	01bH
	DB	0d8H
	DB	01bH
	DB	0b9H
	DB	01bH
	DB	0b9H
	DB	01bH
	DB	0d8H
	DB	01bH
	DB	0b9H
	DB	01bH
	DB	0b8H
	DB	01bH
	DB	0b9H
	DB	01bH
	DB	0b9H
	DB	01bH
	DB	0b8H
	DB	01bH
	DB	0b8H
	DB	01bH
	DB	0b9H
	DB	01bH
	DB	0d9H
	DB	01bH
	DB	0b8H
	DB	01bH
	DB	0b9H
	DB	01bH
	DB	0b8H
	DB	01bH
	DB	0b8H
	DB	01bH
	DB	0d9H
	DB	01bH
	DB	0b9H
	DB	01bH
	DB	0d8H
	DB	01bH
	DB	0b9H
	DB	01bH
	DB	0b8H
	DB	01bH
	DB	0b9H
	DB	01bH
	DB	0b9H
	DB	01bH
	DB	0b8H
	DB	01bH
	DB	0d8H
	DB	01bH
	DB	0b9H
	DB	01bH
	DB	0b9H
	DB	01bH
	DB	0d8H
	DB	01bH
	DB	0b9H
	DB	01bH
	DB	0b8H
	DB	01bH
	DB	0b8H
	DB	01bH
	DB	0b9H
	DB	01bH
	DB	0b9H
	DB	01bH
	DB	0b8H
	DB	01bH
	DB	0b9H
	DB	01bH
	DB	0d8H
	DB	01bH
	DB	0b9H
	DB	01bH
	DB	0b9H
	DB	01bH
	DB	0b8H
	DB	01bH
	DB	0b8H
	DB	01bH
	DB	0d9H
	DB	01bH
	DB	0b9H
	DB	01bH
	DB	0d8H
	DB	01bH
	DB	0b9H
	DB	01bH
	DB	0b8H
	DB	01bH
	DB	0b8H
	DB	01bH
	DB	0b9H
	DB	01bH
	DB	0b9H
	DB	01bH
	DB	0d8H
	DB	01bH
	DB	0b9H
	DB	01bH
	DB	0b8H
	DB	01bH
	DB	0d9H
	DB	01bH
	DB	0b9H
	DB	01bH
	DB	0b8H
	DB	01bH
	DB	0b8H
	DB	01bH
	DB	0b9H
	DB	01bH
	DB	0b9H
	DB	01bH
	DB	0b8H
	DB	01bH
	DB	0b9H
	DB	01bH
	DB	0d8H
	DB	01bH
	DB	0b9H
	DB	01bH
	DB	0b9H
	DB	01bH
	DB	0b8H
	DB	01bH
	DB	0b9H
	DB	01bH
	DB	0b9H
	DB	01bH
	DB	0d8H
	DB	01bH
	DB	0b9H
	DB	01bH
	DB	0b9H
	DB	01bH
	DB	0b8H
	DB	01bH
	DB	0d9H
	DB	01bH
	DB	0b9H
	DB	01bH
	DB	0b8H
	DB	01bH
	DB	0b9H
	DB	01bH
	DB	0b9H
	DB	01bH
	DB	055H
	DB	0adH
	DB	055H
	DB	0adH
	DB	0b9H
	DB	01bH
	DB	0b8H
	DB	01bH
	DB	0b9H
	DB	01bH
	DB	0d9H
	DB	01bH
	DB	0b8H
	DB	01bH
	DB	0b9H
	DB	01bH
	DB	0b8H
	DB	01bH
	DB	0b9H
	DB	01bH
	DB	0b9H
	DB	01bH
	DB	0b8H
	DB	01bH
	DB	0b9H
	DB	01bH
	DB	0d9H
	DB	01bH
	DB	0b8H
	DB	01bH
	DB	0b9H
	DB	01bH
	DB	0d9H
	DB	01bH
	DB	0b8H
	DB	01bH
	DB	0b9H
	DB	01bH
	DB	0d8H
	DB	01bH
	DB	0b9H
	DB	01bH
	DB	0b9H
	DB	01bH
	DB	0d8H
	DB	01bH
	DB	0b9H
	DB	01bH
	DB	0d8H
	DB	01bH
	DB	0d9H
	DB	01bH
	DB	0b9H
	DB	01bH
	DB	0b8H
	DB	01bH
	DB	0b9H
	DB	01bH
	DB	0b9H
	DB	01bH
	DB	0b8H
	DB	01bH
	DB	0d9H
	DB	01bH
	DB	0b9H
	DB	01bH
	DB	0b9H
	DB	01bH
	DB	0b8H
	DB	01bH
	DB	0b9H
	DB	01bH
	DB	0b9H
	DB	01bH
	DB	0d8H
	DB	01bH
	DB	0d9H
	DB	01bH
	DB	0b8H
	DB	01bH
	DB	0b9H
	DB	01bH
	DB	0d9H
	DB	01bH
	DB	0b8H
	DB	01bH
	DB	0b9H
	DB	01bH
	DB	0b9H
	DB	01bH
	DB	0d8H
	DB	01bH
	DB	0b9H
	DB	01bH
	DB	0d9H
	DB	01bH
	DB	0d9H
	DB	01bH
	DB	0b8H
	DB	01bH
	DB	0b9H
	DB	01bH
	DB	0d9H
	DB	01bH
	DB	0b8H
	DB	01bH
	DB	0b9H
	DB	01bH
	DB	0b8H
	DB	01bH
	DB	0d9H
	DB	01bH
	DB	0b9H
	DB	01bH
	DB	0b8H
	DB	01bH
	DB	0b9H
	DB	01bH
	DB	0b9H
	DB	01bH
	DB	0b8H
	DB	01bH
	DB	0d9H
	DB	01bH
	DB	0d9H
	DB	01bH
	DB	0b9H
	DB	01bH
	DB	0b8H
	DB	01bH
	DB	0d9H
	DB	01bH
	DB	0b9H
	DB	01bH
	DB	0b8H
	DB	01bH
	DB	0b9H
	DB	01bH
	DB	0d8H
	DB	01bH
	DB	0b9H
	DB	01bH
	DB	0d9H
	DB	01bH
	DB	0d8H
	DB	01bH
	DB	0b9H
	DB	01bH
	DB	0b9H
	DB	01bH
	DB	0d8H
	DB	01bH
	DB	0b9H
	DB	01bH
	DB	0b9H
	DB	01bH
	DB	0b8H
	DB	01bH
	DB	0d9H
	DB	01bH
	DB	0b8H
	DB	01bH
	DB	0b9H
	DB	01bH
	DB	0d9H
	DB	01bH
	DB	0b8H
	DB	01bH
	DB	0b9H
	DB	01bH
	DB	0b9H
	DB	01bH
	DB	0b8H
	DB	01bH
	DB	0b9H
	DB	01bH
	DB	0b9H
	DB	01bH
	DB	0d8H
	DB	01bH
	DB	0b8H
	DB	01bH
	DB	0b9H
	DB	01bH
	DB	055H
	DB	0adH
	DB	055H
	DB	0adH
	DB	0b9H
	DB	01bH
	DB	0b8H
	DB	01bH
	DB	0b9H
	DB	01bH
	DB	0b9H
	DB	01bH
	DB	0b8H
	DB	01bH
	DB	0b9H
	DB	01bH
	DB	0b9H
	DB	01bH
	DB	0d8H
	DB	01bH
	DB	0b9H
	DB	01bH
	DB	0b8H
	DB	01bH
	DB	0b9H
	DB	01bH
	DB	0b8H
	DB	01bH
	DB	0d8H
	DB	01bH
	DB	0b9H
	DB	01bH
	DB	0b8H
	DB	01bH
	DB	0b9H
	DB	01bH
	DB	0b9H
	DB	01bH
	DB	0b8H
	DB	01bH
	DB	0b9H
	DB	01bH
	DB	0b9H
	DB	01bH
	DB	0b8H
	DB	01bH
	DB	0b9H
	DB	01bH
	DB	0b9H
	DB	01bH
	DB	0b8H
	DB	01bH
	DB	0d9H
	DB	01bH
	DB	0b9H
	DB	01bH
	DB	0d8H
	DB	01bH
	DB	0b9H
	DB	01bH
	DB	0b9H
	DB	01bH
	DB	0d8H
	DB	01bH
	DB	0b9H
	DB	01bH
	DB	0b9H
	DB	01bH
	DB	0d8H
	DB	01bH
	DB	0b9H
	DB	01bH
	DB	0b9H
	DB	01bH
	DB	0b8H
	DB	01bH
	DB	0b9H
	DB	01bH
	DB	0b9H
	DB	01bH
	DB	0d8H
	DB	01bH
	DB	0b9H
	DB	01bH
	DB	0b9H
	DB	01bH
	DB	0b8H
	DB	01bH
	DB	0d9H
	DB	01bH
	DB	0b9H
	DB	01bH
	DB	0b8H
	DB	01bH
	DB	0b9H
	DB	01bH
	DB	0b9H
	DB	01bH
	DB	0b8H
	DB	01bH
	DB	0d9H
	DB	01bH
	DB	0b9H
	DB	01bH
	DB	0b8H
	DB	01bH
	DB	0b9H
	DB	01bH
	DB	0d9H
	DB	01bH
	DB	0b8H
	DB	01bH
	DB	0b9H
	DB	01bH
	DB	0d9H
	DB	01bH
	DB	0b8H
	DB	01bH
	DB	0b9H
	DB	01bH
	DB	0b9H
	DB	01bH
	DB	0b8H
	DB	01bH
	DB	0b9H
	DB	01bH
	DB	0b9H
	DB	01bH
	DB	0d8H
	DB	01bH
	DB	0b9H
	DB	01bH
	DB	0b9H
	DB	01bH
	DB	0b8H
	DB	01bH
	DB	0d9H
	DB	01bH
	DB	0b9H
	DB	01bH
	DB	0b8H
	DB	01bH
	DB	0b9H
	DB	01bH
	DB	0b9H
	DB	01bH
	DB	0b8H
	DB	01bH
	DB	0d9H
	DB	01bH
	DB	0b9H
	DB	01bH
	DB	0b8H
	DB	01bH
	DB	0b9H
	DB	01bH
	DB	0d9H
	DB	01bH
	DB	0b8H
	DB	01bH
	DB	0b9H
	DB	01bH
	DB	0d8H
	DB	01bH
	DB	0b9H
	DB	01bH
	DB	0b8H
	DB	01bH
	DB	0d9H
	DB	01bH
	DB	0b9H
	DB	01bH
	DB	0d8H
	DB	01bH
	DB	0b9H
	DB	01bH
	DB	0b9H
	DB	01bH
	DB	0d8H
	DB	01bH
	DB	0b9H
	DB	01bH
	DB	0b9H
	DB	01bH
	DB	055H
	DB	0adH
	DB	055H
	DB	0adH
	DB	0b8H
	DB	01bH
	DB	0b9H
	DB	01bH
	DB	0d9H
	DB	01bH
	DB	0b8H
	DB	01bH
	DB	0d9H
	DB	01bH
	DB	0b9H
	DB	01bH
	DB	0b8H
	DB	01bH
	DB	0d9H
	DB	01bH
	DB	0b9H
	DB	01bH
	DB	0b9H
	DB	01bH
	DB	0d8H
	DB	01bH
	DB	0b9H
	DB	01bH
	DB	0b9H
	DB	01bH
	DB	0b9H
	DB	01bH
	DB	0d8H
	DB	01bH
	DB	0b9H
	DB	01bH
	DB	0d9H
	DB	01bH
	DB	0b8H
	DB	01bH
	DB	0d9H
	DB	01bH
	DB	0b8H
	DB	01bH
	DB	0d9H
	DB	01bH
	DB	0b9H
	DB	01bH
	DB	0b8H
	DB	01bH
	DB	0b9H
	DB	01bH
	DB	0b9H
	DB	01bH
	DB	0b8H
	DB	01bH
	DB	0d9H
	DB	01bH
	DB	0b8H
	DB	01bH
	DB	0b9H
	DB	01bH
	DB	0b8H
	DB	01bH
	DB	0b9H
	DB	01bH
	DB	0d8H
	DB	01bH
	DB	0b9H
	DB	01bH
	DB	0b8H
	DB	01bH
	DB	0d9H
	DB	01bH
	DB	0b9H
	DB	01bH
	DB	0b8H
	DB	01bH
	DB	0b9H
	DB	01bH
	DB	0b8H
	DB	01bH
	DB	0b9H
	DB	01bH
	DB	0d9H
	DB	01bH
	DB	0b8H
	DB	01bH
	DB	0b9H
	DB	01bH
	DB	0b8H
	DB	01bH
	DB	0b9H
	DB	01bH
	DB	0b8H
	DB	01bH
	DB	0b9H
	DB	01bH
	DB	0d8H
	DB	01bH
	DB	0b9H
	DB	01bH
	DB	0b8H
	DB	01bH
	DB	0b9H
	DB	01bH
	DB	0d9H
	DB	01bH
	DB	0b8H
	DB	01bH
	DB	0b9H
	DB	01bH
	DB	0b9H
	DB	01bH
	DB	0d8H
	DB	01bH
	DB	0b9H
	DB	01bH
	DB	0d8H
	DB	01bH
	DB	0b9H
	DB	01bH
	DB	0b8H
	DB	01bH
	DB	0b9H
	DB	01bH
	DB	0d8H
	DB	01bH
	DB	0b9H
	DB	01bH
	DB	0b8H
	DB	01bH
	DB	0b9H
	DB	01bH
	DB	0d9H
	DB	01bH
	DB	0b8H
	DB	01bH
	DB	0b9H
	DB	01bH
	DB	0b8H
	DB	01bH
	DB	0b9H
	DB	01bH
	DB	0b9H
	DB	01bH
	DB	0d8H
	DB	01bH
	DB	0b9H
	DB	01bH
	DB	0b8H
	DB	01bH
	DB	0b9H
	DB	01bH
	DB	0d8H
	DB	01bH
	DB	0b9H
	DB	01bH
	DB	0b9H
	DB	01bH
	DB	0b8H
	DB	01bH
	DB	0b9H
	DB	01bH
	DB	0b9H
	DB	01bH
	DB	0b8H
	DB	01bH
	DB	0b9H
	DB	01bH
	DB	0d8H
	DB	01bH
	DB	0b9H
	DB	01bH
	DB	0b8H
	DB	01bH
	DB	0b9H
	DB	01bH
	DB	0b9H
	DB	01bH
	DB	0b8H
	DB	01bH
	DB	0b8H
	DB	01bH
	DB	055H
	DB	0adH
	DB	055H
	DB	0adH
	DB	0b9H
	DB	01bH
	DB	0b8H
	DB	01bH
	DB	0b9H
	DB	01bH
	DB	0d8H
	DB	01bH
	DB	0b9H
	DB	01bH
	DB	0b8H
	DB	01bH
	DB	0b9H
	DB	01bH
	DB	0b8H
	DB	01bH
	DB	0b9H
	DB	01bH
	DB	0d8H
	DB	01bH
	DB	0b9H
	DB	01bH
	DB	0b9H
	DB	01bH
	DB	0b9H
	DB	01bH
	DB	0d8H
	DB	01bH
	DB	0b9H
	DB	01bH
	DB	0b9H
	DB	01bH
	DB	0b8H
	DB	01bH
	DB	0d9H
	DB	01bH
	DB	0b9H
	DB	01bH
	DB	0b8H
	DB	01bH
	DB	0b9H
	DB	01bH
	DB	0d8H
	DB	01bH
	DB	0b9H
	DB	01bH
	DB	0d9H
	DB	01bH
	DB	0b8H
	DB	01bH
	DB	0b9H
	DB	01bH
	DB	0b9H
	DB	01bH
	DB	0d8H
	DB	01bH
	DB	0b9H
	DB	01bH
	DB	0b9H
	DB	01bH
	DB	0d8H
	DB	01bH
	DB	0b9H
	DB	01bH
	DB	0b9H
	DB	01bH
	DB	0b8H
	DB	01bH
	DB	0d9H
	DB	01bH
	DB	0b9H
	DB	01bH
	DB	0d8H
	DB	01bH
	DB	0d9H
	DB	01bH
	DB	0b9H
	DB	01bH
	DB	0b8H
	DB	01bH
	DB	0b9H
	DB	01bH
	DB	0d9H
	DB	01bH
	DB	0b8H
	DB	01bH
	DB	0b9H
	DB	01bH
	DB	0d9H
	DB	01bH
	DB	0b9H
	DB	01bH
	DB	0b8H
	DB	01bH
	DB	0d9H
	DB	01bH
	DB	0b9H
	DB	01bH
	DB	0b8H
	DB	01bH
	DB	0d9H
	DB	01bH
	DB	0b8H
	DB	01bH
	DB	0b9H
	DB	01bH
	DB	0b9H
	DB	01bH
	DB	0d8H
	DB	01bH
	DB	0b9H
	DB	01bH
	DB	0b9H
	DB	01bH
	DB	0b8H
	DB	01bH
	DB	0d9H
	DB	01bH
	DB	0b9H
	DB	01bH
	DB	0d8H
	DB	01bH
	DB	0b9H
	DB	01bH
	DB	0b9H
	DB	01bH
	DB	0b8H
	DB	01bH
	DB	0d9H
	DB	01bH
	DB	0b9H
	DB	01bH
	DB	0b8H
	DB	01bH
	DB	0b9H
	DB	01bH
	DB	0d9H
	DB	01bH
	DB	0b8H
	DB	01bH
	DB	0b9H
	DB	01bH
	DB	0b9H
	DB	01bH
	DB	0b8H
	DB	01bH
	DB	0d9H
	DB	01bH
	DB	0b9H
	DB	01bH
	DB	0b8H
	DB	01bH
	DB	0b9H
	DB	01bH
	DB	0d9H
	DB	01bH
	DB	0b8H
	DB	01bH
	DB	0b9H
	DB	01bH
	DB	0d9H
	DB	01bH
	DB	0b8H
	DB	01bH
	DB	0b9H
	DB	01bH
	DB	0b9H
	DB	01bH
	DB	0b8H
	DB	01bH
	DB	0d9H
	DB	01bH
	DB	0b8H
	DB	01bH
	DB	0d9H
	DB	01bH
	DB	0b9H
	DB	01bH
	DB	0b8H
	DB	01bH
	DB	055H
	DB	0adH
	DB	055H
	DB	0adH
	DB	0b9H
	DB	01bH
	DB	0b8H
	DB	01bH
	DB	0b9H
	DB	01bH
	DB	0b9H
	DB	01bH
	DB	0b8H
	DB	01bH
	DB	0d9H
	DB	01bH
	DB	0d9H
	DB	01bH
	DB	0b8H
	DB	01bH
	DB	0b9H
	DB	01bH
	DB	0b9H
	DB	01bH
	DB	0b8H
	DB	01bH
	DB	0d8H
	DB	01bH
	DB	0b9H
	DB	01bH
	DB	0b8H
	DB	01bH
	DB	0b9H
	DB	01bH
	DB	0b8H
	DB	01bH
	DB	0b9H
	DB	01bH
	DB	0b9H
	DB	01bH
	DB	0b8H
	DB	01bH
	DB	0b9H
	DB	01bH
	DB	0b9H
	DB	01bH
	DB	0b8H
	DB	01bH
	DB	0b9H
	DB	01bH
	DB	0d8H
	DB	01bH
	DB	0b8H
	DB	01bH
	DB	0b9H
	DB	01bH
	DB	0b9H
	DB	01bH
	DB	0b8H
	DB	01bH
	DB	0d9H
	DB	01bH
	DB	0b9H
	DB	01bH
	DB	0b8H
	DB	01bH
	DB	0b9H
	DB	01bH
	DB	0b9H
	DB	01bH
	DB	0d8H
	DB	01bH
	DB	0b9H
	DB	01bH
	DB	0b8H
	DB	01bH
	DB	0b9H
	DB	01bH
	DB	0b9H
	DB	01bH
	DB	0b8H
	DB	01bH
	DB	0d9H
	DB	01bH
	DB	0b8H
	DB	01bH
	DB	0b9H
	DB	01bH
	DB	0b9H
	DB	01bH
	DB	0d8H
	DB	01bH
	DB	0b9H
	DB	01bH
	DB	0b8H
	DB	01bH
	DB	0b9H
	DB	01bH
	DB	0b9H
	DB	01bH
	DB	0b8H
	DB	01bH
	DB	0b9H
	DB	01bH
	DB	0b9H
	DB	01bH
	DB	0b8H
	DB	01bH
	DB	0b9H
	DB	01bH
	DB	0d8H
	DB	01bH
	DB	0b8H
	DB	01bH
	DB	0b9H
	DB	01bH
	DB	0b9H
	DB	01bH
	DB	0b8H
	DB	01bH
	DB	0b9H
	DB	01bH
	DB	0b9H
	DB	01bH
	DB	0b8H
	DB	01bH
	DB	0b9H
	DB	01bH
	DB	0d9H
	DB	01bH
	DB	0b8H
	DB	01bH
	DB	0b9H
	DB	01bH
	DB	0b8H
	DB	01bH
	DB	0b9H
	DB	01bH
	DB	0d9H
	DB	01bH
	DB	0b8H
	DB	01bH
	DB	0d9H
	DB	01bH
	DB	0b8H
	DB	01bH
	DB	0b9H
	DB	01bH
	DB	0d9H
	DB	01bH
	DB	0b8H
	DB	01bH
	DB	0b9H
	DB	01bH
	DB	0b9H
	DB	01bH
	DB	0d8H
	DB	01bH
	DB	0b9H
	DB	01bH
	DB	0b8H
	DB	01bH
	DB	0d9H
	DB	01bH
	DB	0b9H
	DB	01bH
	DB	0b8H
	DB	01bH
	DB	0d9H
	DB	01bH
	DB	0b9H
	DB	01bH
	DB	0b8H
	DB	01bH
	DB	0b9H
	DB	01bH
	DB	0d9H
	DB	01bH
	DB	0b8H
	DB	01bH
	DB	0b9H
	DB	01bH
	DB	0d9H
	DB	01bH
	DB	055H
	DB	0adH
	DB	055H
	DB	0adH
	DB	0b8H
	DB	01bH
	DB	0b9H
	DB	01bH
	DB	0d9H
	DB	01bH
	DB	0b8H
	DB	01bH
	DB	0b9H
	DB	01bH
	DB	0b9H
	DB	01bH
	DB	0b8H
	DB	01bH
	DB	0d9H
	DB	01bH
	DB	0b9H
	DB	01bH
	DB	0b8H
	DB	01bH
	DB	0d9H
	DB	01bH
	DB	0b9H
	DB	01bH
	DB	0b8H
	DB	01bH
	DB	0d9H
	DB	01bH
	DB	0b9H
	DB	01bH
	DB	0d8H
	DB	01bH
	DB	0b9H
	DB	01bH
	DB	0b8H
	DB	01bH
	DB	0d9H
	DB	01bH
	DB	0d9H
	DB	01bH
	DB	0b8H
	DB	01bH
	DB	0b9H
	DB	01bH
	DB	0d9H
	DB	01bH
	DB	0b9H
	DB	01bH
	DB	0b9H
	DB	01bH
	DB	0d8H
	DB	01bH
	DB	0b9H
	DB	01bH
	DB	0b9H
	DB	01bH
	DB	0b8H
	DB	01bH
	DB	0b9H
	DB	01bH
	DB	0d9H
	DB	01bH
	DB	0b8H
	DB	01bH
	DB	0b9H
	DB	01bH
	DB	0b9H
	DB	01bH
	DB	0b8H
	DB	01bH
	DB	0b9H
	DB	01bH
	DB	0b9H
	DB	01bH
	DB	0b8H
	DB	01bH
	DB	0d9H
	DB	01bH
	DB	0b9H
	DB	01bH
	DB	0b8H
	DB	01bH
	DB	0b9H
	DB	01bH
	DB	0d8H
	DB	01bH
	DB	0b9H
	DB	01bH
	DB	0b8H
	DB	01bH
	DB	0d9H
	DB	01bH
	DB	0d9H
	DB	01bH
	DB	0b8H
	DB	01bH
	DB	0d9H
	DB	01bH
	DB	0b9H
	DB	01bH
	DB	0d8H
	DB	01bH
	DB	0b9H
	DB	01bH
	DB	0b9H
	DB	01bH
	DB	0b9H
	DB	01bH
	DB	0b9H
	DB	01bH
	DB	0d8H
	DB	01bH
	DB	0b9H
	DB	01bH
	DB	0d9H
	DB	01bH
	DB	0b8H
	DB	01bH
	DB	0d9H
	DB	01bH
	DB	0b9H
	DB	01bH
	DB	0b8H
	DB	01bH
	DB	0b9H
	DB	01bH
	DB	0d9H
	DB	01bH
	DB	0b8H
	DB	01bH
	DB	0b9H
	DB	01bH
	DB	0d9H
	DB	01bH
	DB	0b8H
	DB	01bH
	DB	0b9H
	DB	01bH
	DB	0b9H
	DB	01bH
	DB	0d8H
	DB	01bH
	DB	0b9H
	DB	01bH
	DB	0b8H
	DB	01bH
	DB	0b9H
	DB	01bH
	DB	0d8H
	DB	01bH
	DB	0b9H
	DB	01bH
	DB	0b9H
	DB	01bH
	DB	0b8H
	DB	01bH
	DB	0b9H
	DB	01bH
	DB	0b8H
	DB	01bH
	DB	0b9H
	DB	01bH
	DB	0d8H
	DB	01bH
	DB	0b9H
	DB	01bH
	DB	0b9H
	DB	01bH
	DB	0d8H
	DB	01bH
	DB	0b9H
	DB	01bH
	DB	0b9H
	DB	01bH
	DB	0b8H
	DB	01bH
	DB	0b9H
	DB	01bH
	DB	0b9H
	DB	01bH
	DB	055H
	DB	0adH
	DB	055H
	DB	0adH
	DB	0b9H
	DB	01bH
	DB	0b8H
	DB	01bH
	DB	0d9H
	DB	01bH
	DB	0b9H
	DB	01bH
	DB	0b8H
	DB	01bH
	DB	0b9H
	DB	01bH
	DB	0b8H
	DB	01bH
	DB	0b9H
	DB	01bH
	DB	0d9H
	DB	01bH
	DB	0b8H
	DB	01bH
	DB	0b9H
	DB	01bH
	DB	0b9H
	DB	01bH
	DB	0b8H
	DB	01bH
	DB	0b9H
	DB	01bH
	DB	0d9H
	DB	01bH
	DB	0b8H
	DB	01bH
	DB	0b9H
	DB	01bH
	DB	0d9H
	DB	01bH
	DB	0b8H
	DB	01bH
	DB	0b9H
	DB	01bH
	DB	0b8H
	DB	01bH
	DB	0d9H
	DB	01bH
	DB	0b8H
	DB	01bH
	DB	0b9H
	DB	01bH
	DB	0b9H
	DB	01bH
	DB	0d8H
	DB	01bH
	DB	0b9H
	DB	01bH
	DB	0b8H
	DB	01bH
	DB	0d9H
	DB	01bH
	DB	0b8H
	DB	01bH
	DB	0b9H
	DB	01bH
	DB	0d8H
	DB	01bH
	DB	0b9H
	DB	01bH
	DB	0b9H
	DB	01bH
	DB	0d8H
	DB	01bH
	DB	0d9H
	DB	01bH
	DB	0b8H
	DB	01bH
	DB	0b8H
	DB	01bH
	DB	0b9H
	DB	01bH
	DB	0b9H
	DB	01bH
	DB	0d8H
	DB	01bH
	DB	0b9H
	DB	01bH
	DB	0b9H
	DB	01bH
	DB	0b8H
	DB	01bH
	DB	0b9H
	DB	01bH
	DB	0b9H
	DB	01bH
	DB	0b8H
	DB	01bH
	DB	0b8H
	DB	01bH
	DB	0b9H
	DB	01bH
	DB	0d9H
	DB	01bH
	DB	0b8H
	DB	01bH
	DB	0b9H
	DB	01bH
	DB	0d8H
	DB	01bH
	DB	0b9H
	DB	01bH
	DB	0b9H
	DB	01bH
	DB	0b8H
	DB	01bH
	DB	0d9H
	DB	01bH
	DB	0b8H
	DB	01bH
	DB	0b9H
	DB	01bH
	DB	0b8H
	DB	01bH
	DB	0d9H
	DB	01bH
	DB	0b8H
	DB	01bH
	DB	0b9H
	DB	01bH
	DB	0b9H
	DB	01bH
	DB	0d8H
	DB	01bH
	DB	0b9H
	DB	01bH
	DB	0b8H
	DB	01bH
	DB	0b8H
	DB	01bH
	DB	0b9H
	DB	01bH
	DB	0b9H
	DB	01bH
	DB	0b8H
	DB	01bH
	DB	0d9H
	DB	01bH
	DB	0b9H
	DB	01bH
	DB	0b8H
	DB	01bH
	DB	0b9H
	DB	01bH
	DB	0d8H
	DB	01bH
	DB	0b9H
	DB	01bH
	DB	0d9H
	DB	01bH
	DB	0b8H
	DB	01bH
	DB	0b9H
	DB	01bH
	DB	0d9H
	DB	01bH
	DB	0b8H
	DB	01bH
	DB	0b9H
	DB	01bH
	DB	0b8H
	DB	01bH
	DB	0d9H
	DB	01bH
	DB	0b9H
	DB	01bH
	DB	0b8H
	DB	01bH
	DB	0d9H
	DB	01bH
	DB	0b8H
	DB	01bH
	DB	0b8H
	DB	01bH
	DB	055H
	DB	0adH
	DB	055H
	DB	0adH
	DB	0b9H
	DB	01bH
	DB	0b8H
	DB	01bH
	DB	0b9H
	DB	01bH
	DB	0d9H
	DB	01bH
	DB	0b8H
	DB	01bH
	DB	0d9H
	DB	01bH
	DB	0b9H
	DB	01bH
	DB	0b8H
	DB	01bH
	DB	0b9H
	DB	01bH
	DB	0d8H
	DB	01bH
	DB	0b9H
	DB	01bH
	DB	0b9H
	DB	01bH
	DB	0d8H
	DB	01bH
	DB	0b9H
	DB	01bH
	DB	0b9H
	DB	01bH
	DB	0b8H
	DB	01bH
	DB	0b9H
	DB	01bH
	DB	0b9H
	DB	01bH
	DB	0b8H
	DB	01bH
	DB	0b9H
	DB	01bH
	DB	0b9H
	DB	01bH
	DB	0b8H
	DB	01bH
	DB	0b9H
	DB	01bH
	DB	0b8H
	DB	01bH
	DB	0d8H
	DB	01bH
	DB	0b9H
	DB	01bH
	DB	0b9H
	DB	01bH
	DB	0d8H
	DB	01bH
	DB	0b9H
	DB	01bH
	DB	0b9H
	DB	01bH
	DB	0b8H
	DB	01bH
	DB	0d9H
	DB	01bH
	DB	0b8H
	DB	01bH
	DB	0b9H
	DB	01bH
	DB	0b9H
	DB	01bH
	DB	0b8H
	DB	01bH
	DB	0d9H
	DB	01bH
	DB	0b9H
	DB	01bH
	DB	0b8H
	DB	01bH
	DB	0d9H
	DB	01bH
	DB	0b9H
	DB	01bH
	DB	0b8H
	DB	01bH
	DB	0d9H
	DB	01bH
	DB	0b9H
	DB	01bH
	DB	0b8H
	DB	01bH
	DB	0d9H
	DB	01bH
	DB	0b9H
	DB	01bH
	DB	0b8H
	DB	01bH
	DB	0b9H
	DB	01bH
	DB	0b8H
	DB	01bH
	DB	0b9H
	DB	01bH
	DB	0b9H
	DB	01bH
	DB	0d8H
	DB	01bH
	DB	0b8H
	DB	01bH
	DB	0b9H
	DB	01bH
	DB	0b9H
	DB	01bH
	DB	0b8H
	DB	01bH
	DB	0b9H
	DB	01bH
	DB	0b9H
	DB	01bH
	DB	0b8H
	DB	01bH
	DB	0d9H
	DB	01bH
	DB	0b9H
	DB	01bH
	DB	0b8H
	DB	01bH
	DB	0b9H
	DB	01bH
	DB	0b9H
	DB	01bH
	DB	0d8H
	DB	01bH
	DB	0b9H
	DB	01bH
	DB	0d9H
	DB	01bH
	DB	0b8H
	DB	01bH
	DB	0b9H
	DB	01bH
	DB	0d9H
	DB	01bH
	DB	0b8H
	DB	01bH
	DB	0b9H
	DB	01bH
	DB	0d9H
	DB	01bH
	DB	0b8H
	DB	01bH
	DB	0b9H
	DB	01bH
	DB	0b9H
	DB	01bH
	DB	0b8H
	DB	01bH
	DB	0d9H
	DB	01bH
	DB	0b9H
	DB	01bH
	DB	0b8H
	DB	01bH
	DB	0b9H
	DB	01bH
	DB	0b9H
	DB	01bH
	DB	0d8H
	DB	01bH
	DB	0b9H
	DB	01bH
	DB	0b8H
	DB	01bH
	DB	0b9H
	DB	01bH
	DB	0d9H
	DB	01bH
	DB	0b9H
	DB	01bH
	DB	0b8H
	DB	01bH
	DB	055H
	DB	0adH
	DB	055H
	DB	0adH
	DB	0b8H
	DB	01bH
	DB	0b9H
	DB	01bH
	DB	0b8H
	DB	01bH
	DB	0b9H
	DB	01bH
	DB	0d8H
	DB	01bH
	DB	0b9H
	DB	01bH
	DB	0b9H
	DB	01bH
	DB	0d8H
	DB	01bH
	DB	0b9H
	DB	01bH
	DB	0b9H
	DB	01bH
	DB	0b8H
	DB	01bH
	DB	0d9H
	DB	01bH
	DB	0b8H
	DB	01bH
	DB	0b9H
	DB	01bH
	DB	0d8H
	DB	01bH
	DB	0b9H
	DB	01bH
	DB	0d8H
	DB	01bH
	DB	0b9H
	DB	01bH
	DB	0d9H
	DB	01bH
	DB	0d8H
	DB	01bH
	DB	0b9H
	DB	01bH
	DB	0b9H
	DB	01bH
	DB	0d9H
	DB	01bH
	DB	0b9H
	DB	01bH
	DB	0b8H
	DB	01bH
	DB	0b9H
	DB	01bH
	DB	0b9H
	DB	01bH
	DB	0b8H
	DB	01bH
	DB	0b9H
	DB	01bH
	DB	0b9H
	DB	01bH
	DB	0d8H
	DB	01bH
	DB	0b9H
	DB	01bH
	DB	0b9H
	DB	01bH
	DB	0d8H
	DB	01bH
	DB	0b9H
	DB	01bH
	DB	0b9H
	DB	01bH
	DB	0b9H
	DB	01bH
	DB	0d9H
	DB	01bH
	DB	0b8H
	DB	01bH
	DB	0b9H
	DB	01bH
	DB	0b9H
	DB	01bH
	DB	0b8H
	DB	01bH
	DB	0d9H
	DB	01bH
	DB	0b9H
	DB	01bH
	DB	0b8H
	DB	01bH
	DB	0d9H
	DB	01bH
	DB	0b9H
	DB	01bH
	DB	0d9H
	DB	01bH
	DB	0b8H
	DB	01bH
	DB	0b9H
	DB	01bH
	DB	0d9H
	DB	01bH
	DB	0b8H
	DB	01bH
	DB	0b9H
	DB	01bH
	DB	0d9H
	DB	01bH
	DB	0b8H
	DB	01bH
	DB	0d9H
	DB	01bH
	DB	0b9H
	DB	01bH
	DB	0d8H
	DB	01bH
	DB	0b9H
	DB	01bH
	DB	0b9H
	DB	01bH
	DB	0b8H
	DB	01bH
	DB	0d9H
	DB	01bH
	DB	0b8H
	DB	01bH
	DB	0b9H
	DB	01bH
	DB	0d9H
	DB	01bH
	DB	0b8H
	DB	01bH
	DB	0b9H
	DB	01bH
	DB	0b9H
	DB	01bH
	DB	0d8H
	DB	01bH
	DB	0b9H
	DB	01bH
	DB	0b9H
	DB	01bH
	DB	0b8H
	DB	01bH
	DB	0b9H
	DB	01bH
	DB	0b9H
	DB	01bH
	DB	0d8H
	DB	01bH
	DB	0b9H
	DB	01bH
	DB	0b9H
	DB	01bH
	DB	0b8H
	DB	01bH
	DB	0b9H
	DB	01bH
	DB	0d9H
	DB	01bH
	DB	0b8H
	DB	01bH
	DB	0b9H
	DB	01bH
	DB	0d9H
	DB	01bH
	DB	0b8H
	DB	01bH
	DB	0b9H
	DB	01bH
	DB	0b9H
	DB	01bH
	DB	0b8H
	DB	01bH
	DB	0b9H
	DB	01bH
	DB	0b9H
	DB	01bH
	DB	0b9H
	DB	01bH
	DB	055H
	DB	0adH
	DB	055H
	DB	0adH
	DB	0b9H
	DB	01bH
	DB	0b8H
	DB	01bH
	DB	0d9H
	DB	01bH
	DB	0b9H
	DB	01bH
	DB	0b8H
	DB	01bH
	DB	0b9H
	DB	01bH
	DB	0b8H
	DB	01bH
	DB	0d9H
	DB	01bH
	DB	0b9H
	DB	01bH
	DB	0b8H
	DB	01bH
	DB	0d9H
	DB	01bH
	DB	0b9H
	DB	01bH
	DB	0b9H
	DB	01bH
	DB	0b8H
	DB	01bH
	DB	0b9H
	DB	01bH
	DB	0b9H
	DB	01bH
	DB	0b8H
	DB	01bH
	DB	0b9H
	DB	01bH
	DB	0b8H
	DB	01bH
	DB	0b9H
	DB	01bH
	DB	0b8H
	DB	01bH
	DB	0d8H
	DB	01bH
	DB	0b9H
	DB	01bH
	DB	0b9H
	DB	01bH
	DB	0d8H
	DB	01bH
	DB	0b9H
	DB	01bH
	DB	0b9H
	DB	01bH
	DB	0d8H
	DB	01bH
	DB	0b9H
	DB	01bH
	DB	0b9H
	DB	01bH
	DB	0b8H
	DB	01bH
	DB	0b9H
	DB	01bH
	DB	0b9H
	DB	01bH
	DB	0d8H
	DB	01bH
	DB	0b8H
	DB	01bH
	DB	0b9H
	DB	01bH
	DB	0b8H
	DB	01bH
	DB	0b8H
	DB	01bH
	DB	0d9H
	DB	01bH
	DB	0b8H
	DB	01bH
	DB	0b9H
	DB	01bH
	DB	0d8H
	DB	01bH
	DB	0b9H
	DB	01bH
	DB	0b8H
	DB	01bH
	DB	0b9H
	DB	01bH
	DB	0b8H
	DB	01bH
	DB	0b8H
	DB	01bH
	DB	0b9H
	DB	01bH
	DB	0d9H
	DB	01bH
	DB	0b8H
	DB	01bH
	DB	0b9H
	DB	01bH
	DB	0b9H
	DB	01bH
	DB	0b8H
	DB	01bH
	DB	0b9H
	DB	01bH
	DB	0b9H
	DB	01bH
	DB	0b8H
	DB	01bH
	DB	0d9H
	DB	01bH
	DB	0b8H
	DB	01bH
	DB	0b9H
	DB	01bH
	DB	0d9H
	DB	01bH
	DB	0b8H
	DB	01bH
	DB	0b9H
	DB	01bH
	DB	0d9H
	DB	01bH
	DB	0b8H
	DB	01bH
	DB	0b9H
	DB	01bH
	DB	0b8H
	DB	01bH
	DB	0b9H
	DB	01bH
	DB	0b9H
	DB	01bH
	DB	0b8H
	DB	01bH
	DB	0d9H
	DB	01bH
	DB	0b8H
	DB	01bH
	DB	0b9H
	DB	01bH
	DB	0d8H
	DB	01bH
	DB	0b9H
	DB	01bH
	DB	0b9H
	DB	01bH
	DB	0d8H
	DB	01bH
	DB	0b9H
	DB	01bH
	DB	0b8H
	DB	01bH
	DB	0d9H
	DB	01bH
	DB	0b8H
	DB	01bH
	DB	0b9H
	DB	01bH
	DB	0d8H
	DB	01bH
	DB	0b9H
	DB	01bH
	DB	0b9H
	DB	01bH
	DB	0d8H
	DB	01bH
	DB	0b9H
	DB	01bH
	DB	0d8H
	DB	01bH
	DB	0b8H
	DB	01bH
	DB	0b9H
	DB	01bH
	DB	0d8H
	DB	01bH
	DB	055H
	DB	0adH
	DB	055H
	DB	0adH
	DB	0b9H
	DB	01bH
	DB	0b8H
	DB	01bH
	DB	0b9H
	DB	01bH
	DB	0d9H
	DB	01bH
	DB	0b8H
	DB	01bH
	DB	0b9H
	DB	01bH
	DB	0d9H
	DB	01bH
	DB	0b8H
	DB	01bH
	DB	0b9H
	DB	01bH
	DB	0b8H
	DB	01bH
	DB	0b8H
	DB	01bH
	DB	0b9H
	DB	01bH
	DB	0d9H
	DB	01bH
	DB	0b8H
	DB	01bH
	DB	0b9H
	DB	01bH
	DB	0d9H
	DB	01bH
	DB	0b8H
	DB	01bH
	DB	0b9H
	DB	01bH
	DB	0d9H
	DB	01bH
	DB	0b9H
	DB	01bH
	DB	0b9H
	DB	01bH
	DB	0b8H
	DB	01bH
	DB	0b9H
	DB	01bH
	DB	0b8H
	DB	01bH
	DB	0d9H
	DB	01bH
	DB	0b9H
	DB	01bH
	DB	0b8H
	DB	01bH
	DB	0d9H
	DB	01bH
	DB	0b8H
	DB	01bH
	DB	0d9H
	DB	01bH
	DB	0b9H
	DB	01bH
	DB	0b8H
	DB	01bH
	DB	0d9H
	DB	01bH
	DB	0b9H
	DB	01bH
	DB	0b9H
	DB	01bH
	DB	0d8H
	DB	01bH
	DB	0b9H
	DB	01bH
	DB	0b9H
	DB	01bH
	DB	0b9H
	DB	01bH
	DB	0d9H
	DB	01bH
	DB	0b8H
	DB	01bH
	DB	0b9H
	DB	01bH
	DB	0b9H
	DB	01bH
	DB	0d8H
	DB	01bH
	DB	0b9H
	DB	01bH
	DB	0b9H
	DB	01bH
	DB	0d8H
	DB	01bH
	DB	0b9H
	DB	01bH
	DB	0b9H
	DB	01bH
	DB	0d8H
	DB	01bH
	DB	0b9H
	DB	01bH
	DB	0d9H
	DB	01bH
	DB	0b8H
	DB	01bH
	DB	0b9H
	DB	01bH
	DB	0d9H
	DB	01bH
	DB	0b8H
	DB	01bH
	DB	0b9H
	DB	01bH
	DB	0b9H
	DB	01bH
	DB	0b8H
	DB	01bH
	DB	0d9H
	DB	01bH
	DB	0b8H
	DB	01bH
	DB	0b9H
	DB	01bH
	DB	0b9H
	DB	01bH
	DB	0b8H
	DB	01bH
	DB	0d9H
	DB	01bH
	DB	0b9H
	DB	01bH
	DB	0d8H
	DB	01bH
	DB	0b9H
	DB	01bH
	DB	0b9H
	DB	01bH
	DB	0b8H
	DB	01bH
	DB	0d9H
	DB	01bH
	DB	0b9H
	DB	01bH
	DB	0b8H
	DB	01bH
	DB	0b9H
	DB	01bH
	DB	0b8H
	DB	01bH
	DB	0b9H
	DB	01bH
	DB	0d9H
	DB	01bH
	DB	0b8H
	DB	01bH
	DB	0b9H
	DB	01bH
	DB	0b9H
	DB	01bH
	DB	0b8H
	DB	01bH
	DB	0b9H
	DB	01bH
	DB	0b8H
	DB	01bH
	DB	0b9H
	DB	01bH
	DB	0b9H
	DB	01bH
	DB	0d8H
	DB	01bH
	DB	0b9H
	DB	01bH
	DB	0b9H
	DB	01bH
	DB	0b8H
	DB	01bH
	DB	0b9H
	DB	01bH
	DB	055H
	DB	0adH
	DB	055H
	DB	0adH
	DB	034H
	DB	0a5H
	DB	034H
	DB	0a5H
	DB	034H
	DB	0a5H
	DB	034H
	DB	0a5H
	DB	034H
	DB	0a5H
	DB	034H
	DB	0adH
	DB	034H
	DB	0a5H
	DB	034H
	DB	0a5H
	DB	034H
	DB	0adH
	DB	035H
	DB	0a5H
	DB	034H
	DB	0a5H
	DB	034H
	DB	0adH
	DB	034H
	DB	0a5H
	DB	034H
	DB	0adH
	DB	034H
	DB	0adH
	DB	034H
	DB	0a5H
	DB	034H
	DB	0adH
	DB	034H
	DB	0adH
	DB	034H
	DB	0a5H
	DB	034H
	DB	0adH
	DB	034H
	DB	0adH
	DB	034H
	DB	0a5H
	DB	034H
	DB	0adH
	DB	034H
	DB	0adH
	DB	034H
	DB	0a5H
	DB	034H
	DB	0adH
	DB	034H
	DB	0adH
	DB	034H
	DB	0adH
	DB	034H
	DB	0a5H
	DB	034H
	DB	0adH
	DB	034H
	DB	0adH
	DB	034H
	DB	0adH
	DB	034H
	DB	0a5H
	DB	034H
	DB	0adH
	DB	034H
	DB	0adH
	DB	034H
	DB	0adH
	DB	034H
	DB	0a5H
	DB	034H
	DB	0adH
	DB	034H
	DB	0adH
	DB	034H
	DB	0adH
	DB	034H
	DB	0a5H
	DB	034H
	DB	0adH
	DB	034H
	DB	0adH
	DB	034H
	DB	0adH
	DB	034H
	DB	0a5H
	DB	034H
	DB	0adH
	DB	034H
	DB	0adH
	DB	034H
	DB	0adH
	DB	034H
	DB	0a5H
	DB	034H
	DB	0adH
	DB	034H
	DB	0adH
	DB	034H
	DB	0adH
	DB	034H
	DB	0a5H
	DB	034H
	DB	0adH
	DB	034H
	DB	0adH
	DB	034H
	DB	0adH
	DB	034H
	DB	0a5H
	DB	034H
	DB	0adH
	DB	034H
	DB	0adH
	DB	034H
	DB	0adH
	DB	034H
	DB	0a5H
	DB	034H
	DB	0adH
	DB	034H
	DB	0adH
	DB	034H
	DB	0adH
	DB	034H
	DB	0a5H
	DB	034H
	DB	0adH
	DB	034H
	DB	0adH
	DB	034H
	DB	0adH
	DB	034H
	DB	0a5H
	DB	034H
	DB	0adH
	DB	034H
	DB	0adH
	DB	034H
	DB	0adH
	DB	034H
	DB	0a5H
	DB	034H
	DB	0adH
	DB	034H
	DB	0adH
	DB	034H
	DB	0adH
	DB	034H
	DB	0a5H
	DB	034H
	DB	0adH
	DB	034H
	DB	0adH
	DB	034H
	DB	0adH
	DB	034H
	DB	0a5H
	DB	034H
	DB	0adH
	DB	034H
	DB	0adH
	DB	034H
	DB	0adH
	DB	034H
	DB	0a5H
	DB	034H
	DB	0adH
	DB	034H
	DB	0adH
	DB	034H
	DB	0a5H
	DB	034H
	DB	0adH
	DB	034H
	DB	0a5H
	DB	055H
	DB	0adH
CONST	ENDS
END
