; Listing generated by Microsoft (R) Optimizing Compiler Version 19.28.29914.0 

	TITLE	D:\Oscilloscope\Project\Oscilloscope\Graphic\build\Debug\obj\controlPanel.obj
	.686P
	.XMM
	include listing.inc
	.model	flat

INCLUDELIB MSVCRTD
INCLUDELIB OLDNAMES

PUBLIC	?_controlPanel@@3QBEB				; _controlPanel
PUBLIC	?_controlPanel_alpha_channel@@3QBEB		; _controlPanel_alpha_channel
CONST	SEGMENT
?_controlPanel@@3QBEB DB 0efH				; _controlPanel
	DB	07bH
	DB	0efH
	DB	07bH
	DB	0efH
	DB	07bH
	DB	0efH
	DB	07bH
	DB	0efH
	DB	07bH
	DB	0efH
	DB	07bH
	DB	0efH
	DB	07bH
	DB	0efH
	DB	07bH
	DB	0efH
	DB	07bH
	DB	0efH
	DB	07bH
	DB	0efH
	DB	07bH
	DB	0efH
	DB	07bH
	DB	0efH
	DB	07bH
	DB	0efH
	DB	07bH
	DB	0efH
	DB	07bH
	DB	0efH
	DB	07bH
	DB	0efH
	DB	07bH
	DB	0efH
	DB	07bH
	DB	0efH
	DB	07bH
	DB	0efH
	DB	07bH
	DB	0efH
	DB	07bH
	DB	0efH
	DB	07bH
	DB	0efH
	DB	07bH
	DB	0efH
	DB	07bH
	DB	0efH
	DB	07bH
	DB	0efH
	DB	07bH
	DB	0efH
	DB	07bH
	DB	0efH
	DB	07bH
	DB	0efH
	DB	07bH
	DB	0efH
	DB	07bH
	DB	0efH
	DB	07bH
	DB	0efH
	DB	07bH
	DB	0efH
	DB	07bH
	DB	0efH
	DB	07bH
	DB	0efH
	DB	07bH
	DB	0efH
	DB	07bH
	DB	0efH
	DB	07bH
	DB	0efH
	DB	07bH
	DB	0efH
	DB	07bH
	DB	0efH
	DB	07bH
	DB	0efH
	DB	07bH
	DB	0efH
	DB	07bH
	DB	0efH
	DB	07bH
	DB	0efH
	DB	07bH
	DB	0efH
	DB	07bH
	DB	0efH
	DB	07bH
	DB	0efH
	DB	07bH
	DB	0efH
	DB	07bH
	DB	0efH
	DB	07bH
	DB	0efH
	DB	07bH
	DB	0efH
	DB	07bH
	DB	0efH
	DB	07bH
	DB	0efH
	DB	07bH
	DB	0efH
	DB	07bH
	DB	0efH
	DB	07bH
	DB	0efH
	DB	07bH
	DB	0efH
	DB	07bH
	DB	0efH
	DB	07bH
	DB	0efH
	DB	07bH
	DB	0efH
	DB	07bH
	DB	0efH
	DB	07bH
	DB	0efH
	DB	07bH
	DB	0efH
	DB	07bH
	DB	0efH
	DB	07bH
	DB	0efH
	DB	07bH
	DB	0efH
	DB	07bH
	DB	0efH
	DB	07bH
	DB	0efH
	DB	07bH
	DB	0efH
	DB	07bH
	DB	0efH
	DB	07bH
	DB	0efH
	DB	07bH
	DB	0efH
	DB	07bH
	DB	0efH
	DB	07bH
	DB	0efH
	DB	07bH
	DB	0efH
	DB	07bH
	DB	0efH
	DB	07bH
	DB	0efH
	DB	07bH
	DB	0efH
	DB	07bH
	DB	0efH
	DB	07bH
	DB	0efH
	DB	07bH
	DB	0efH
	DB	07bH
	DB	0efH
	DB	07bH
	DB	0efH
	DB	07bH
	DB	0efH
	DB	07bH
	DB	0efH
	DB	07bH
	DB	0efH
	DB	07bH
	DB	0efH
	DB	07bH
	DB	0efH
	DB	07bH
	DB	0efH
	DB	07bH
	DB	0efH
	DB	07bH
	DB	0efH
	DB	07bH
	DB	0efH
	DB	07bH
	DB	0efH
	DB	07bH
	DB	0efH
	DB	07bH
	DB	0efH
	DB	07bH
	DB	0efH
	DB	07bH
	DB	0efH
	DB	07bH
	DB	0efH
	DB	07bH
	DB	0efH
	DB	07bH
	DB	0efH
	DB	07bH
	DB	0efH
	DB	07bH
	DB	0efH
	DB	07bH
	DB	0efH
	DB	07bH
	DB	0efH
	DB	07bH
	DB	0efH
	DB	07bH
	DB	0efH
	DB	07bH
	DB	0efH
	DB	07bH
	DB	0efH
	DB	07bH
	DB	0efH
	DB	07bH
	DB	0efH
	DB	07bH
	DB	0efH
	DB	07bH
	DB	0efH
	DB	07bH
	DB	0efH
	DB	07bH
	DB	0efH
	DB	07bH
	DB	0efH
	DB	07bH
	DB	0efH
	DB	07bH
	DB	0efH
	DB	07bH
	DB	0efH
	DB	07bH
	DB	0efH
	DB	07bH
	DB	0efH
	DB	07bH
	DB	0efH
	DB	07bH
	DB	0efH
	DB	07bH
	DB	0efH
	DB	07bH
	DB	0efH
	DB	07bH
	DB	0efH
	DB	07bH
	DB	0efH
	DB	07bH
	DB	0efH
	DB	07bH
	DB	0efH
	DB	07bH
	DB	0efH
	DB	07bH
	DB	0efH
	DB	07bH
	DB	0efH
	DB	07bH
	DB	0efH
	DB	07bH
	DB	0efH
	DB	07bH
	DB	0efH
	DB	07bH
	DB	0efH
	DB	07bH
	DB	0efH
	DB	07bH
	DB	0efH
	DB	07bH
	DB	0efH
	DB	07bH
	DB	0efH
	DB	07bH
	DB	0efH
	DB	07bH
	DB	0efH
	DB	07bH
	DB	0efH
	DB	07bH
	DB	0efH
	DB	07bH
	DB	0efH
	DB	07bH
	DB	0efH
	DB	07bH
	DB	0efH
	DB	07bH
	DB	0efH
	DB	07bH
	DB	0efH
	DB	07bH
	DB	0efH
	DB	07bH
	DB	0efH
	DB	07bH
	DB	0efH
	DB	07bH
	DB	0efH
	DB	07bH
	DB	0efH
	DB	07bH
	DB	0efH
	DB	07bH
	DB	0efH
	DB	07bH
	DB	0efH
	DB	07bH
	DB	0efH
	DB	07bH
	DB	0efH
	DB	07bH
	DB	0efH
	DB	07bH
	DB	0efH
	DB	07bH
	DB	0efH
	DB	07bH
	DB	0efH
	DB	07bH
	DB	0efH
	DB	07bH
	DB	0efH
	DB	07bH
	DB	0efH
	DB	07bH
	DB	0efH
	DB	07bH
	DB	029H
	DB	04aH
	DB	09H
	DB	042H
	DB	028H
	DB	042H
	DB	09H
	DB	04aH
	DB	029H
	DB	042H
	DB	08H
	DB	042H
	DB	029H
	DB	04aH
	DB	09H
	DB	042H
	DB	028H
	DB	042H
	DB	09H
	DB	04aH
	DB	029H
	DB	042H
	DB	08H
	DB	042H
	DB	029H
	DB	04aH
	DB	09H
	DB	042H
	DB	028H
	DB	042H
	DB	09H
	DB	04aH
	DB	029H
	DB	042H
	DB	08H
	DB	042H
	DB	029H
	DB	04aH
	DB	09H
	DB	042H
	DB	028H
	DB	042H
	DB	09H
	DB	04aH
	DB	029H
	DB	042H
	DB	08H
	DB	042H
	DB	029H
	DB	04aH
	DB	09H
	DB	042H
	DB	028H
	DB	042H
	DB	09H
	DB	04aH
	DB	029H
	DB	042H
	DB	08H
	DB	042H
	DB	029H
	DB	04aH
	DB	09H
	DB	042H
	DB	028H
	DB	042H
	DB	09H
	DB	04aH
	DB	029H
	DB	042H
	DB	08H
	DB	042H
	DB	029H
	DB	04aH
	DB	09H
	DB	042H
	DB	028H
	DB	042H
	DB	09H
	DB	04aH
	DB	029H
	DB	042H
	DB	08H
	DB	042H
	DB	029H
	DB	04aH
	DB	09H
	DB	042H
	DB	028H
	DB	042H
	DB	09H
	DB	04aH
	DB	029H
	DB	042H
	DB	08H
	DB	042H
	DB	029H
	DB	04aH
	DB	09H
	DB	042H
	DB	028H
	DB	042H
	DB	09H
	DB	04aH
	DB	029H
	DB	042H
	DB	08H
	DB	042H
	DB	029H
	DB	04aH
	DB	09H
	DB	042H
	DB	028H
	DB	042H
	DB	09H
	DB	04aH
	DB	029H
	DB	042H
	DB	08H
	DB	042H
	DB	029H
	DB	04aH
	DB	09H
	DB	042H
	DB	028H
	DB	042H
	DB	09H
	DB	04aH
	DB	029H
	DB	042H
	DB	08H
	DB	042H
	DB	029H
	DB	04aH
	DB	09H
	DB	042H
	DB	028H
	DB	042H
	DB	09H
	DB	04aH
	DB	029H
	DB	042H
	DB	08H
	DB	042H
	DB	029H
	DB	04aH
	DB	09H
	DB	042H
	DB	028H
	DB	042H
	DB	09H
	DB	04aH
	DB	029H
	DB	042H
	DB	08H
	DB	042H
	DB	029H
	DB	04aH
	DB	09H
	DB	042H
	DB	028H
	DB	042H
	DB	09H
	DB	04aH
	DB	029H
	DB	042H
	DB	08H
	DB	042H
	DB	029H
	DB	04aH
	DB	09H
	DB	042H
	DB	028H
	DB	042H
	DB	09H
	DB	04aH
	DB	029H
	DB	042H
	DB	08H
	DB	042H
	DB	029H
	DB	04aH
	DB	09H
	DB	042H
	DB	028H
	DB	042H
	DB	09H
	DB	04aH
	DB	029H
	DB	042H
	DB	08H
	DB	042H
	DB	029H
	DB	04aH
	DB	09H
	DB	042H
	DB	028H
	DB	042H
	DB	09H
	DB	04aH
	DB	029H
	DB	042H
	DB	08H
	DB	042H
	DB	029H
	DB	04aH
	DB	09H
	DB	042H
	DB	028H
	DB	042H
	DB	09H
	DB	04aH
	DB	029H
	DB	042H
	DB	08H
	DB	042H
	DB	029H
	DB	04aH
	DB	09H
	DB	042H
	DB	028H
	DB	042H
	DB	09H
	DB	04aH
	DB	029H
	DB	042H
	DB	08H
	DB	042H
	DB	029H
	DB	04aH
	DB	09H
	DB	042H
	DB	028H
	DB	042H
	DB	09H
	DB	04aH
	DB	029H
	DB	042H
	DB	08H
	DB	042H
	DB	029H
	DB	04aH
	DB	09H
	DB	042H
	DB	028H
	DB	042H
	DB	09H
	DB	04aH
	DB	029H
	DB	042H
	DB	08H
	DB	042H
	DB	029H
	DB	04aH
	DB	09H
	DB	042H
	DB	028H
	DB	042H
	DB	09H
	DB	04aH
	DB	029H
	DB	042H
	DB	08H
	DB	042H
	DB	029H
	DB	04aH
	DB	09H
	DB	042H
	DB	028H
	DB	042H
	DB	09H
	DB	04aH
	DB	029H
	DB	042H
	DB	08H
	DB	042H
	DB	029H
	DB	04aH
	DB	09H
	DB	042H
	DB	028H
	DB	042H
	DB	09H
	DB	04aH
	DB	029H
	DB	042H
	DB	08H
	DB	042H
	DB	029H
	DB	04aH
	DB	09H
	DB	042H
	DB	028H
	DB	042H
	DB	09H
	DB	04aH
	DB	029H
	DB	042H
	DB	08H
	DB	042H
	DB	029H
	DB	04aH
	DB	09H
	DB	042H
	DB	028H
	DB	042H
	DB	09H
	DB	04aH
	DB	029H
	DB	042H
	DB	08H
	DB	042H
	DB	029H
	DB	04aH
	DB	09H
	DB	042H
	DB	028H
	DB	042H
	DB	09H
	DB	04aH
	DB	029H
	DB	042H
	DB	08H
	DB	042H
	DB	029H
	DB	04aH
	DB	0f0H
	DB	07bH
	DB	0efH
	DB	07bH
	DB	049H
	DB	04aH
	DB	049H
	DB	04aH
	DB	049H
	DB	04aH
	DB	049H
	DB	04aH
	DB	029H
	DB	04aH
	DB	049H
	DB	04aH
	DB	049H
	DB	04aH
	DB	049H
	DB	04aH
	DB	029H
	DB	04aH
	DB	049H
	DB	04aH
	DB	049H
	DB	04aH
	DB	049H
	DB	04aH
	DB	029H
	DB	04aH
	DB	049H
	DB	04aH
	DB	049H
	DB	04aH
	DB	049H
	DB	04aH
	DB	029H
	DB	04aH
	DB	049H
	DB	04aH
	DB	049H
	DB	04aH
	DB	049H
	DB	04aH
	DB	029H
	DB	04aH
	DB	049H
	DB	04aH
	DB	049H
	DB	04aH
	DB	049H
	DB	04aH
	DB	029H
	DB	04aH
	DB	049H
	DB	04aH
	DB	049H
	DB	04aH
	DB	049H
	DB	04aH
	DB	029H
	DB	04aH
	DB	049H
	DB	04aH
	DB	049H
	DB	04aH
	DB	049H
	DB	04aH
	DB	029H
	DB	04aH
	DB	049H
	DB	04aH
	DB	049H
	DB	04aH
	DB	049H
	DB	04aH
	DB	029H
	DB	04aH
	DB	049H
	DB	04aH
	DB	049H
	DB	04aH
	DB	049H
	DB	04aH
	DB	029H
	DB	04aH
	DB	049H
	DB	04aH
	DB	049H
	DB	04aH
	DB	049H
	DB	04aH
	DB	029H
	DB	04aH
	DB	049H
	DB	04aH
	DB	049H
	DB	04aH
	DB	049H
	DB	04aH
	DB	029H
	DB	04aH
	DB	049H
	DB	04aH
	DB	049H
	DB	04aH
	DB	049H
	DB	04aH
	DB	029H
	DB	04aH
	DB	049H
	DB	04aH
	DB	049H
	DB	04aH
	DB	049H
	DB	04aH
	DB	029H
	DB	04aH
	DB	049H
	DB	04aH
	DB	049H
	DB	04aH
	DB	049H
	DB	04aH
	DB	029H
	DB	04aH
	DB	049H
	DB	04aH
	DB	049H
	DB	04aH
	DB	049H
	DB	04aH
	DB	029H
	DB	04aH
	DB	049H
	DB	04aH
	DB	049H
	DB	04aH
	DB	049H
	DB	04aH
	DB	029H
	DB	04aH
	DB	049H
	DB	04aH
	DB	049H
	DB	04aH
	DB	049H
	DB	04aH
	DB	029H
	DB	04aH
	DB	049H
	DB	04aH
	DB	049H
	DB	04aH
	DB	049H
	DB	04aH
	DB	029H
	DB	04aH
	DB	049H
	DB	04aH
	DB	049H
	DB	04aH
	DB	049H
	DB	04aH
	DB	029H
	DB	04aH
	DB	049H
	DB	04aH
	DB	049H
	DB	04aH
	DB	049H
	DB	04aH
	DB	029H
	DB	04aH
	DB	049H
	DB	04aH
	DB	049H
	DB	04aH
	DB	049H
	DB	04aH
	DB	029H
	DB	04aH
	DB	049H
	DB	04aH
	DB	049H
	DB	04aH
	DB	049H
	DB	04aH
	DB	029H
	DB	04aH
	DB	049H
	DB	04aH
	DB	049H
	DB	04aH
	DB	049H
	DB	04aH
	DB	029H
	DB	04aH
	DB	049H
	DB	04aH
	DB	049H
	DB	04aH
	DB	049H
	DB	04aH
	DB	029H
	DB	04aH
	DB	049H
	DB	04aH
	DB	049H
	DB	04aH
	DB	049H
	DB	04aH
	DB	029H
	DB	04aH
	DB	049H
	DB	04aH
	DB	049H
	DB	04aH
	DB	049H
	DB	04aH
	DB	029H
	DB	04aH
	DB	049H
	DB	04aH
	DB	049H
	DB	04aH
	DB	049H
	DB	04aH
	DB	029H
	DB	04aH
	DB	049H
	DB	04aH
	DB	049H
	DB	04aH
	DB	049H
	DB	04aH
	DB	029H
	DB	04aH
	DB	049H
	DB	04aH
	DB	049H
	DB	04aH
	DB	049H
	DB	04aH
	DB	029H
	DB	04aH
	DB	049H
	DB	04aH
	DB	049H
	DB	04aH
	DB	049H
	DB	04aH
	DB	029H
	DB	04aH
	DB	049H
	DB	04aH
	DB	049H
	DB	04aH
	DB	049H
	DB	04aH
	DB	029H
	DB	04aH
	DB	049H
	DB	04aH
	DB	049H
	DB	04aH
	DB	049H
	DB	04aH
	DB	029H
	DB	04aH
	DB	049H
	DB	04aH
	DB	049H
	DB	04aH
	DB	049H
	DB	04aH
	DB	029H
	DB	04aH
	DB	049H
	DB	04aH
	DB	049H
	DB	04aH
	DB	049H
	DB	04aH
	DB	029H
	DB	04aH
	DB	049H
	DB	04aH
	DB	049H
	DB	04aH
	DB	049H
	DB	04aH
	DB	029H
	DB	04aH
	DB	049H
	DB	04aH
	DB	049H
	DB	04aH
	DB	049H
	DB	04aH
	DB	029H
	DB	04aH
	DB	049H
	DB	04aH
	DB	049H
	DB	04aH
	DB	049H
	DB	04aH
	DB	029H
	DB	04aH
	DB	049H
	DB	04aH
	DB	049H
	DB	04aH
	DB	049H
	DB	04aH
	DB	029H
	DB	04aH
	DB	049H
	DB	04aH
	DB	049H
	DB	04aH
	DB	049H
	DB	04aH
	DB	049H
	DB	04aH
	DB	049H
	DB	04aH
	DB	049H
	DB	04aH
	DB	0efH
	DB	083H
	DB	0efH
	DB	07bH
	DB	049H
	DB	04aH
	DB	029H
	DB	04aH
	DB	049H
	DB	04aH
	DB	049H
	DB	04aH
	DB	049H
	DB	04aH
	DB	049H
	DB	04aH
	DB	049H
	DB	04aH
	DB	049H
	DB	04aH
	DB	049H
	DB	04aH
	DB	049H
	DB	04aH
	DB	049H
	DB	04aH
	DB	049H
	DB	04aH
	DB	049H
	DB	04aH
	DB	049H
	DB	04aH
	DB	049H
	DB	04aH
	DB	049H
	DB	04aH
	DB	049H
	DB	04aH
	DB	049H
	DB	04aH
	DB	049H
	DB	04aH
	DB	049H
	DB	04aH
	DB	049H
	DB	04aH
	DB	049H
	DB	04aH
	DB	049H
	DB	04aH
	DB	049H
	DB	04aH
	DB	049H
	DB	04aH
	DB	049H
	DB	04aH
	DB	049H
	DB	04aH
	DB	049H
	DB	04aH
	DB	049H
	DB	04aH
	DB	049H
	DB	04aH
	DB	049H
	DB	04aH
	DB	049H
	DB	04aH
	DB	049H
	DB	04aH
	DB	049H
	DB	04aH
	DB	049H
	DB	04aH
	DB	049H
	DB	04aH
	DB	049H
	DB	04aH
	DB	049H
	DB	04aH
	DB	049H
	DB	04aH
	DB	049H
	DB	04aH
	DB	049H
	DB	04aH
	DB	049H
	DB	04aH
	DB	049H
	DB	04aH
	DB	049H
	DB	04aH
	DB	049H
	DB	04aH
	DB	049H
	DB	04aH
	DB	049H
	DB	04aH
	DB	049H
	DB	04aH
	DB	049H
	DB	04aH
	DB	049H
	DB	04aH
	DB	049H
	DB	04aH
	DB	049H
	DB	04aH
	DB	049H
	DB	04aH
	DB	049H
	DB	04aH
	DB	049H
	DB	04aH
	DB	049H
	DB	04aH
	DB	049H
	DB	04aH
	DB	049H
	DB	04aH
	DB	049H
	DB	04aH
	DB	049H
	DB	04aH
	DB	049H
	DB	04aH
	DB	049H
	DB	04aH
	DB	049H
	DB	04aH
	DB	049H
	DB	04aH
	DB	049H
	DB	04aH
	DB	049H
	DB	04aH
	DB	049H
	DB	04aH
	DB	049H
	DB	04aH
	DB	049H
	DB	04aH
	DB	049H
	DB	04aH
	DB	049H
	DB	04aH
	DB	049H
	DB	04aH
	DB	049H
	DB	04aH
	DB	049H
	DB	04aH
	DB	049H
	DB	04aH
	DB	049H
	DB	04aH
	DB	049H
	DB	04aH
	DB	049H
	DB	04aH
	DB	049H
	DB	04aH
	DB	049H
	DB	04aH
	DB	049H
	DB	04aH
	DB	049H
	DB	04aH
	DB	049H
	DB	04aH
	DB	049H
	DB	04aH
	DB	049H
	DB	04aH
	DB	049H
	DB	04aH
	DB	049H
	DB	04aH
	DB	049H
	DB	04aH
	DB	049H
	DB	04aH
	DB	049H
	DB	04aH
	DB	049H
	DB	04aH
	DB	049H
	DB	04aH
	DB	049H
	DB	04aH
	DB	049H
	DB	04aH
	DB	049H
	DB	04aH
	DB	049H
	DB	04aH
	DB	049H
	DB	04aH
	DB	049H
	DB	04aH
	DB	049H
	DB	04aH
	DB	049H
	DB	04aH
	DB	049H
	DB	04aH
	DB	049H
	DB	04aH
	DB	049H
	DB	04aH
	DB	049H
	DB	04aH
	DB	049H
	DB	04aH
	DB	049H
	DB	04aH
	DB	049H
	DB	04aH
	DB	049H
	DB	04aH
	DB	049H
	DB	04aH
	DB	049H
	DB	04aH
	DB	049H
	DB	04aH
	DB	049H
	DB	04aH
	DB	049H
	DB	04aH
	DB	049H
	DB	04aH
	DB	049H
	DB	04aH
	DB	049H
	DB	04aH
	DB	049H
	DB	04aH
	DB	049H
	DB	04aH
	DB	049H
	DB	04aH
	DB	049H
	DB	04aH
	DB	049H
	DB	04aH
	DB	049H
	DB	04aH
	DB	049H
	DB	04aH
	DB	049H
	DB	04aH
	DB	049H
	DB	04aH
	DB	049H
	DB	04aH
	DB	049H
	DB	04aH
	DB	049H
	DB	04aH
	DB	049H
	DB	04aH
	DB	049H
	DB	04aH
	DB	049H
	DB	04aH
	DB	049H
	DB	04aH
	DB	049H
	DB	04aH
	DB	049H
	DB	04aH
	DB	049H
	DB	04aH
	DB	049H
	DB	04aH
	DB	049H
	DB	04aH
	DB	049H
	DB	04aH
	DB	049H
	DB	04aH
	DB	049H
	DB	04aH
	DB	049H
	DB	04aH
	DB	049H
	DB	04aH
	DB	049H
	DB	04aH
	DB	049H
	DB	04aH
	DB	049H
	DB	04aH
	DB	049H
	DB	04aH
	DB	049H
	DB	04aH
	DB	049H
	DB	04aH
	DB	049H
	DB	04aH
	DB	049H
	DB	04aH
	DB	049H
	DB	04aH
	DB	049H
	DB	04aH
	DB	049H
	DB	04aH
	DB	049H
	DB	04aH
	DB	049H
	DB	04aH
	DB	049H
	DB	04aH
	DB	049H
	DB	04aH
	DB	049H
	DB	04aH
	DB	029H
	DB	04aH
	DB	049H
	DB	04aH
	DB	049H
	DB	04aH
	DB	029H
	DB	04aH
	DB	049H
	DB	04aH
	DB	0efH
	DB	07bH
	DB	0efH
	DB	083H
	DB	049H
	DB	04aH
	DB	049H
	DB	04aH
	DB	029H
	DB	04aH
	DB	049H
	DB	04aH
	DB	049H
	DB	04aH
	DB	029H
	DB	04aH
	DB	029H
	DB	04aH
	DB	049H
	DB	04aH
	DB	049H
	DB	04aH
	DB	029H
	DB	04aH
	DB	029H
	DB	04aH
	DB	049H
	DB	04aH
	DB	049H
	DB	04aH
	DB	029H
	DB	04aH
	DB	029H
	DB	04aH
	DB	049H
	DB	04aH
	DB	049H
	DB	04aH
	DB	029H
	DB	04aH
	DB	029H
	DB	04aH
	DB	049H
	DB	04aH
	DB	049H
	DB	04aH
	DB	029H
	DB	04aH
	DB	029H
	DB	04aH
	DB	049H
	DB	04aH
	DB	049H
	DB	04aH
	DB	029H
	DB	04aH
	DB	029H
	DB	04aH
	DB	049H
	DB	04aH
	DB	049H
	DB	04aH
	DB	029H
	DB	04aH
	DB	029H
	DB	04aH
	DB	049H
	DB	04aH
	DB	049H
	DB	04aH
	DB	029H
	DB	04aH
	DB	029H
	DB	04aH
	DB	049H
	DB	04aH
	DB	049H
	DB	04aH
	DB	029H
	DB	04aH
	DB	029H
	DB	04aH
	DB	049H
	DB	04aH
	DB	049H
	DB	04aH
	DB	029H
	DB	04aH
	DB	029H
	DB	04aH
	DB	049H
	DB	04aH
	DB	049H
	DB	04aH
	DB	029H
	DB	04aH
	DB	029H
	DB	04aH
	DB	049H
	DB	04aH
	DB	049H
	DB	04aH
	DB	029H
	DB	04aH
	DB	029H
	DB	04aH
	DB	049H
	DB	04aH
	DB	049H
	DB	04aH
	DB	029H
	DB	04aH
	DB	029H
	DB	04aH
	DB	049H
	DB	04aH
	DB	049H
	DB	04aH
	DB	029H
	DB	04aH
	DB	029H
	DB	04aH
	DB	049H
	DB	04aH
	DB	049H
	DB	04aH
	DB	029H
	DB	04aH
	DB	029H
	DB	04aH
	DB	049H
	DB	04aH
	DB	049H
	DB	04aH
	DB	029H
	DB	04aH
	DB	029H
	DB	04aH
	DB	049H
	DB	04aH
	DB	049H
	DB	04aH
	DB	029H
	DB	04aH
	DB	029H
	DB	04aH
	DB	049H
	DB	04aH
	DB	049H
	DB	04aH
	DB	029H
	DB	04aH
	DB	029H
	DB	04aH
	DB	049H
	DB	04aH
	DB	049H
	DB	04aH
	DB	029H
	DB	04aH
	DB	029H
	DB	04aH
	DB	049H
	DB	04aH
	DB	049H
	DB	04aH
	DB	029H
	DB	04aH
	DB	029H
	DB	04aH
	DB	049H
	DB	04aH
	DB	049H
	DB	04aH
	DB	029H
	DB	04aH
	DB	029H
	DB	04aH
	DB	049H
	DB	04aH
	DB	049H
	DB	04aH
	DB	029H
	DB	04aH
	DB	029H
	DB	04aH
	DB	049H
	DB	04aH
	DB	049H
	DB	04aH
	DB	029H
	DB	04aH
	DB	029H
	DB	04aH
	DB	049H
	DB	04aH
	DB	049H
	DB	04aH
	DB	029H
	DB	04aH
	DB	029H
	DB	04aH
	DB	049H
	DB	04aH
	DB	049H
	DB	04aH
	DB	029H
	DB	04aH
	DB	029H
	DB	04aH
	DB	049H
	DB	04aH
	DB	049H
	DB	04aH
	DB	029H
	DB	04aH
	DB	029H
	DB	04aH
	DB	049H
	DB	04aH
	DB	049H
	DB	04aH
	DB	029H
	DB	04aH
	DB	029H
	DB	04aH
	DB	049H
	DB	04aH
	DB	049H
	DB	04aH
	DB	029H
	DB	04aH
	DB	029H
	DB	04aH
	DB	049H
	DB	04aH
	DB	049H
	DB	04aH
	DB	029H
	DB	04aH
	DB	029H
	DB	04aH
	DB	049H
	DB	04aH
	DB	049H
	DB	04aH
	DB	029H
	DB	04aH
	DB	029H
	DB	04aH
	DB	049H
	DB	04aH
	DB	049H
	DB	04aH
	DB	029H
	DB	04aH
	DB	029H
	DB	04aH
	DB	049H
	DB	04aH
	DB	049H
	DB	04aH
	DB	029H
	DB	04aH
	DB	029H
	DB	04aH
	DB	049H
	DB	04aH
	DB	049H
	DB	04aH
	DB	029H
	DB	04aH
	DB	029H
	DB	04aH
	DB	049H
	DB	04aH
	DB	049H
	DB	04aH
	DB	029H
	DB	04aH
	DB	029H
	DB	04aH
	DB	049H
	DB	04aH
	DB	049H
	DB	04aH
	DB	029H
	DB	04aH
	DB	029H
	DB	04aH
	DB	049H
	DB	04aH
	DB	049H
	DB	04aH
	DB	029H
	DB	04aH
	DB	029H
	DB	04aH
	DB	049H
	DB	04aH
	DB	049H
	DB	04aH
	DB	029H
	DB	04aH
	DB	029H
	DB	04aH
	DB	049H
	DB	04aH
	DB	049H
	DB	04aH
	DB	029H
	DB	04aH
	DB	029H
	DB	04aH
	DB	049H
	DB	04aH
	DB	049H
	DB	04aH
	DB	029H
	DB	04aH
	DB	049H
	DB	04aH
	DB	049H
	DB	04aH
	DB	029H
	DB	04aH
	DB	049H
	DB	04aH
	DB	049H
	DB	04aH
	DB	0efH
	DB	07bH
	DB	0efH
	DB	07bH
	DB	049H
	DB	04aH
	DB	049H
	DB	04aH
	DB	049H
	DB	04aH
	DB	029H
	DB	04aH
	DB	049H
	DB	04aH
	DB	049H
	DB	04aH
	DB	049H
	DB	04aH
	DB	049H
	DB	04aH
	DB	049H
	DB	04aH
	DB	048H
	DB	04aH
	DB	049H
	DB	04aH
	DB	029H
	DB	04aH
	DB	049H
	DB	04aH
	DB	049H
	DB	04aH
	DB	049H
	DB	04aH
	DB	048H
	DB	04aH
	DB	029H
	DB	04aH
	DB	049H
	DB	04aH
	DB	049H
	DB	04aH
	DB	049H
	DB	04aH
	DB	049H
	DB	04aH
	DB	048H
	DB	04aH
	DB	049H
	DB	04aH
	DB	029H
	DB	04aH
	DB	049H
	DB	04aH
	DB	049H
	DB	04aH
	DB	049H
	DB	04aH
	DB	048H
	DB	04aH
	DB	029H
	DB	04aH
	DB	049H
	DB	04aH
	DB	049H
	DB	04aH
	DB	049H
	DB	04aH
	DB	049H
	DB	04aH
	DB	048H
	DB	04aH
	DB	049H
	DB	04aH
	DB	029H
	DB	04aH
	DB	049H
	DB	04aH
	DB	049H
	DB	04aH
	DB	049H
	DB	04aH
	DB	048H
	DB	04aH
	DB	029H
	DB	04aH
	DB	049H
	DB	04aH
	DB	049H
	DB	04aH
	DB	049H
	DB	04aH
	DB	049H
	DB	04aH
	DB	048H
	DB	04aH
	DB	049H
	DB	04aH
	DB	029H
	DB	04aH
	DB	049H
	DB	04aH
	DB	049H
	DB	04aH
	DB	049H
	DB	04aH
	DB	048H
	DB	04aH
	DB	029H
	DB	04aH
	DB	049H
	DB	04aH
	DB	049H
	DB	04aH
	DB	049H
	DB	04aH
	DB	049H
	DB	04aH
	DB	048H
	DB	04aH
	DB	049H
	DB	04aH
	DB	029H
	DB	04aH
	DB	049H
	DB	04aH
	DB	049H
	DB	04aH
	DB	049H
	DB	04aH
	DB	048H
	DB	04aH
	DB	029H
	DB	04aH
	DB	049H
	DB	04aH
	DB	049H
	DB	04aH
	DB	049H
	DB	04aH
	DB	049H
	DB	04aH
	DB	048H
	DB	04aH
	DB	049H
	DB	04aH
	DB	029H
	DB	04aH
	DB	049H
	DB	04aH
	DB	049H
	DB	04aH
	DB	049H
	DB	04aH
	DB	048H
	DB	04aH
	DB	029H
	DB	04aH
	DB	049H
	DB	04aH
	DB	049H
	DB	04aH
	DB	049H
	DB	04aH
	DB	049H
	DB	04aH
	DB	048H
	DB	04aH
	DB	049H
	DB	04aH
	DB	029H
	DB	04aH
	DB	049H
	DB	04aH
	DB	049H
	DB	04aH
	DB	049H
	DB	04aH
	DB	048H
	DB	04aH
	DB	029H
	DB	04aH
	DB	049H
	DB	04aH
	DB	049H
	DB	04aH
	DB	049H
	DB	04aH
	DB	049H
	DB	04aH
	DB	048H
	DB	04aH
	DB	049H
	DB	04aH
	DB	029H
	DB	04aH
	DB	049H
	DB	04aH
	DB	049H
	DB	04aH
	DB	049H
	DB	04aH
	DB	048H
	DB	04aH
	DB	029H
	DB	04aH
	DB	049H
	DB	04aH
	DB	049H
	DB	04aH
	DB	049H
	DB	04aH
	DB	049H
	DB	04aH
	DB	048H
	DB	04aH
	DB	049H
	DB	04aH
	DB	029H
	DB	04aH
	DB	049H
	DB	04aH
	DB	049H
	DB	04aH
	DB	049H
	DB	04aH
	DB	048H
	DB	04aH
	DB	029H
	DB	04aH
	DB	049H
	DB	04aH
	DB	049H
	DB	04aH
	DB	049H
	DB	04aH
	DB	049H
	DB	04aH
	DB	048H
	DB	04aH
	DB	049H
	DB	04aH
	DB	029H
	DB	04aH
	DB	049H
	DB	04aH
	DB	049H
	DB	04aH
	DB	049H
	DB	04aH
	DB	048H
	DB	04aH
	DB	029H
	DB	04aH
	DB	049H
	DB	04aH
	DB	049H
	DB	04aH
	DB	049H
	DB	04aH
	DB	049H
	DB	04aH
	DB	048H
	DB	04aH
	DB	049H
	DB	04aH
	DB	029H
	DB	04aH
	DB	049H
	DB	04aH
	DB	049H
	DB	04aH
	DB	049H
	DB	04aH
	DB	048H
	DB	04aH
	DB	029H
	DB	04aH
	DB	049H
	DB	04aH
	DB	049H
	DB	04aH
	DB	049H
	DB	04aH
	DB	049H
	DB	04aH
	DB	048H
	DB	04aH
	DB	049H
	DB	04aH
	DB	029H
	DB	04aH
	DB	049H
	DB	04aH
	DB	049H
	DB	04aH
	DB	049H
	DB	04aH
	DB	048H
	DB	04aH
	DB	029H
	DB	04aH
	DB	049H
	DB	04aH
	DB	049H
	DB	04aH
	DB	049H
	DB	04aH
	DB	049H
	DB	04aH
	DB	048H
	DB	04aH
	DB	049H
	DB	04aH
	DB	049H
	DB	04aH
	DB	029H
	DB	04aH
	DB	049H
	DB	04aH
	DB	049H
	DB	04aH
	DB	049H
	DB	04aH
	DB	049H
	DB	04aH
	DB	049H
	DB	04aH
	DB	049H
	DB	04aH
	DB	0cfH
	DB	07bH
	DB	0cfH
	DB	07bH
	DB	049H
	DB	04aH
	DB	049H
	DB	04aH
	DB	049H
	DB	04aH
	DB	049H
	DB	04aH
	DB	049H
	DB	04aH
	DB	048H
	DB	04aH
	DB	029H
	DB	04aH
	DB	049H
	DB	04aH
	DB	029H
	DB	04aH
	DB	049H
	DB	04aH
	DB	049H
	DB	04aH
	DB	049H
	DB	04aH
	DB	048H
	DB	04aH
	DB	049H
	DB	04aH
	DB	049H
	DB	04aH
	DB	029H
	DB	04aH
	DB	049H
	DB	04aH
	DB	049H
	DB	04aH
	DB	048H
	DB	04aH
	DB	029H
	DB	04aH
	DB	049H
	DB	04aH
	DB	049H
	DB	04aH
	DB	049H
	DB	04aH
	DB	049H
	DB	04aH
	DB	048H
	DB	04aH
	DB	049H
	DB	04aH
	DB	049H
	DB	04aH
	DB	029H
	DB	04aH
	DB	049H
	DB	04aH
	DB	049H
	DB	04aH
	DB	048H
	DB	04aH
	DB	029H
	DB	04aH
	DB	049H
	DB	04aH
	DB	049H
	DB	04aH
	DB	049H
	DB	04aH
	DB	049H
	DB	04aH
	DB	048H
	DB	04aH
	DB	049H
	DB	04aH
	DB	049H
	DB	04aH
	DB	029H
	DB	04aH
	DB	049H
	DB	04aH
	DB	049H
	DB	04aH
	DB	048H
	DB	04aH
	DB	029H
	DB	04aH
	DB	049H
	DB	04aH
	DB	049H
	DB	04aH
	DB	049H
	DB	04aH
	DB	049H
	DB	04aH
	DB	048H
	DB	04aH
	DB	049H
	DB	04aH
	DB	049H
	DB	04aH
	DB	029H
	DB	04aH
	DB	049H
	DB	04aH
	DB	049H
	DB	04aH
	DB	048H
	DB	04aH
	DB	029H
	DB	04aH
	DB	049H
	DB	04aH
	DB	049H
	DB	04aH
	DB	049H
	DB	04aH
	DB	049H
	DB	04aH
	DB	048H
	DB	04aH
	DB	049H
	DB	04aH
	DB	049H
	DB	04aH
	DB	029H
	DB	04aH
	DB	049H
	DB	04aH
	DB	049H
	DB	04aH
	DB	048H
	DB	04aH
	DB	029H
	DB	04aH
	DB	049H
	DB	04aH
	DB	049H
	DB	04aH
	DB	049H
	DB	04aH
	DB	049H
	DB	04aH
	DB	048H
	DB	04aH
	DB	049H
	DB	04aH
	DB	049H
	DB	04aH
	DB	029H
	DB	04aH
	DB	049H
	DB	04aH
	DB	049H
	DB	04aH
	DB	048H
	DB	04aH
	DB	029H
	DB	04aH
	DB	049H
	DB	04aH
	DB	049H
	DB	04aH
	DB	049H
	DB	04aH
	DB	049H
	DB	04aH
	DB	048H
	DB	04aH
	DB	049H
	DB	04aH
	DB	049H
	DB	04aH
	DB	029H
	DB	04aH
	DB	049H
	DB	04aH
	DB	049H
	DB	04aH
	DB	048H
	DB	04aH
	DB	029H
	DB	04aH
	DB	049H
	DB	04aH
	DB	049H
	DB	04aH
	DB	049H
	DB	04aH
	DB	049H
	DB	04aH
	DB	048H
	DB	04aH
	DB	049H
	DB	04aH
	DB	049H
	DB	04aH
	DB	029H
	DB	04aH
	DB	049H
	DB	04aH
	DB	049H
	DB	04aH
	DB	048H
	DB	04aH
	DB	029H
	DB	04aH
	DB	049H
	DB	04aH
	DB	049H
	DB	04aH
	DB	049H
	DB	04aH
	DB	049H
	DB	04aH
	DB	048H
	DB	04aH
	DB	049H
	DB	04aH
	DB	049H
	DB	04aH
	DB	029H
	DB	04aH
	DB	049H
	DB	04aH
	DB	049H
	DB	04aH
	DB	048H
	DB	04aH
	DB	029H
	DB	04aH
	DB	049H
	DB	04aH
	DB	049H
	DB	04aH
	DB	049H
	DB	04aH
	DB	049H
	DB	04aH
	DB	048H
	DB	04aH
	DB	049H
	DB	04aH
	DB	049H
	DB	04aH
	DB	029H
	DB	04aH
	DB	049H
	DB	04aH
	DB	049H
	DB	04aH
	DB	048H
	DB	04aH
	DB	029H
	DB	04aH
	DB	049H
	DB	04aH
	DB	049H
	DB	04aH
	DB	049H
	DB	04aH
	DB	049H
	DB	04aH
	DB	048H
	DB	04aH
	DB	049H
	DB	04aH
	DB	049H
	DB	04aH
	DB	029H
	DB	04aH
	DB	049H
	DB	04aH
	DB	049H
	DB	04aH
	DB	048H
	DB	04aH
	DB	029H
	DB	04aH
	DB	049H
	DB	04aH
	DB	049H
	DB	04aH
	DB	049H
	DB	04aH
	DB	049H
	DB	04aH
	DB	048H
	DB	04aH
	DB	049H
	DB	04aH
	DB	049H
	DB	04aH
	DB	029H
	DB	04aH
	DB	049H
	DB	04aH
	DB	049H
	DB	04aH
	DB	048H
	DB	04aH
	DB	029H
	DB	04aH
	DB	049H
	DB	04aH
	DB	049H
	DB	04aH
	DB	029H
	DB	04aH
	DB	049H
	DB	04aH
	DB	048H
	DB	04aH
	DB	049H
	DB	04aH
	DB	029H
	DB	04aH
	DB	048H
	DB	04aH
	DB	049H
	DB	04aH
	DB	029H
	DB	04aH
	DB	049H
	DB	04aH
	DB	0efH
	DB	07bH
	DB	0efH
	DB	07bH
	DB	049H
	DB	04aH
	DB	029H
	DB	04aH
	DB	049H
	DB	04aH
	DB	049H
	DB	04aH
	DB	029H
	DB	04aH
	DB	049H
	DB	04aH
	DB	049H
	DB	042H
	DB	029H
	DB	04aH
	DB	048H
	DB	04aH
	DB	049H
	DB	042H
	DB	029H
	DB	04aH
	DB	049H
	DB	04aH
	DB	029H
	DB	042H
	DB	049H
	DB	04aH
	DB	049H
	DB	04aH
	DB	029H
	DB	042H
	DB	049H
	DB	04aH
	DB	049H
	DB	04aH
	DB	029H
	DB	042H
	DB	049H
	DB	04aH
	DB	029H
	DB	04aH
	DB	029H
	DB	042H
	DB	049H
	DB	04aH
	DB	029H
	DB	04aH
	DB	029H
	DB	042H
	DB	049H
	DB	04aH
	DB	049H
	DB	04aH
	DB	049H
	DB	042H
	DB	049H
	DB	04aH
	DB	049H
	DB	04aH
	DB	029H
	DB	042H
	DB	049H
	DB	04aH
	DB	029H
	DB	04aH
	DB	029H
	DB	042H
	DB	049H
	DB	04aH
	DB	029H
	DB	04aH
	DB	029H
	DB	042H
	DB	049H
	DB	04aH
	DB	049H
	DB	04aH
	DB	049H
	DB	042H
	DB	049H
	DB	04aH
	DB	049H
	DB	04aH
	DB	029H
	DB	042H
	DB	049H
	DB	04aH
	DB	029H
	DB	04aH
	DB	029H
	DB	042H
	DB	049H
	DB	04aH
	DB	029H
	DB	04aH
	DB	029H
	DB	042H
	DB	049H
	DB	04aH
	DB	049H
	DB	04aH
	DB	049H
	DB	042H
	DB	049H
	DB	04aH
	DB	049H
	DB	04aH
	DB	029H
	DB	042H
	DB	049H
	DB	04aH
	DB	029H
	DB	04aH
	DB	029H
	DB	042H
	DB	049H
	DB	04aH
	DB	029H
	DB	04aH
	DB	029H
	DB	042H
	DB	049H
	DB	04aH
	DB	049H
	DB	04aH
	DB	049H
	DB	042H
	DB	049H
	DB	04aH
	DB	049H
	DB	04aH
	DB	029H
	DB	042H
	DB	049H
	DB	04aH
	DB	029H
	DB	04aH
	DB	029H
	DB	042H
	DB	049H
	DB	04aH
	DB	029H
	DB	04aH
	DB	029H
	DB	042H
	DB	049H
	DB	04aH
	DB	049H
	DB	04aH
	DB	049H
	DB	042H
	DB	049H
	DB	04aH
	DB	049H
	DB	04aH
	DB	029H
	DB	042H
	DB	049H
	DB	04aH
	DB	029H
	DB	04aH
	DB	029H
	DB	042H
	DB	049H
	DB	04aH
	DB	029H
	DB	04aH
	DB	029H
	DB	042H
	DB	049H
	DB	04aH
	DB	049H
	DB	04aH
	DB	049H
	DB	042H
	DB	049H
	DB	04aH
	DB	049H
	DB	04aH
	DB	029H
	DB	042H
	DB	049H
	DB	04aH
	DB	029H
	DB	04aH
	DB	029H
	DB	042H
	DB	049H
	DB	04aH
	DB	029H
	DB	04aH
	DB	029H
	DB	042H
	DB	049H
	DB	04aH
	DB	049H
	DB	04aH
	DB	049H
	DB	042H
	DB	049H
	DB	04aH
	DB	049H
	DB	04aH
	DB	029H
	DB	042H
	DB	049H
	DB	04aH
	DB	029H
	DB	04aH
	DB	029H
	DB	042H
	DB	049H
	DB	04aH
	DB	029H
	DB	04aH
	DB	029H
	DB	042H
	DB	049H
	DB	04aH
	DB	049H
	DB	04aH
	DB	049H
	DB	042H
	DB	049H
	DB	04aH
	DB	049H
	DB	04aH
	DB	029H
	DB	042H
	DB	049H
	DB	04aH
	DB	029H
	DB	04aH
	DB	029H
	DB	042H
	DB	049H
	DB	04aH
	DB	029H
	DB	04aH
	DB	029H
	DB	042H
	DB	049H
	DB	04aH
	DB	049H
	DB	04aH
	DB	049H
	DB	042H
	DB	049H
	DB	04aH
	DB	049H
	DB	04aH
	DB	029H
	DB	042H
	DB	049H
	DB	04aH
	DB	029H
	DB	04aH
	DB	029H
	DB	042H
	DB	049H
	DB	04aH
	DB	029H
	DB	04aH
	DB	029H
	DB	042H
	DB	049H
	DB	04aH
	DB	049H
	DB	04aH
	DB	049H
	DB	042H
	DB	049H
	DB	04aH
	DB	049H
	DB	04aH
	DB	029H
	DB	042H
	DB	049H
	DB	04aH
	DB	029H
	DB	04aH
	DB	029H
	DB	042H
	DB	049H
	DB	04aH
	DB	029H
	DB	04aH
	DB	029H
	DB	042H
	DB	049H
	DB	04aH
	DB	049H
	DB	04aH
	DB	049H
	DB	042H
	DB	049H
	DB	04aH
	DB	049H
	DB	04aH
	DB	029H
	DB	042H
	DB	049H
	DB	04aH
	DB	049H
	DB	04aH
	DB	029H
	DB	042H
	DB	049H
	DB	04aH
	DB	049H
	DB	04aH
	DB	049H
	DB	042H
	DB	029H
	DB	04aH
	DB	049H
	DB	04aH
	DB	049H
	DB	04aH
	DB	029H
	DB	04aH
	DB	049H
	DB	04aH
	DB	049H
	DB	04aH
	DB	0efH
	DB	07bH
	DB	0efH
	DB	07bH
	DB	049H
	DB	04aH
	DB	049H
	DB	04aH
	DB	049H
	DB	04aH
	DB	029H
	DB	04aH
	DB	049H
	DB	04aH
	DB	049H
	DB	04aH
	DB	049H
	DB	04aH
	DB	049H
	DB	04aH
	DB	049H
	DB	04aH
	DB	049H
	DB	04aH
	DB	049H
	DB	04aH
	DB	029H
	DB	04aH
	DB	049H
	DB	04aH
	DB	049H
	DB	04aH
	DB	048H
	DB	04aH
	DB	049H
	DB	04aH
	DB	049H
	DB	04aH
	DB	048H
	DB	04aH
	DB	049H
	DB	04aH
	DB	049H
	DB	04aH
	DB	048H
	DB	04aH
	DB	049H
	DB	04aH
	DB	049H
	DB	04aH
	DB	048H
	DB	04aH
	DB	049H
	DB	04aH
	DB	029H
	DB	04aH
	DB	048H
	DB	04aH
	DB	029H
	DB	04aH
	DB	049H
	DB	04aH
	DB	048H
	DB	04aH
	DB	049H
	DB	04aH
	DB	049H
	DB	04aH
	DB	048H
	DB	04aH
	DB	049H
	DB	04aH
	DB	049H
	DB	04aH
	DB	048H
	DB	04aH
	DB	049H
	DB	04aH
	DB	029H
	DB	04aH
	DB	048H
	DB	04aH
	DB	029H
	DB	04aH
	DB	049H
	DB	04aH
	DB	048H
	DB	04aH
	DB	049H
	DB	04aH
	DB	049H
	DB	04aH
	DB	048H
	DB	04aH
	DB	049H
	DB	04aH
	DB	049H
	DB	04aH
	DB	048H
	DB	04aH
	DB	049H
	DB	04aH
	DB	029H
	DB	04aH
	DB	048H
	DB	04aH
	DB	029H
	DB	04aH
	DB	049H
	DB	04aH
	DB	048H
	DB	04aH
	DB	049H
	DB	04aH
	DB	049H
	DB	04aH
	DB	048H
	DB	04aH
	DB	049H
	DB	04aH
	DB	049H
	DB	04aH
	DB	048H
	DB	04aH
	DB	049H
	DB	04aH
	DB	029H
	DB	04aH
	DB	048H
	DB	04aH
	DB	029H
	DB	04aH
	DB	049H
	DB	04aH
	DB	048H
	DB	04aH
	DB	049H
	DB	04aH
	DB	049H
	DB	04aH
	DB	048H
	DB	04aH
	DB	049H
	DB	04aH
	DB	049H
	DB	04aH
	DB	048H
	DB	04aH
	DB	049H
	DB	04aH
	DB	029H
	DB	04aH
	DB	048H
	DB	04aH
	DB	029H
	DB	04aH
	DB	049H
	DB	04aH
	DB	048H
	DB	04aH
	DB	049H
	DB	04aH
	DB	049H
	DB	04aH
	DB	048H
	DB	04aH
	DB	049H
	DB	04aH
	DB	049H
	DB	04aH
	DB	048H
	DB	04aH
	DB	049H
	DB	04aH
	DB	029H
	DB	04aH
	DB	048H
	DB	04aH
	DB	029H
	DB	04aH
	DB	049H
	DB	04aH
	DB	048H
	DB	04aH
	DB	049H
	DB	04aH
	DB	049H
	DB	04aH
	DB	048H
	DB	04aH
	DB	049H
	DB	04aH
	DB	049H
	DB	04aH
	DB	048H
	DB	04aH
	DB	049H
	DB	04aH
	DB	029H
	DB	04aH
	DB	048H
	DB	04aH
	DB	029H
	DB	04aH
	DB	049H
	DB	04aH
	DB	048H
	DB	04aH
	DB	049H
	DB	04aH
	DB	049H
	DB	04aH
	DB	048H
	DB	04aH
	DB	049H
	DB	04aH
	DB	049H
	DB	04aH
	DB	048H
	DB	04aH
	DB	049H
	DB	04aH
	DB	029H
	DB	04aH
	DB	048H
	DB	04aH
	DB	029H
	DB	04aH
	DB	049H
	DB	04aH
	DB	048H
	DB	04aH
	DB	049H
	DB	04aH
	DB	049H
	DB	04aH
	DB	048H
	DB	04aH
	DB	049H
	DB	04aH
	DB	049H
	DB	04aH
	DB	048H
	DB	04aH
	DB	049H
	DB	04aH
	DB	029H
	DB	04aH
	DB	048H
	DB	04aH
	DB	029H
	DB	04aH
	DB	049H
	DB	04aH
	DB	048H
	DB	04aH
	DB	049H
	DB	04aH
	DB	049H
	DB	04aH
	DB	048H
	DB	04aH
	DB	049H
	DB	04aH
	DB	049H
	DB	04aH
	DB	048H
	DB	04aH
	DB	049H
	DB	04aH
	DB	029H
	DB	04aH
	DB	048H
	DB	04aH
	DB	029H
	DB	04aH
	DB	049H
	DB	04aH
	DB	048H
	DB	04aH
	DB	049H
	DB	04aH
	DB	049H
	DB	04aH
	DB	048H
	DB	04aH
	DB	049H
	DB	04aH
	DB	049H
	DB	04aH
	DB	048H
	DB	04aH
	DB	049H
	DB	04aH
	DB	029H
	DB	04aH
	DB	048H
	DB	04aH
	DB	029H
	DB	04aH
	DB	049H
	DB	04aH
	DB	048H
	DB	04aH
	DB	029H
	DB	04aH
	DB	049H
	DB	04aH
	DB	048H
	DB	04aH
	DB	049H
	DB	04aH
	DB	029H
	DB	04aH
	DB	048H
	DB	04aH
	DB	049H
	DB	04aH
	DB	049H
	DB	04aH
	DB	049H
	DB	04aH
	DB	049H
	DB	042H
	DB	049H
	DB	04aH
	DB	049H
	DB	04aH
	DB	049H
	DB	04aH
	DB	0efH
	DB	07bH
	DB	0efH
	DB	07bH
	DB	049H
	DB	04aH
	DB	049H
	DB	04aH
	DB	049H
	DB	04aH
	DB	029H
	DB	04aH
	DB	048H
	DB	042H
	DB	049H
	DB	04aH
	DB	029H
	DB	04aH
	DB	048H
	DB	04aH
	DB	029H
	DB	04aH
	DB	049H
	DB	04aH
	DB	048H
	DB	04aH
	DB	049H
	DB	04aH
	DB	049H
	DB	04aH
	DB	029H
	DB	04aH
	DB	029H
	DB	04aH
	DB	049H
	DB	04aH
	DB	049H
	DB	04aH
	DB	029H
	DB	04aH
	DB	049H
	DB	04aH
	DB	049H
	DB	04aH
	DB	049H
	DB	04aH
	DB	049H
	DB	04aH
	DB	029H
	DB	04aH
	DB	049H
	DB	04aH
	DB	049H
	DB	04aH
	DB	049H
	DB	04aH
	DB	049H
	DB	04aH
	DB	029H
	DB	04aH
	DB	049H
	DB	04aH
	DB	049H
	DB	04aH
	DB	029H
	DB	04aH
	DB	049H
	DB	04aH
	DB	049H
	DB	04aH
	DB	049H
	DB	04aH
	DB	049H
	DB	04aH
	DB	049H
	DB	04aH
	DB	049H
	DB	04aH
	DB	049H
	DB	04aH
	DB	049H
	DB	04aH
	DB	029H
	DB	04aH
	DB	049H
	DB	04aH
	DB	049H
	DB	04aH
	DB	029H
	DB	04aH
	DB	049H
	DB	04aH
	DB	049H
	DB	04aH
	DB	049H
	DB	04aH
	DB	049H
	DB	04aH
	DB	049H
	DB	04aH
	DB	049H
	DB	04aH
	DB	049H
	DB	04aH
	DB	049H
	DB	04aH
	DB	029H
	DB	04aH
	DB	049H
	DB	04aH
	DB	049H
	DB	04aH
	DB	029H
	DB	04aH
	DB	049H
	DB	04aH
	DB	049H
	DB	04aH
	DB	049H
	DB	04aH
	DB	049H
	DB	04aH
	DB	049H
	DB	04aH
	DB	049H
	DB	04aH
	DB	049H
	DB	04aH
	DB	049H
	DB	04aH
	DB	029H
	DB	04aH
	DB	049H
	DB	04aH
	DB	049H
	DB	04aH
	DB	029H
	DB	04aH
	DB	049H
	DB	04aH
	DB	049H
	DB	04aH
	DB	049H
	DB	04aH
	DB	049H
	DB	04aH
	DB	049H
	DB	04aH
	DB	049H
	DB	04aH
	DB	049H
	DB	04aH
	DB	049H
	DB	04aH
	DB	029H
	DB	04aH
	DB	049H
	DB	04aH
	DB	049H
	DB	04aH
	DB	029H
	DB	04aH
	DB	049H
	DB	04aH
	DB	049H
	DB	04aH
	DB	049H
	DB	04aH
	DB	049H
	DB	04aH
	DB	049H
	DB	04aH
	DB	049H
	DB	04aH
	DB	049H
	DB	04aH
	DB	049H
	DB	04aH
	DB	029H
	DB	04aH
	DB	049H
	DB	04aH
	DB	049H
	DB	04aH
	DB	029H
	DB	04aH
	DB	049H
	DB	04aH
	DB	049H
	DB	04aH
	DB	049H
	DB	04aH
	DB	049H
	DB	04aH
	DB	049H
	DB	04aH
	DB	049H
	DB	04aH
	DB	049H
	DB	04aH
	DB	049H
	DB	04aH
	DB	029H
	DB	04aH
	DB	049H
	DB	04aH
	DB	049H
	DB	04aH
	DB	029H
	DB	04aH
	DB	049H
	DB	04aH
	DB	049H
	DB	04aH
	DB	049H
	DB	04aH
	DB	049H
	DB	04aH
	DB	049H
	DB	04aH
	DB	049H
	DB	04aH
	DB	049H
	DB	04aH
	DB	049H
	DB	04aH
	DB	029H
	DB	04aH
	DB	049H
	DB	04aH
	DB	049H
	DB	04aH
	DB	029H
	DB	04aH
	DB	049H
	DB	04aH
	DB	049H
	DB	04aH
	DB	049H
	DB	04aH
	DB	049H
	DB	04aH
	DB	049H
	DB	04aH
	DB	049H
	DB	04aH
	DB	049H
	DB	04aH
	DB	049H
	DB	04aH
	DB	029H
	DB	04aH
	DB	049H
	DB	04aH
	DB	049H
	DB	04aH
	DB	029H
	DB	04aH
	DB	049H
	DB	04aH
	DB	049H
	DB	04aH
	DB	049H
	DB	04aH
	DB	049H
	DB	04aH
	DB	049H
	DB	04aH
	DB	049H
	DB	04aH
	DB	049H
	DB	04aH
	DB	049H
	DB	04aH
	DB	029H
	DB	04aH
	DB	049H
	DB	04aH
	DB	049H
	DB	04aH
	DB	029H
	DB	04aH
	DB	049H
	DB	04aH
	DB	049H
	DB	04aH
	DB	049H
	DB	04aH
	DB	049H
	DB	04aH
	DB	049H
	DB	04aH
	DB	049H
	DB	04aH
	DB	049H
	DB	04aH
	DB	049H
	DB	04aH
	DB	029H
	DB	04aH
	DB	049H
	DB	04aH
	DB	049H
	DB	04aH
	DB	049H
	DB	04aH
	DB	049H
	DB	04aH
	DB	049H
	DB	04aH
	DB	029H
	DB	04aH
	DB	049H
	DB	04aH
	DB	049H
	DB	04aH
	DB	029H
	DB	04aH
	DB	049H
	DB	04aH
	DB	028H
	DB	04aH
	DB	049H
	DB	04aH
	DB	049H
	DB	04aH
	DB	029H
	DB	04aH
	DB	049H
	DB	04aH
	DB	0efH
	DB	07bH
	DB	0efH
	DB	07bH
	DB	049H
	DB	04aH
	DB	029H
	DB	04aH
	DB	049H
	DB	04aH
	DB	049H
	DB	04aH
	DB	049H
	DB	04aH
	DB	029H
	DB	04aH
	DB	049H
	DB	04aH
	DB	049H
	DB	042H
	DB	049H
	DB	04aH
	DB	029H
	DB	04aH
	DB	049H
	DB	042H
	DB	049H
	DB	04aH
	DB	049H
	DB	04aH
	DB	048H
	DB	042H
	DB	049H
	DB	04aH
	DB	049H
	DB	04aH
	DB	029H
	DB	042H
	DB	049H
	DB	04aH
	DB	029H
	DB	04aH
	DB	049H
	DB	042H
	DB	029H
	DB	04aH
	DB	049H
	DB	04aH
	DB	049H
	DB	042H
	DB	029H
	DB	04aH
	DB	049H
	DB	04aH
	DB	049H
	DB	042H
	DB	049H
	DB	04aH
	DB	049H
	DB	04aH
	DB	049H
	DB	042H
	DB	029H
	DB	04aH
	DB	049H
	DB	04aH
	DB	049H
	DB	042H
	DB	029H
	DB	04aH
	DB	029H
	DB	04aH
	DB	049H
	DB	042H
	DB	029H
	DB	04aH
	DB	029H
	DB	04aH
	DB	049H
	DB	042H
	DB	049H
	DB	04aH
	DB	049H
	DB	04aH
	DB	049H
	DB	042H
	DB	029H
	DB	04aH
	DB	049H
	DB	04aH
	DB	049H
	DB	042H
	DB	029H
	DB	04aH
	DB	029H
	DB	04aH
	DB	049H
	DB	042H
	DB	029H
	DB	04aH
	DB	029H
	DB	04aH
	DB	049H
	DB	042H
	DB	049H
	DB	04aH
	DB	049H
	DB	04aH
	DB	049H
	DB	042H
	DB	029H
	DB	04aH
	DB	049H
	DB	04aH
	DB	049H
	DB	042H
	DB	029H
	DB	04aH
	DB	029H
	DB	04aH
	DB	049H
	DB	042H
	DB	029H
	DB	04aH
	DB	029H
	DB	04aH
	DB	049H
	DB	042H
	DB	049H
	DB	04aH
	DB	049H
	DB	04aH
	DB	049H
	DB	042H
	DB	029H
	DB	04aH
	DB	049H
	DB	04aH
	DB	049H
	DB	042H
	DB	029H
	DB	04aH
	DB	029H
	DB	04aH
	DB	049H
	DB	042H
	DB	029H
	DB	04aH
	DB	029H
	DB	04aH
	DB	049H
	DB	042H
	DB	049H
	DB	04aH
	DB	049H
	DB	04aH
	DB	049H
	DB	042H
	DB	029H
	DB	04aH
	DB	049H
	DB	04aH
	DB	049H
	DB	042H
	DB	029H
	DB	04aH
	DB	029H
	DB	04aH
	DB	049H
	DB	042H
	DB	029H
	DB	04aH
	DB	029H
	DB	04aH
	DB	049H
	DB	042H
	DB	049H
	DB	04aH
	DB	049H
	DB	04aH
	DB	049H
	DB	042H
	DB	029H
	DB	04aH
	DB	049H
	DB	04aH
	DB	049H
	DB	042H
	DB	029H
	DB	04aH
	DB	029H
	DB	04aH
	DB	049H
	DB	042H
	DB	029H
	DB	04aH
	DB	029H
	DB	04aH
	DB	049H
	DB	042H
	DB	049H
	DB	04aH
	DB	049H
	DB	04aH
	DB	049H
	DB	042H
	DB	029H
	DB	04aH
	DB	049H
	DB	04aH
	DB	049H
	DB	042H
	DB	029H
	DB	04aH
	DB	029H
	DB	04aH
	DB	049H
	DB	042H
	DB	029H
	DB	04aH
	DB	029H
	DB	04aH
	DB	049H
	DB	042H
	DB	049H
	DB	04aH
	DB	049H
	DB	04aH
	DB	049H
	DB	042H
	DB	029H
	DB	04aH
	DB	049H
	DB	04aH
	DB	049H
	DB	042H
	DB	029H
	DB	04aH
	DB	029H
	DB	04aH
	DB	049H
	DB	042H
	DB	029H
	DB	04aH
	DB	029H
	DB	04aH
	DB	049H
	DB	042H
	DB	049H
	DB	04aH
	DB	049H
	DB	04aH
	DB	049H
	DB	042H
	DB	029H
	DB	04aH
	DB	049H
	DB	04aH
	DB	049H
	DB	042H
	DB	029H
	DB	04aH
	DB	029H
	DB	04aH
	DB	049H
	DB	042H
	DB	029H
	DB	04aH
	DB	029H
	DB	04aH
	DB	049H
	DB	042H
	DB	049H
	DB	04aH
	DB	049H
	DB	04aH
	DB	049H
	DB	042H
	DB	029H
	DB	04aH
	DB	049H
	DB	04aH
	DB	049H
	DB	042H
	DB	029H
	DB	04aH
	DB	029H
	DB	04aH
	DB	049H
	DB	042H
	DB	029H
	DB	04aH
	DB	029H
	DB	04aH
	DB	049H
	DB	042H
	DB	049H
	DB	04aH
	DB	049H
	DB	04aH
	DB	049H
	DB	042H
	DB	029H
	DB	04aH
	DB	049H
	DB	04aH
	DB	049H
	DB	042H
	DB	029H
	DB	04aH
	DB	049H
	DB	04aH
	DB	049H
	DB	042H
	DB	049H
	DB	04aH
	DB	049H
	DB	04aH
	DB	029H
	DB	042H
	DB	049H
	DB	04aH
	DB	049H
	DB	04aH
	DB	028H
	DB	04aH
	DB	049H
	DB	04aH
	DB	049H
	DB	04aH
	DB	0efH
	DB	07bH
	DB	0efH
	DB	07bH
	DB	049H
	DB	04aH
	DB	049H
	DB	04aH
	DB	029H
	DB	04aH
	DB	049H
	DB	04aH
	DB	049H
	DB	04aH
	DB	049H
	DB	04aH
	DB	049H
	DB	04aH
	DB	049H
	DB	04aH
	DB	049H
	DB	04aH
	DB	029H
	DB	04aH
	DB	049H
	DB	04aH
	DB	029H
	DB	04aH
	DB	029H
	DB	04aH
	DB	049H
	DB	04aH
	DB	049H
	DB	04aH
	DB	049H
	DB	04aH
	DB	048H
	DB	04aH
	DB	049H
	DB	04aH
	DB	049H
	DB	04aH
	DB	048H
	DB	04aH
	DB	049H
	DB	04aH
	DB	049H
	DB	04aH
	DB	048H
	DB	04aH
	DB	049H
	DB	04aH
	DB	029H
	DB	04aH
	DB	048H
	DB	04aH
	DB	029H
	DB	04aH
	DB	049H
	DB	04aH
	DB	048H
	DB	04aH
	DB	049H
	DB	04aH
	DB	049H
	DB	04aH
	DB	048H
	DB	04aH
	DB	049H
	DB	04aH
	DB	049H
	DB	04aH
	DB	048H
	DB	04aH
	DB	049H
	DB	04aH
	DB	049H
	DB	04aH
	DB	048H
	DB	04aH
	DB	029H
	DB	04aH
	DB	049H
	DB	04aH
	DB	048H
	DB	04aH
	DB	049H
	DB	04aH
	DB	049H
	DB	04aH
	DB	048H
	DB	04aH
	DB	049H
	DB	04aH
	DB	049H
	DB	04aH
	DB	048H
	DB	04aH
	DB	049H
	DB	04aH
	DB	049H
	DB	04aH
	DB	048H
	DB	04aH
	DB	029H
	DB	04aH
	DB	049H
	DB	04aH
	DB	048H
	DB	04aH
	DB	049H
	DB	04aH
	DB	049H
	DB	04aH
	DB	048H
	DB	04aH
	DB	049H
	DB	04aH
	DB	049H
	DB	04aH
	DB	048H
	DB	04aH
	DB	049H
	DB	04aH
	DB	049H
	DB	04aH
	DB	048H
	DB	04aH
	DB	029H
	DB	04aH
	DB	049H
	DB	04aH
	DB	048H
	DB	04aH
	DB	049H
	DB	04aH
	DB	049H
	DB	04aH
	DB	048H
	DB	04aH
	DB	049H
	DB	04aH
	DB	049H
	DB	04aH
	DB	048H
	DB	04aH
	DB	049H
	DB	04aH
	DB	049H
	DB	04aH
	DB	048H
	DB	04aH
	DB	029H
	DB	04aH
	DB	049H
	DB	04aH
	DB	048H
	DB	04aH
	DB	049H
	DB	04aH
	DB	049H
	DB	04aH
	DB	048H
	DB	04aH
	DB	049H
	DB	04aH
	DB	049H
	DB	04aH
	DB	048H
	DB	04aH
	DB	049H
	DB	04aH
	DB	049H
	DB	04aH
	DB	048H
	DB	04aH
	DB	029H
	DB	04aH
	DB	049H
	DB	04aH
	DB	048H
	DB	04aH
	DB	049H
	DB	04aH
	DB	049H
	DB	04aH
	DB	048H
	DB	04aH
	DB	049H
	DB	04aH
	DB	049H
	DB	04aH
	DB	048H
	DB	04aH
	DB	049H
	DB	04aH
	DB	049H
	DB	04aH
	DB	048H
	DB	04aH
	DB	029H
	DB	04aH
	DB	049H
	DB	04aH
	DB	048H
	DB	04aH
	DB	049H
	DB	04aH
	DB	049H
	DB	04aH
	DB	048H
	DB	04aH
	DB	049H
	DB	04aH
	DB	049H
	DB	04aH
	DB	048H
	DB	04aH
	DB	049H
	DB	04aH
	DB	049H
	DB	04aH
	DB	048H
	DB	04aH
	DB	029H
	DB	04aH
	DB	049H
	DB	04aH
	DB	048H
	DB	04aH
	DB	049H
	DB	04aH
	DB	049H
	DB	04aH
	DB	048H
	DB	04aH
	DB	049H
	DB	04aH
	DB	049H
	DB	04aH
	DB	048H
	DB	04aH
	DB	049H
	DB	04aH
	DB	049H
	DB	04aH
	DB	048H
	DB	04aH
	DB	029H
	DB	04aH
	DB	049H
	DB	04aH
	DB	048H
	DB	04aH
	DB	049H
	DB	04aH
	DB	049H
	DB	04aH
	DB	048H
	DB	04aH
	DB	049H
	DB	04aH
	DB	049H
	DB	04aH
	DB	048H
	DB	04aH
	DB	049H
	DB	04aH
	DB	049H
	DB	04aH
	DB	048H
	DB	04aH
	DB	029H
	DB	04aH
	DB	049H
	DB	04aH
	DB	048H
	DB	04aH
	DB	049H
	DB	04aH
	DB	049H
	DB	04aH
	DB	048H
	DB	04aH
	DB	049H
	DB	04aH
	DB	049H
	DB	04aH
	DB	048H
	DB	04aH
	DB	049H
	DB	04aH
	DB	049H
	DB	04aH
	DB	048H
	DB	04aH
	DB	029H
	DB	04aH
	DB	049H
	DB	04aH
	DB	048H
	DB	04aH
	DB	029H
	DB	04aH
	DB	049H
	DB	04aH
	DB	048H
	DB	04aH
	DB	029H
	DB	04aH
	DB	049H
	DB	04aH
	DB	048H
	DB	04aH
	DB	029H
	DB	04aH
	DB	049H
	DB	04aH
	DB	048H
	DB	04aH
	DB	049H
	DB	04aH
	DB	049H
	DB	04aH
	DB	049H
	DB	042H
	DB	049H
	DB	04aH
	DB	049H
	DB	04aH
	DB	0cfH
	DB	07bH
	DB	0cfH
	DB	07bH
	DB	049H
	DB	04aH
	DB	049H
	DB	04aH
	DB	049H
	DB	04aH
	DB	029H
	DB	04aH
	DB	048H
	DB	042H
	DB	049H
	DB	04aH
	DB	029H
	DB	04aH
	DB	048H
	DB	04aH
	DB	049H
	DB	04aH
	DB	049H
	DB	04aH
	DB	048H
	DB	04aH
	DB	049H
	DB	04aH
	DB	049H
	DB	04aH
	DB	029H
	DB	04aH
	DB	049H
	DB	04aH
	DB	029H
	DB	04aH
	DB	049H
	DB	04aH
	DB	049H
	DB	04aH
	DB	029H
	DB	04aH
	DB	049H
	DB	04aH
	DB	029H
	DB	04aH
	DB	049H
	DB	04aH
	DB	049H
	DB	04aH
	DB	029H
	DB	04aH
	DB	049H
	DB	04aH
	DB	049H
	DB	04aH
	DB	049H
	DB	04aH
	DB	029H
	DB	04aH
	DB	049H
	DB	04aH
	DB	029H
	DB	04aH
	DB	029H
	DB	04aH
	DB	049H
	DB	04aH
	DB	049H
	DB	04aH
	DB	029H
	DB	04aH
	DB	049H
	DB	04aH
	DB	049H
	DB	04aH
	DB	049H
	DB	04aH
	DB	029H
	DB	04aH
	DB	049H
	DB	04aH
	DB	049H
	DB	04aH
	DB	029H
	DB	04aH
	DB	049H
	DB	04aH
	DB	029H
	DB	04aH
	DB	049H
	DB	04aH
	DB	049H
	DB	04aH
	DB	029H
	DB	04aH
	DB	049H
	DB	04aH
	DB	049H
	DB	04aH
	DB	049H
	DB	04aH
	DB	029H
	DB	04aH
	DB	049H
	DB	04aH
	DB	049H
	DB	04aH
	DB	029H
	DB	04aH
	DB	049H
	DB	04aH
	DB	029H
	DB	04aH
	DB	049H
	DB	04aH
	DB	049H
	DB	04aH
	DB	029H
	DB	04aH
	DB	049H
	DB	04aH
	DB	049H
	DB	04aH
	DB	049H
	DB	04aH
	DB	029H
	DB	04aH
	DB	049H
	DB	04aH
	DB	049H
	DB	04aH
	DB	029H
	DB	04aH
	DB	049H
	DB	04aH
	DB	029H
	DB	04aH
	DB	049H
	DB	04aH
	DB	049H
	DB	04aH
	DB	029H
	DB	04aH
	DB	049H
	DB	04aH
	DB	049H
	DB	04aH
	DB	049H
	DB	04aH
	DB	029H
	DB	04aH
	DB	049H
	DB	04aH
	DB	049H
	DB	04aH
	DB	029H
	DB	04aH
	DB	049H
	DB	04aH
	DB	029H
	DB	04aH
	DB	049H
	DB	04aH
	DB	049H
	DB	04aH
	DB	029H
	DB	04aH
	DB	049H
	DB	04aH
	DB	049H
	DB	04aH
	DB	049H
	DB	04aH
	DB	029H
	DB	04aH
	DB	049H
	DB	04aH
	DB	049H
	DB	04aH
	DB	029H
	DB	04aH
	DB	049H
	DB	04aH
	DB	029H
	DB	04aH
	DB	049H
	DB	04aH
	DB	049H
	DB	04aH
	DB	029H
	DB	04aH
	DB	049H
	DB	04aH
	DB	049H
	DB	04aH
	DB	049H
	DB	04aH
	DB	029H
	DB	04aH
	DB	049H
	DB	04aH
	DB	049H
	DB	04aH
	DB	029H
	DB	04aH
	DB	049H
	DB	04aH
	DB	029H
	DB	04aH
	DB	049H
	DB	04aH
	DB	049H
	DB	04aH
	DB	029H
	DB	04aH
	DB	049H
	DB	04aH
	DB	049H
	DB	04aH
	DB	049H
	DB	04aH
	DB	029H
	DB	04aH
	DB	049H
	DB	04aH
	DB	049H
	DB	04aH
	DB	029H
	DB	04aH
	DB	049H
	DB	04aH
	DB	029H
	DB	04aH
	DB	049H
	DB	04aH
	DB	049H
	DB	04aH
	DB	029H
	DB	04aH
	DB	049H
	DB	04aH
	DB	049H
	DB	04aH
	DB	049H
	DB	04aH
	DB	029H
	DB	04aH
	DB	049H
	DB	04aH
	DB	049H
	DB	04aH
	DB	029H
	DB	04aH
	DB	049H
	DB	04aH
	DB	029H
	DB	04aH
	DB	049H
	DB	04aH
	DB	049H
	DB	04aH
	DB	029H
	DB	04aH
	DB	049H
	DB	04aH
	DB	049H
	DB	04aH
	DB	049H
	DB	04aH
	DB	029H
	DB	04aH
	DB	049H
	DB	04aH
	DB	049H
	DB	04aH
	DB	029H
	DB	04aH
	DB	049H
	DB	04aH
	DB	029H
	DB	04aH
	DB	049H
	DB	04aH
	DB	049H
	DB	04aH
	DB	029H
	DB	04aH
	DB	049H
	DB	04aH
	DB	049H
	DB	04aH
	DB	049H
	DB	04aH
	DB	029H
	DB	04aH
	DB	049H
	DB	04aH
	DB	049H
	DB	04aH
	DB	049H
	DB	04aH
	DB	049H
	DB	04aH
	DB	049H
	DB	04aH
	DB	049H
	DB	04aH
	DB	049H
	DB	04aH
	DB	049H
	DB	04aH
	DB	049H
	DB	04aH
	DB	029H
	DB	04aH
	DB	049H
	DB	04aH
	DB	049H
	DB	04aH
	DB	029H
	DB	04aH
	DB	049H
	DB	04aH
	DB	049H
	DB	04aH
	DB	029H
	DB	04aH
	DB	049H
	DB	04aH
	DB	0efH
	DB	07bH
	DB	0efH
	DB	07bH
	DB	049H
	DB	04aH
	DB	049H
	DB	04aH
	DB	049H
	DB	04aH
	DB	049H
	DB	04aH
	DB	029H
	DB	04aH
	DB	049H
	DB	04aH
	DB	049H
	DB	04aH
	DB	029H
	DB	042H
	DB	049H
	DB	04aH
	DB	029H
	DB	04aH
	DB	049H
	DB	042H
	DB	049H
	DB	04aH
	DB	048H
	DB	04aH
	DB	049H
	DB	042H
	DB	049H
	DB	04aH
	DB	028H
	DB	04aH
	DB	049H
	DB	042H
	DB	049H
	DB	04aH
	DB	029H
	DB	04aH
	DB	049H
	DB	042H
	DB	049H
	DB	04aH
	DB	029H
	DB	04aH
	DB	049H
	DB	042H
	DB	049H
	DB	04aH
	DB	049H
	DB	04aH
	DB	049H
	DB	042H
	DB	049H
	DB	04aH
	DB	049H
	DB	04aH
	DB	049H
	DB	042H
	DB	049H
	DB	04aH
	DB	049H
	DB	04aH
	DB	049H
	DB	042H
	DB	029H
	DB	04aH
	DB	049H
	DB	04aH
	DB	049H
	DB	042H
	DB	029H
	DB	04aH
	DB	049H
	DB	04aH
	DB	049H
	DB	042H
	DB	049H
	DB	04aH
	DB	049H
	DB	04aH
	DB	029H
	DB	042H
	DB	049H
	DB	04aH
	DB	049H
	DB	04aH
	DB	029H
	DB	042H
	DB	049H
	DB	04aH
	DB	049H
	DB	04aH
	DB	029H
	DB	042H
	DB	049H
	DB	04aH
	DB	049H
	DB	04aH
	DB	029H
	DB	042H
	DB	049H
	DB	04aH
	DB	049H
	DB	04aH
	DB	049H
	DB	042H
	DB	029H
	DB	04aH
	DB	049H
	DB	04aH
	DB	049H
	DB	042H
	DB	029H
	DB	04aH
	DB	049H
	DB	04aH
	DB	049H
	DB	042H
	DB	029H
	DB	04aH
	DB	049H
	DB	04aH
	DB	049H
	DB	042H
	DB	049H
	DB	04aH
	DB	049H
	DB	04aH
	DB	029H
	DB	042H
	DB	049H
	DB	04aH
	DB	049H
	DB	04aH
	DB	029H
	DB	042H
	DB	049H
	DB	04aH
	DB	049H
	DB	04aH
	DB	029H
	DB	042H
	DB	049H
	DB	04aH
	DB	049H
	DB	04aH
	DB	029H
	DB	042H
	DB	049H
	DB	04aH
	DB	049H
	DB	04aH
	DB	049H
	DB	042H
	DB	029H
	DB	04aH
	DB	049H
	DB	04aH
	DB	049H
	DB	042H
	DB	029H
	DB	04aH
	DB	049H
	DB	04aH
	DB	049H
	DB	042H
	DB	029H
	DB	04aH
	DB	049H
	DB	04aH
	DB	049H
	DB	042H
	DB	049H
	DB	04aH
	DB	049H
	DB	04aH
	DB	029H
	DB	042H
	DB	049H
	DB	04aH
	DB	049H
	DB	04aH
	DB	029H
	DB	042H
	DB	049H
	DB	04aH
	DB	049H
	DB	04aH
	DB	029H
	DB	042H
	DB	049H
	DB	04aH
	DB	049H
	DB	04aH
	DB	029H
	DB	042H
	DB	049H
	DB	04aH
	DB	049H
	DB	04aH
	DB	049H
	DB	042H
	DB	029H
	DB	04aH
	DB	049H
	DB	04aH
	DB	049H
	DB	042H
	DB	029H
	DB	04aH
	DB	049H
	DB	04aH
	DB	049H
	DB	042H
	DB	029H
	DB	04aH
	DB	049H
	DB	04aH
	DB	049H
	DB	042H
	DB	049H
	DB	04aH
	DB	049H
	DB	04aH
	DB	029H
	DB	042H
	DB	049H
	DB	04aH
	DB	049H
	DB	04aH
	DB	029H
	DB	042H
	DB	049H
	DB	04aH
	DB	049H
	DB	04aH
	DB	029H
	DB	042H
	DB	049H
	DB	04aH
	DB	049H
	DB	04aH
	DB	029H
	DB	042H
	DB	049H
	DB	04aH
	DB	049H
	DB	04aH
	DB	049H
	DB	042H
	DB	029H
	DB	04aH
	DB	049H
	DB	04aH
	DB	049H
	DB	042H
	DB	029H
	DB	04aH
	DB	049H
	DB	04aH
	DB	049H
	DB	042H
	DB	029H
	DB	04aH
	DB	049H
	DB	04aH
	DB	049H
	DB	042H
	DB	049H
	DB	04aH
	DB	049H
	DB	04aH
	DB	029H
	DB	042H
	DB	049H
	DB	04aH
	DB	049H
	DB	04aH
	DB	029H
	DB	042H
	DB	049H
	DB	04aH
	DB	049H
	DB	04aH
	DB	029H
	DB	042H
	DB	049H
	DB	04aH
	DB	049H
	DB	04aH
	DB	029H
	DB	042H
	DB	049H
	DB	04aH
	DB	049H
	DB	04aH
	DB	029H
	DB	042H
	DB	049H
	DB	04aH
	DB	029H
	DB	04aH
	DB	049H
	DB	042H
	DB	029H
	DB	04aH
	DB	049H
	DB	04aH
	DB	049H
	DB	042H
	DB	049H
	DB	04aH
	DB	049H
	DB	04aH
	DB	049H
	DB	042H
	DB	029H
	DB	04aH
	DB	049H
	DB	04aH
	DB	049H
	DB	04aH
	DB	049H
	DB	04aH
	DB	049H
	DB	04aH
	DB	0efH
	DB	07bH
	DB	0efH
	DB	07bH
	DB	049H
	DB	04aH
	DB	029H
	DB	04aH
	DB	049H
	DB	04aH
	DB	049H
	DB	04aH
	DB	049H
	DB	04aH
	DB	049H
	DB	04aH
	DB	049H
	DB	04aH
	DB	049H
	DB	04aH
	DB	029H
	DB	04aH
	DB	048H
	DB	04aH
	DB	049H
	DB	04aH
	DB	029H
	DB	04aH
	DB	049H
	DB	04aH
	DB	049H
	DB	04aH
	DB	049H
	DB	04aH
	DB	049H
	DB	04aH
	DB	049H
	DB	04aH
	DB	049H
	DB	04aH
	DB	048H
	DB	04aH
	DB	049H
	DB	04aH
	DB	049H
	DB	04aH
	DB	048H
	DB	04aH
	DB	029H
	DB	04aH
	DB	049H
	DB	04aH
	DB	028H
	DB	04aH
	DB	029H
	DB	04aH
	DB	049H
	DB	04aH
	DB	048H
	DB	04aH
	DB	029H
	DB	04aH
	DB	049H
	DB	04aH
	DB	048H
	DB	04aH
	DB	049H
	DB	04aH
	DB	049H
	DB	04aH
	DB	048H
	DB	04aH
	DB	049H
	DB	04aH
	DB	029H
	DB	04aH
	DB	048H
	DB	04aH
	DB	049H
	DB	04aH
	DB	029H
	DB	04aH
	DB	048H
	DB	04aH
	DB	049H
	DB	04aH
	DB	049H
	DB	04aH
	DB	048H
	DB	04aH
	DB	049H
	DB	04aH
	DB	049H
	DB	04aH
	DB	048H
	DB	04aH
	DB	029H
	DB	04aH
	DB	049H
	DB	04aH
	DB	048H
	DB	04aH
	DB	049H
	DB	04aH
	DB	049H
	DB	04aH
	DB	048H
	DB	04aH
	DB	049H
	DB	04aH
	DB	049H
	DB	04aH
	DB	048H
	DB	04aH
	DB	049H
	DB	04aH
	DB	049H
	DB	04aH
	DB	048H
	DB	04aH
	DB	029H
	DB	04aH
	DB	049H
	DB	04aH
	DB	048H
	DB	04aH
	DB	029H
	DB	04aH
	DB	049H
	DB	04aH
	DB	048H
	DB	04aH
	DB	049H
	DB	04aH
	DB	049H
	DB	04aH
	DB	048H
	DB	04aH
	DB	049H
	DB	04aH
	DB	049H
	DB	04aH
	DB	048H
	DB	04aH
	DB	029H
	DB	04aH
	DB	049H
	DB	04aH
	DB	048H
	DB	04aH
	DB	049H
	DB	04aH
	DB	049H
	DB	04aH
	DB	048H
	DB	04aH
	DB	049H
	DB	04aH
	DB	049H
	DB	04aH
	DB	048H
	DB	04aH
	DB	049H
	DB	04aH
	DB	049H
	DB	04aH
	DB	048H
	DB	04aH
	DB	029H
	DB	04aH
	DB	049H
	DB	04aH
	DB	048H
	DB	04aH
	DB	029H
	DB	04aH
	DB	049H
	DB	04aH
	DB	048H
	DB	04aH
	DB	049H
	DB	04aH
	DB	049H
	DB	04aH
	DB	048H
	DB	04aH
	DB	049H
	DB	04aH
	DB	049H
	DB	04aH
	DB	048H
	DB	04aH
	DB	029H
	DB	04aH
	DB	049H
	DB	04aH
	DB	048H
	DB	04aH
	DB	049H
	DB	04aH
	DB	049H
	DB	04aH
	DB	048H
	DB	04aH
	DB	049H
	DB	04aH
	DB	049H
	DB	04aH
	DB	048H
	DB	04aH
	DB	049H
	DB	04aH
	DB	049H
	DB	04aH
	DB	048H
	DB	04aH
	DB	029H
	DB	04aH
	DB	049H
	DB	04aH
	DB	048H
	DB	04aH
	DB	029H
	DB	04aH
	DB	049H
	DB	04aH
	DB	048H
	DB	04aH
	DB	049H
	DB	04aH
	DB	049H
	DB	04aH
	DB	048H
	DB	04aH
	DB	049H
	DB	04aH
	DB	049H
	DB	04aH
	DB	048H
	DB	04aH
	DB	029H
	DB	04aH
	DB	049H
	DB	04aH
	DB	048H
	DB	04aH
	DB	049H
	DB	04aH
	DB	049H
	DB	04aH
	DB	048H
	DB	04aH
	DB	049H
	DB	04aH
	DB	049H
	DB	04aH
	DB	048H
	DB	04aH
	DB	049H
	DB	04aH
	DB	049H
	DB	04aH
	DB	048H
	DB	04aH
	DB	029H
	DB	04aH
	DB	049H
	DB	04aH
	DB	048H
	DB	04aH
	DB	029H
	DB	04aH
	DB	049H
	DB	04aH
	DB	048H
	DB	04aH
	DB	049H
	DB	04aH
	DB	049H
	DB	04aH
	DB	048H
	DB	04aH
	DB	049H
	DB	04aH
	DB	049H
	DB	04aH
	DB	048H
	DB	04aH
	DB	029H
	DB	04aH
	DB	049H
	DB	04aH
	DB	048H
	DB	04aH
	DB	049H
	DB	04aH
	DB	049H
	DB	04aH
	DB	028H
	DB	04aH
	DB	049H
	DB	04aH
	DB	049H
	DB	04aH
	DB	048H
	DB	04aH
	DB	029H
	DB	04aH
	DB	049H
	DB	04aH
	DB	048H
	DB	04aH
	DB	029H
	DB	04aH
	DB	049H
	DB	04aH
	DB	048H
	DB	04aH
	DB	029H
	DB	04aH
	DB	049H
	DB	04aH
	DB	048H
	DB	042H
	DB	029H
	DB	04aH
	DB	049H
	DB	04aH
	DB	049H
	DB	04aH
	DB	0efH
	DB	07bH
	DB	0efH
	DB	07bH
	DB	049H
	DB	04aH
	DB	049H
	DB	04aH
	DB	029H
	DB	04aH
	DB	049H
	DB	04aH
	DB	029H
	DB	042H
	DB	048H
	DB	04aH
	DB	049H
	DB	04aH
	DB	029H
	DB	04aH
	DB	049H
	DB	04aH
	DB	049H
	DB	042H
	DB	049H
	DB	04aH
	DB	029H
	DB	04aH
	DB	049H
	DB	04aH
	DB	029H
	DB	04aH
	DB	029H
	DB	042H
	DB	049H
	DB	04aH
	DB	029H
	DB	04aH
	DB	049H
	DB	04aH
	DB	029H
	DB	042H
	DB	049H
	DB	04aH
	DB	049H
	DB	04aH
	DB	049H
	DB	042H
	DB	049H
	DB	04aH
	DB	049H
	DB	04aH
	DB	049H
	DB	04aH
	DB	049H
	DB	04aH
	DB	049H
	DB	042H
	DB	029H
	DB	04aH
	DB	049H
	DB	04aH
	DB	049H
	DB	042H
	DB	029H
	DB	04aH
	DB	029H
	DB	04aH
	DB	049H
	DB	04aH
	DB	049H
	DB	042H
	DB	029H
	DB	04aH
	DB	049H
	DB	04aH
	DB	049H
	DB	042H
	DB	049H
	DB	04aH
	DB	029H
	DB	04aH
	DB	049H
	DB	04aH
	DB	049H
	DB	04aH
	DB	029H
	DB	042H
	DB	049H
	DB	04aH
	DB	029H
	DB	04aH
	DB	049H
	DB	042H
	DB	049H
	DB	04aH
	DB	049H
	DB	04aH
	DB	029H
	DB	04aH
	DB	049H
	DB	042H
	DB	049H
	DB	04aH
	DB	029H
	DB	04aH
	DB	029H
	DB	042H
	DB	049H
	DB	04aH
	DB	029H
	DB	04aH
	DB	049H
	DB	04aH
	DB	029H
	DB	04aH
	DB	049H
	DB	042H
	DB	049H
	DB	04aH
	DB	049H
	DB	04aH
	DB	049H
	DB	042H
	DB	049H
	DB	04aH
	DB	029H
	DB	04aH
	DB	049H
	DB	04aH
	DB	049H
	DB	042H
	DB	029H
	DB	04aH
	DB	049H
	DB	04aH
	DB	029H
	DB	042H
	DB	049H
	DB	04aH
	DB	049H
	DB	04aH
	DB	029H
	DB	04aH
	DB	049H
	DB	04aH
	DB	049H
	DB	042H
	DB	029H
	DB	04aH
	DB	049H
	DB	04aH
	DB	029H
	DB	042H
	DB	029H
	DB	04aH
	DB	049H
	DB	04aH
	DB	029H
	DB	04aH
	DB	049H
	DB	042H
	DB	029H
	DB	04aH
	DB	049H
	DB	04aH
	DB	049H
	DB	042H
	DB	049H
	DB	04aH
	DB	049H
	DB	04aH
	DB	049H
	DB	04aH
	DB	029H
	DB	04aH
	DB	049H
	DB	042H
	DB	049H
	DB	04aH
	DB	029H
	DB	04aH
	DB	049H
	DB	042H
	DB	029H
	DB	04aH
	DB	049H
	DB	04aH
	DB	049H
	DB	04aH
	DB	029H
	DB	042H
	DB	049H
	DB	04aH
	DB	049H
	DB	04aH
	DB	029H
	DB	042H
	DB	049H
	DB	04aH
	DB	029H
	DB	04aH
	DB	029H
	DB	04aH
	DB	049H
	DB	04aH
	DB	029H
	DB	042H
	DB	049H
	DB	04aH
	DB	029H
	DB	04aH
	DB	049H
	DB	042H
	DB	049H
	DB	04aH
	DB	049H
	DB	04aH
	DB	049H
	DB	04aH
	DB	049H
	DB	042H
	DB	029H
	DB	04aH
	DB	049H
	DB	04aH
	DB	049H
	DB	042H
	DB	029H
	DB	04aH
	DB	049H
	DB	04aH
	DB	029H
	DB	04aH
	DB	049H
	DB	04aH
	DB	049H
	DB	042H
	DB	029H
	DB	04aH
	DB	049H
	DB	04aH
	DB	049H
	DB	042H
	DB	029H
	DB	04aH
	DB	049H
	DB	04aH
	DB	029H
	DB	04aH
	DB	029H
	DB	042H
	DB	049H
	DB	04aH
	DB	029H
	DB	04aH
	DB	049H
	DB	042H
	DB	029H
	DB	04aH
	DB	049H
	DB	04aH
	DB	049H
	DB	04aH
	DB	049H
	DB	04aH
	DB	049H
	DB	042H
	DB	049H
	DB	04aH
	DB	029H
	DB	04aH
	DB	049H
	DB	042H
	DB	049H
	DB	04aH
	DB	029H
	DB	04aH
	DB	049H
	DB	04aH
	DB	029H
	DB	042H
	DB	049H
	DB	04aH
	DB	049H
	DB	04aH
	DB	029H
	DB	042H
	DB	049H
	DB	04aH
	DB	049H
	DB	04aH
	DB	029H
	DB	04aH
	DB	049H
	DB	04aH
	DB	049H
	DB	042H
	DB	049H
	DB	04aH
	DB	049H
	DB	04aH
	DB	049H
	DB	042H
	DB	049H
	DB	04aH
	DB	049H
	DB	04aH
	DB	049H
	DB	04aH
	DB	049H
	DB	042H
	DB	029H
	DB	04aH
	DB	049H
	DB	04aH
	DB	049H
	DB	042H
	DB	049H
	DB	04aH
	DB	049H
	DB	04aH
	DB	049H
	DB	04aH
	DB	029H
	DB	04aH
	DB	049H
	DB	04aH
	DB	049H
	DB	04aH
	DB	0cfH
	DB	07bH
	DB	0efH
	DB	07bH
	DB	049H
	DB	04aH
	DB	049H
	DB	04aH
	DB	049H
	DB	04aH
	DB	049H
	DB	04aH
	DB	029H
	DB	04aH
	DB	049H
	DB	04aH
	DB	049H
	DB	04aH
	DB	048H
	DB	042H
	DB	049H
	DB	04aH
	DB	049H
	DB	04aH
	DB	029H
	DB	04aH
	DB	049H
	DB	04aH
	DB	048H
	DB	042H
	DB	049H
	DB	04aH
	DB	049H
	DB	04aH
	DB	048H
	DB	04aH
	DB	049H
	DB	04aH
	DB	049H
	DB	04aH
	DB	029H
	DB	04aH
	DB	048H
	DB	04aH
	DB	029H
	DB	04aH
	DB	029H
	DB	04aH
	DB	049H
	DB	04aH
	DB	048H
	DB	042H
	DB	049H
	DB	04aH
	DB	049H
	DB	04aH
	DB	028H
	DB	04aH
	DB	049H
	DB	04aH
	DB	049H
	DB	04aH
	DB	049H
	DB	04aH
	DB	049H
	DB	04aH
	DB	048H
	DB	04aH
	DB	049H
	DB	04aH
	DB	029H
	DB	04aH
	DB	048H
	DB	04aH
	DB	049H
	DB	04aH
	DB	049H
	DB	04aH
	DB	029H
	DB	04aH
	DB	048H
	DB	042H
	DB	049H
	DB	04aH
	DB	049H
	DB	04aH
	DB	048H
	DB	04aH
	DB	029H
	DB	04aH
	DB	049H
	DB	04aH
	DB	049H
	DB	04aH
	DB	029H
	DB	04aH
	DB	048H
	DB	04aH
	DB	049H
	DB	04aH
	DB	049H
	DB	04aH
	DB	048H
	DB	04aH
	DB	049H
	DB	04aH
	DB	049H
	DB	04aH
	DB	049H
	DB	04aH
	DB	048H
	DB	042H
	DB	029H
	DB	04aH
	DB	049H
	DB	04aH
	DB	048H
	DB	04aH
	DB	029H
	DB	04aH
	DB	049H
	DB	04aH
	DB	049H
	DB	04aH
	DB	029H
	DB	04aH
	DB	048H
	DB	04aH
	DB	049H
	DB	04aH
	DB	029H
	DB	04aH
	DB	048H
	DB	04aH
	DB	049H
	DB	04aH
	DB	029H
	DB	04aH
	DB	049H
	DB	04aH
	DB	048H
	DB	042H
	DB	049H
	DB	04aH
	DB	049H
	DB	04aH
	DB	048H
	DB	04aH
	DB	049H
	DB	04aH
	DB	049H
	DB	04aH
	DB	049H
	DB	04aH
	DB	049H
	DB	04aH
	DB	048H
	DB	04aH
	DB	049H
	DB	04aH
	DB	029H
	DB	04aH
	DB	048H
	DB	04aH
	DB	049H
	DB	04aH
	DB	029H
	DB	04aH
	DB	049H
	DB	04aH
	DB	048H
	DB	042H
	DB	029H
	DB	04aH
	DB	049H
	DB	04aH
	DB	048H
	DB	04aH
	DB	029H
	DB	04aH
	DB	049H
	DB	04aH
	DB	049H
	DB	04aH
	DB	029H
	DB	04aH
	DB	048H
	DB	04aH
	DB	049H
	DB	04aH
	DB	049H
	DB	04aH
	DB	048H
	DB	04aH
	DB	049H
	DB	04aH
	DB	049H
	DB	04aH
	DB	049H
	DB	04aH
	DB	048H
	DB	042H
	DB	049H
	DB	04aH
	DB	049H
	DB	04aH
	DB	048H
	DB	04aH
	DB	029H
	DB	04aH
	DB	049H
	DB	04aH
	DB	049H
	DB	04aH
	DB	029H
	DB	04aH
	DB	048H
	DB	04aH
	DB	049H
	DB	04aH
	DB	029H
	DB	04aH
	DB	048H
	DB	04aH
	DB	049H
	DB	04aH
	DB	029H
	DB	04aH
	DB	049H
	DB	04aH
	DB	048H
	DB	042H
	DB	029H
	DB	04aH
	DB	049H
	DB	04aH
	DB	048H
	DB	04aH
	DB	049H
	DB	04aH
	DB	049H
	DB	04aH
	DB	049H
	DB	04aH
	DB	049H
	DB	04aH
	DB	048H
	DB	04aH
	DB	049H
	DB	04aH
	DB	049H
	DB	04aH
	DB	048H
	DB	04aH
	DB	049H
	DB	04aH
	DB	029H
	DB	04aH
	DB	049H
	DB	04aH
	DB	048H
	DB	042H
	DB	029H
	DB	04aH
	DB	049H
	DB	04aH
	DB	048H
	DB	04aH
	DB	029H
	DB	04aH
	DB	049H
	DB	04aH
	DB	049H
	DB	04aH
	DB	029H
	DB	04aH
	DB	048H
	DB	04aH
	DB	049H
	DB	04aH
	DB	029H
	DB	04aH
	DB	048H
	DB	04aH
	DB	049H
	DB	04aH
	DB	049H
	DB	04aH
	DB	049H
	DB	04aH
	DB	048H
	DB	042H
	DB	029H
	DB	04aH
	DB	049H
	DB	04aH
	DB	048H
	DB	04aH
	DB	029H
	DB	04aH
	DB	029H
	DB	04aH
	DB	049H
	DB	04aH
	DB	029H
	DB	04aH
	DB	048H
	DB	04aH
	DB	049H
	DB	04aH
	DB	029H
	DB	04aH
	DB	049H
	DB	04aH
	DB	048H
	DB	04aH
	DB	029H
	DB	04aH
	DB	049H
	DB	04aH
	DB	049H
	DB	04aH
	DB	029H
	DB	04aH
	DB	049H
	DB	04aH
	DB	049H
	DB	04aH
	DB	049H
	DB	04aH
	DB	0efH
	DB	07bH
	DB	0efH
	DB	07bH
	DB	049H
	DB	04aH
	DB	029H
	DB	04aH
	DB	049H
	DB	04aH
	DB	049H
	DB	04aH
	DB	049H
	DB	04aH
	DB	029H
	DB	04aH
	DB	049H
	DB	04aH
	DB	029H
	DB	04aH
	DB	049H
	DB	04aH
	DB	049H
	DB	04aH
	DB	049H
	DB	04aH
	DB	049H
	DB	04aH
	DB	049H
	DB	04aH
	DB	049H
	DB	04aH
	DB	049H
	DB	04aH
	DB	029H
	DB	04aH
	DB	049H
	DB	042H
	DB	049H
	DB	04aH
	DB	049H
	DB	04aH
	DB	049H
	DB	04aH
	DB	049H
	DB	04aH
	DB	049H
	DB	04aH
	DB	029H
	DB	04aH
	DB	049H
	DB	04aH
	DB	029H
	DB	04aH
	DB	049H
	DB	04aH
	DB	049H
	DB	04aH
	DB	049H
	DB	04aH
	DB	028H
	DB	04aH
	DB	049H
	DB	04aH
	DB	049H
	DB	04aH
	DB	029H
	DB	042H
	DB	049H
	DB	04aH
	DB	049H
	DB	04aH
	DB	049H
	DB	04aH
	DB	049H
	DB	04aH
	DB	029H
	DB	04aH
	DB	049H
	DB	04aH
	DB	049H
	DB	04aH
	DB	029H
	DB	04aH
	DB	049H
	DB	04aH
	DB	049H
	DB	04aH
	DB	049H
	DB	04aH
	DB	048H
	DB	04aH
	DB	049H
	DB	04aH
	DB	029H
	DB	04aH
	DB	049H
	DB	042H
	DB	049H
	DB	04aH
	DB	029H
	DB	04aH
	DB	049H
	DB	04aH
	DB	049H
	DB	04aH
	DB	029H
	DB	04aH
	DB	049H
	DB	04aH
	DB	049H
	DB	04aH
	DB	049H
	DB	04aH
	DB	049H
	DB	04aH
	DB	049H
	DB	04aH
	DB	029H
	DB	04aH
	DB	048H
	DB	04aH
	DB	049H
	DB	04aH
	DB	029H
	DB	04aH
	DB	049H
	DB	042H
	DB	049H
	DB	04aH
	DB	049H
	DB	04aH
	DB	049H
	DB	04aH
	DB	049H
	DB	04aH
	DB	049H
	DB	04aH
	DB	029H
	DB	04aH
	DB	049H
	DB	04aH
	DB	029H
	DB	04aH
	DB	049H
	DB	04aH
	DB	029H
	DB	04aH
	DB	049H
	DB	04aH
	DB	048H
	DB	04aH
	DB	029H
	DB	04aH
	DB	049H
	DB	04aH
	DB	049H
	DB	042H
	DB	049H
	DB	04aH
	DB	049H
	DB	04aH
	DB	049H
	DB	04aH
	DB	049H
	DB	04aH
	DB	029H
	DB	04aH
	DB	049H
	DB	04aH
	DB	049H
	DB	04aH
	DB	029H
	DB	04aH
	DB	049H
	DB	04aH
	DB	049H
	DB	04aH
	DB	049H
	DB	04aH
	DB	048H
	DB	04aH
	DB	049H
	DB	04aH
	DB	049H
	DB	04aH
	DB	029H
	DB	042H
	DB	049H
	DB	04aH
	DB	029H
	DB	04aH
	DB	049H
	DB	04aH
	DB	029H
	DB	04aH
	DB	049H
	DB	04aH
	DB	049H
	DB	04aH
	DB	029H
	DB	04aH
	DB	049H
	DB	04aH
	DB	049H
	DB	04aH
	DB	049H
	DB	04aH
	DB	049H
	DB	04aH
	DB	048H
	DB	04aH
	DB	049H
	DB	04aH
	DB	029H
	DB	04aH
	DB	049H
	DB	042H
	DB	049H
	DB	04aH
	DB	029H
	DB	04aH
	DB	049H
	DB	04aH
	DB	049H
	DB	04aH
	DB	049H
	DB	04aH
	DB	049H
	DB	04aH
	DB	049H
	DB	04aH
	DB	049H
	DB	04aH
	DB	029H
	DB	04aH
	DB	049H
	DB	04aH
	DB	029H
	DB	04aH
	DB	048H
	DB	04aH
	DB	029H
	DB	04aH
	DB	049H
	DB	04aH
	DB	049H
	DB	042H
	DB	029H
	DB	04aH
	DB	049H
	DB	04aH
	DB	049H
	DB	04aH
	DB	049H
	DB	04aH
	DB	049H
	DB	04aH
	DB	049H
	DB	04aH
	DB	049H
	DB	04aH
	DB	029H
	DB	04aH
	DB	049H
	DB	04aH
	DB	049H
	DB	04aH
	DB	029H
	DB	04aH
	DB	048H
	DB	04aH
	DB	049H
	DB	04aH
	DB	049H
	DB	04aH
	DB	049H
	DB	042H
	DB	049H
	DB	04aH
	DB	049H
	DB	04aH
	DB	029H
	DB	04aH
	DB	049H
	DB	04aH
	DB	029H
	DB	04aH
	DB	049H
	DB	04aH
	DB	049H
	DB	04aH
	DB	049H
	DB	04aH
	DB	049H
	DB	04aH
	DB	049H
	DB	04aH
	DB	049H
	DB	04aH
	DB	048H
	DB	04aH
	DB	049H
	DB	04aH
	DB	029H
	DB	04aH
	DB	049H
	DB	042H
	DB	049H
	DB	04aH
	DB	049H
	DB	04aH
	DB	049H
	DB	04aH
	DB	049H
	DB	04aH
	DB	029H
	DB	04aH
	DB	048H
	DB	04aH
	DB	049H
	DB	04aH
	DB	049H
	DB	042H
	DB	048H
	DB	04aH
	DB	049H
	DB	04aH
	DB	049H
	DB	04aH
	DB	0efH
	DB	07bH
	DB	0efH
	DB	07bH
	DB	049H
	DB	04aH
	DB	049H
	DB	04aH
	DB	029H
	DB	04aH
	DB	049H
	DB	04aH
	DB	048H
	DB	042H
	DB	049H
	DB	04aH
	DB	049H
	DB	04aH
	DB	029H
	DB	04aH
	DB	049H
	DB	04aH
	DB	048H
	DB	042H
	DB	029H
	DB	04aH
	DB	049H
	DB	04aH
	DB	029H
	DB	04aH
	DB	049H
	DB	04aH
	DB	048H
	DB	04aH
	DB	029H
	DB	04aH
	DB	049H
	DB	04aH
	DB	048H
	DB	04aH
	DB	029H
	DB	04aH
	DB	049H
	DB	042H
	DB	049H
	DB	04aH
	DB	048H
	DB	04aH
	DB	049H
	DB	04aH
	DB	049H
	DB	04aH
	DB	049H
	DB	04aH
	DB	029H
	DB	042H
	DB	049H
	DB	04aH
	DB	049H
	DB	04aH
	DB	029H
	DB	042H
	DB	049H
	DB	04aH
	DB	049H
	DB	04aH
	DB	029H
	DB	04aH
	DB	049H
	DB	04aH
	DB	049H
	DB	04aH
	DB	029H
	DB	042H
	DB	049H
	DB	04aH
	DB	048H
	DB	04aH
	DB	049H
	DB	04aH
	DB	049H
	DB	04aH
	DB	049H
	DB	04aH
	DB	029H
	DB	042H
	DB	049H
	DB	04aH
	DB	049H
	DB	04aH
	DB	029H
	DB	042H
	DB	049H
	DB	04aH
	DB	049H
	DB	04aH
	DB	049H
	DB	04aH
	DB	029H
	DB	04aH
	DB	049H
	DB	04aH
	DB	049H
	DB	042H
	DB	029H
	DB	04aH
	DB	048H
	DB	04aH
	DB	049H
	DB	04aH
	DB	029H
	DB	04aH
	DB	049H
	DB	04aH
	DB	049H
	DB	042H
	DB	029H
	DB	04aH
	DB	049H
	DB	04aH
	DB	049H
	DB	042H
	DB	049H
	DB	04aH
	DB	049H
	DB	04aH
	DB	049H
	DB	04aH
	DB	029H
	DB	04aH
	DB	049H
	DB	04aH
	DB	049H
	DB	042H
	DB	029H
	DB	04aH
	DB	048H
	DB	04aH
	DB	049H
	DB	04aH
	DB	049H
	DB	04aH
	DB	049H
	DB	04aH
	DB	029H
	DB	042H
	DB	049H
	DB	04aH
	DB	049H
	DB	04aH
	DB	029H
	DB	042H
	DB	049H
	DB	04aH
	DB	049H
	DB	04aH
	DB	029H
	DB	04aH
	DB	049H
	DB	04aH
	DB	029H
	DB	04aH
	DB	049H
	DB	042H
	DB	049H
	DB	04aH
	DB	048H
	DB	04aH
	DB	049H
	DB	04aH
	DB	049H
	DB	04aH
	DB	049H
	DB	04aH
	DB	049H
	DB	042H
	DB	029H
	DB	04aH
	DB	049H
	DB	04aH
	DB	049H
	DB	042H
	DB	029H
	DB	04aH
	DB	049H
	DB	04aH
	DB	049H
	DB	04aH
	DB	049H
	DB	04aH
	DB	049H
	DB	04aH
	DB	029H
	DB	042H
	DB	049H
	DB	04aH
	DB	048H
	DB	04aH
	DB	029H
	DB	04aH
	DB	049H
	DB	04aH
	DB	049H
	DB	04aH
	DB	029H
	DB	042H
	DB	049H
	DB	04aH
	DB	029H
	DB	04aH
	DB	049H
	DB	042H
	DB	049H
	DB	04aH
	DB	049H
	DB	04aH
	DB	049H
	DB	04aH
	DB	049H
	DB	04aH
	DB	049H
	DB	04aH
	DB	049H
	DB	042H
	DB	029H
	DB	04aH
	DB	048H
	DB	04aH
	DB	049H
	DB	04aH
	DB	029H
	DB	04aH
	DB	049H
	DB	04aH
	DB	049H
	DB	042H
	DB	049H
	DB	04aH
	DB	049H
	DB	04aH
	DB	029H
	DB	042H
	DB	049H
	DB	04aH
	DB	049H
	DB	04aH
	DB	029H
	DB	04aH
	DB	049H
	DB	04aH
	DB	049H
	DB	04aH
	DB	029H
	DB	042H
	DB	049H
	DB	04aH
	DB	028H
	DB	04aH
	DB	049H
	DB	04aH
	DB	049H
	DB	04aH
	DB	049H
	DB	04aH
	DB	049H
	DB	042H
	DB	049H
	DB	04aH
	DB	049H
	DB	04aH
	DB	049H
	DB	042H
	DB	029H
	DB	04aH
	DB	049H
	DB	04aH
	DB	049H
	DB	04aH
	DB	029H
	DB	04aH
	DB	049H
	DB	04aH
	DB	049H
	DB	042H
	DB	049H
	DB	04aH
	DB	048H
	DB	04aH
	DB	029H
	DB	04aH
	DB	049H
	DB	04aH
	DB	029H
	DB	04aH
	DB	049H
	DB	042H
	DB	029H
	DB	04aH
	DB	049H
	DB	04aH
	DB	049H
	DB	042H
	DB	049H
	DB	04aH
	DB	049H
	DB	04aH
	DB	029H
	DB	04aH
	DB	048H
	DB	04aH
	DB	029H
	DB	04aH
	DB	049H
	DB	042H
	DB	049H
	DB	04aH
	DB	049H
	DB	04aH
	DB	029H
	DB	042H
	DB	049H
	DB	04aH
	DB	049H
	DB	04aH
	DB	029H
	DB	04aH
	DB	029H
	DB	04aH
	DB	049H
	DB	04aH
	DB	0efH
	DB	07bH
	DB	0efH
	DB	07bH
	DB	049H
	DB	04aH
	DB	049H
	DB	04aH
	DB	049H
	DB	04aH
	DB	029H
	DB	04aH
	DB	049H
	DB	04aH
	DB	049H
	DB	04aH
	DB	049H
	DB	04aH
	DB	048H
	DB	04aH
	DB	049H
	DB	04aH
	DB	029H
	DB	04aH
	DB	049H
	DB	04aH
	DB	048H
	DB	04aH
	DB	029H
	DB	042H
	DB	049H
	DB	04aH
	DB	049H
	DB	04aH
	DB	049H
	DB	042H
	DB	049H
	DB	04aH
	DB	029H
	DB	04aH
	DB	049H
	DB	04aH
	DB	049H
	DB	04aH
	DB	029H
	DB	04aH
	DB	049H
	DB	042H
	DB	049H
	DB	04aH
	DB	029H
	DB	04aH
	DB	048H
	DB	04aH
	DB	049H
	DB	04aH
	DB	049H
	DB	04aH
	DB	049H
	DB	04aH
	DB	049H
	DB	04aH
	DB	049H
	DB	04aH
	DB	048H
	DB	04aH
	DB	049H
	DB	04aH
	DB	049H
	DB	04aH
	DB	028H
	DB	04aH
	DB	049H
	DB	04aH
	DB	049H
	DB	04aH
	DB	029H
	DB	042H
	DB	049H
	DB	04aH
	DB	049H
	DB	04aH
	DB	028H
	DB	04aH
	DB	049H
	DB	04aH
	DB	049H
	DB	04aH
	DB	029H
	DB	04aH
	DB	049H
	DB	04aH
	DB	049H
	DB	04aH
	DB	048H
	DB	04aH
	DB	029H
	DB	04aH
	DB	049H
	DB	04aH
	DB	048H
	DB	04aH
	DB	049H
	DB	04aH
	DB	029H
	DB	04aH
	DB	049H
	DB	042H
	DB	049H
	DB	04aH
	DB	029H
	DB	04aH
	DB	048H
	DB	04aH
	DB	049H
	DB	04aH
	DB	049H
	DB	04aH
	DB	049H
	DB	04aH
	DB	029H
	DB	04aH
	DB	049H
	DB	04aH
	DB	048H
	DB	04aH
	DB	029H
	DB	04aH
	DB	049H
	DB	04aH
	DB	048H
	DB	04aH
	DB	029H
	DB	04aH
	DB	049H
	DB	04aH
	DB	049H
	DB	042H
	DB	049H
	DB	04aH
	DB	029H
	DB	04aH
	DB	048H
	DB	04aH
	DB	049H
	DB	04aH
	DB	049H
	DB	04aH
	DB	049H
	DB	04aH
	DB	049H
	DB	04aH
	DB	049H
	DB	04aH
	DB	048H
	DB	04aH
	DB	049H
	DB	04aH
	DB	029H
	DB	04aH
	DB	048H
	DB	04aH
	DB	049H
	DB	04aH
	DB	029H
	DB	04aH
	DB	049H
	DB	042H
	DB	029H
	DB	04aH
	DB	049H
	DB	04aH
	DB	048H
	DB	04aH
	DB	029H
	DB	04aH
	DB	049H
	DB	04aH
	DB	049H
	DB	04aH
	DB	029H
	DB	04aH
	DB	049H
	DB	04aH
	DB	048H
	DB	04aH
	DB	049H
	DB	04aH
	DB	029H
	DB	04aH
	DB	048H
	DB	04aH
	DB	049H
	DB	04aH
	DB	049H
	DB	04aH
	DB	049H
	DB	042H
	DB	049H
	DB	04aH
	DB	049H
	DB	04aH
	DB	048H
	DB	04aH
	DB	049H
	DB	04aH
	DB	029H
	DB	04aH
	DB	049H
	DB	04aH
	DB	049H
	DB	04aH
	DB	029H
	DB	04aH
	DB	048H
	DB	04aH
	DB	029H
	DB	04aH
	DB	049H
	DB	04aH
	DB	048H
	DB	04aH
	DB	029H
	DB	04aH
	DB	049H
	DB	04aH
	DB	049H
	DB	042H
	DB	029H
	DB	04aH
	DB	049H
	DB	04aH
	DB	048H
	DB	04aH
	DB	049H
	DB	04aH
	DB	029H
	DB	04aH
	DB	049H
	DB	04aH
	DB	049H
	DB	04aH
	DB	049H
	DB	04aH
	DB	048H
	DB	04aH
	DB	049H
	DB	04aH
	DB	049H
	DB	04aH
	DB	048H
	DB	04aH
	DB	049H
	DB	04aH
	DB	029H
	DB	04aH
	DB	049H
	DB	042H
	DB	049H
	DB	04aH
	DB	029H
	DB	04aH
	DB	048H
	DB	04aH
	DB	029H
	DB	04aH
	DB	049H
	DB	04aH
	DB	049H
	DB	04aH
	DB	029H
	DB	04aH
	DB	049H
	DB	04aH
	DB	048H
	DB	04aH
	DB	029H
	DB	04aH
	DB	049H
	DB	04aH
	DB	048H
	DB	04aH
	DB	049H
	DB	04aH
	DB	029H
	DB	04aH
	DB	049H
	DB	042H
	DB	049H
	DB	04aH
	DB	049H
	DB	04aH
	DB	048H
	DB	04aH
	DB	029H
	DB	04aH
	DB	049H
	DB	04aH
	DB	049H
	DB	04aH
	DB	029H
	DB	04aH
	DB	049H
	DB	04aH
	DB	049H
	DB	04aH
	DB	049H
	DB	04aH
	DB	049H
	DB	04aH
	DB	029H
	DB	04aH
	DB	049H
	DB	04aH
	DB	048H
	DB	04aH
	DB	029H
	DB	04aH
	DB	049H
	DB	04aH
	DB	049H
	DB	04aH
	DB	049H
	DB	04aH
	DB	049H
	DB	04aH
	DB	049H
	DB	04aH
	DB	049H
	DB	04aH
	DB	0efH
	DB	07bH
	DB	0cfH
	DB	07bH
	DB	049H
	DB	04aH
	DB	049H
	DB	04aH
	DB	049H
	DB	04aH
	DB	049H
	DB	04aH
	DB	029H
	DB	04aH
	DB	049H
	DB	04aH
	DB	029H
	DB	042H
	DB	049H
	DB	04aH
	DB	049H
	DB	04aH
	DB	049H
	DB	04aH
	DB	049H
	DB	04aH
	DB	049H
	DB	04aH
	DB	049H
	DB	04aH
	DB	029H
	DB	04aH
	DB	049H
	DB	04aH
	DB	049H
	DB	04aH
	DB	029H
	DB	04aH
	DB	049H
	DB	04aH
	DB	049H
	DB	04aH
	DB	048H
	DB	04aH
	DB	029H
	DB	04aH
	DB	049H
	DB	04aH
	DB	049H
	DB	04aH
	DB	029H
	DB	04aH
	DB	049H
	DB	042H
	DB	049H
	DB	04aH
	DB	028H
	DB	04aH
	DB	049H
	DB	04aH
	DB	029H
	DB	04aH
	DB	049H
	DB	042H
	DB	029H
	DB	04aH
	DB	049H
	DB	04aH
	DB	049H
	DB	042H
	DB	049H
	DB	04aH
	DB	049H
	DB	04aH
	DB	049H
	DB	04aH
	DB	029H
	DB	04aH
	DB	049H
	DB	04aH
	DB	049H
	DB	04aH
	DB	049H
	DB	042H
	DB	049H
	DB	04aH
	DB	048H
	DB	04aH
	DB	049H
	DB	04aH
	DB	029H
	DB	04aH
	DB	049H
	DB	042H
	DB	049H
	DB	04aH
	DB	049H
	DB	04aH
	DB	049H
	DB	042H
	DB	049H
	DB	04aH
	DB	029H
	DB	04aH
	DB	049H
	DB	04aH
	DB	049H
	DB	04aH
	DB	049H
	DB	04aH
	DB	049H
	DB	04aH
	DB	029H
	DB	042H
	DB	049H
	DB	04aH
	DB	048H
	DB	04aH
	DB	029H
	DB	04aH
	DB	049H
	DB	04aH
	DB	049H
	DB	042H
	DB	029H
	DB	04aH
	DB	049H
	DB	04aH
	DB	049H
	DB	042H
	DB	049H
	DB	04aH
	DB	049H
	DB	04aH
	DB	049H
	DB	04aH
	DB	029H
	DB	04aH
	DB	049H
	DB	04aH
	DB	049H
	DB	04aH
	DB	049H
	DB	042H
	DB	049H
	DB	04aH
	DB	028H
	DB	04aH
	DB	049H
	DB	04aH
	DB	029H
	DB	04aH
	DB	049H
	DB	042H
	DB	049H
	DB	04aH
	DB	029H
	DB	04aH
	DB	049H
	DB	042H
	DB	049H
	DB	04aH
	DB	049H
	DB	04aH
	DB	049H
	DB	04aH
	DB	029H
	DB	04aH
	DB	049H
	DB	04aH
	DB	049H
	DB	04aH
	DB	029H
	DB	042H
	DB	049H
	DB	04aH
	DB	048H
	DB	04aH
	DB	049H
	DB	04aH
	DB	049H
	DB	04aH
	DB	049H
	DB	042H
	DB	029H
	DB	04aH
	DB	049H
	DB	04aH
	DB	049H
	DB	042H
	DB	049H
	DB	04aH
	DB	049H
	DB	04aH
	DB	029H
	DB	04aH
	DB	049H
	DB	04aH
	DB	029H
	DB	04aH
	DB	049H
	DB	04aH
	DB	049H
	DB	042H
	DB	029H
	DB	04aH
	DB	048H
	DB	04aH
	DB	049H
	DB	04aH
	DB	049H
	DB	04aH
	DB	049H
	DB	042H
	DB	029H
	DB	04aH
	DB	049H
	DB	04aH
	DB	049H
	DB	042H
	DB	029H
	DB	04aH
	DB	049H
	DB	04aH
	DB	049H
	DB	04aH
	DB	049H
	DB	04aH
	DB	049H
	DB	04aH
	DB	049H
	DB	04aH
	DB	029H
	DB	042H
	DB	049H
	DB	04aH
	DB	048H
	DB	04aH
	DB	049H
	DB	04aH
	DB	049H
	DB	04aH
	DB	029H
	DB	042H
	DB	049H
	DB	04aH
	DB	029H
	DB	04aH
	DB	049H
	DB	042H
	DB	049H
	DB	04aH
	DB	029H
	DB	04aH
	DB	049H
	DB	04aH
	DB	049H
	DB	04aH
	DB	049H
	DB	04aH
	DB	049H
	DB	04aH
	DB	029H
	DB	042H
	DB	049H
	DB	04aH
	DB	048H
	DB	04aH
	DB	029H
	DB	04aH
	DB	049H
	DB	04aH
	DB	049H
	DB	042H
	DB	049H
	DB	04aH
	DB	049H
	DB	04aH
	DB	049H
	DB	042H
	DB	029H
	DB	04aH
	DB	049H
	DB	04aH
	DB	049H
	DB	04aH
	DB	029H
	DB	04aH
	DB	049H
	DB	04aH
	DB	049H
	DB	04aH
	DB	049H
	DB	042H
	DB	049H
	DB	04aH
	DB	048H
	DB	04aH
	DB	049H
	DB	04aH
	DB	029H
	DB	04aH
	DB	048H
	DB	042H
	DB	049H
	DB	04aH
	DB	029H
	DB	04aH
	DB	049H
	DB	042H
	DB	049H
	DB	04aH
	DB	049H
	DB	04aH
	DB	049H
	DB	04aH
	DB	049H
	DB	04aH
	DB	029H
	DB	04aH
	DB	048H
	DB	04aH
	DB	029H
	DB	04aH
	DB	049H
	DB	042H
	DB	049H
	DB	04aH
	DB	049H
	DB	04aH
	DB	0cfH
	DB	07bH
	DB	0efH
	DB	07bH
	DB	049H
	DB	04aH
	DB	029H
	DB	04aH
	DB	049H
	DB	04aH
	DB	049H
	DB	04aH
	DB	048H
	DB	04aH
	DB	049H
	DB	04aH
	DB	029H
	DB	04aH
	DB	049H
	DB	04aH
	DB	049H
	DB	042H
	DB	029H
	DB	04aH
	DB	049H
	DB	04aH
	DB	049H
	DB	042H
	DB	029H
	DB	04aH
	DB	048H
	DB	04aH
	DB	049H
	DB	04aH
	DB	029H
	DB	04aH
	DB	048H
	DB	04aH
	DB	049H
	DB	042H
	DB	049H
	DB	04aH
	DB	029H
	DB	04aH
	DB	049H
	DB	042H
	DB	049H
	DB	04aH
	DB	048H
	DB	04aH
	DB	049H
	DB	04aH
	DB	049H
	DB	04aH
	DB	029H
	DB	04aH
	DB	049H
	DB	04aH
	DB	049H
	DB	042H
	DB	049H
	DB	04aH
	DB	028H
	DB	04aH
	DB	049H
	DB	04aH
	DB	049H
	DB	04aH
	DB	029H
	DB	04aH
	DB	049H
	DB	04aH
	DB	048H
	DB	04aH
	DB	029H
	DB	04aH
	DB	049H
	DB	04aH
	DB	048H
	DB	04aH
	DB	029H
	DB	04aH
	DB	049H
	DB	04aH
	DB	029H
	DB	04aH
	DB	049H
	DB	04aH
	DB	049H
	DB	042H
	DB	049H
	DB	04aH
	DB	028H
	DB	04aH
	DB	049H
	DB	04aH
	DB	049H
	DB	04aH
	DB	029H
	DB	04aH
	DB	049H
	DB	04aH
	DB	048H
	DB	04aH
	DB	049H
	DB	04aH
	DB	029H
	DB	04aH
	DB	048H
	DB	04aH
	DB	049H
	DB	04aH
	DB	049H
	DB	04aH
	DB	029H
	DB	04aH
	DB	049H
	DB	04aH
	DB	049H
	DB	042H
	DB	049H
	DB	04aH
	DB	048H
	DB	04aH
	DB	049H
	DB	04aH
	DB	049H
	DB	04aH
	DB	029H
	DB	04aH
	DB	049H
	DB	04aH
	DB	048H
	DB	04aH
	DB	029H
	DB	04aH
	DB	049H
	DB	04aH
	DB	048H
	DB	04aH
	DB	029H
	DB	04aH
	DB	049H
	DB	04aH
	DB	049H
	DB	04aH
	DB	029H
	DB	04aH
	DB	049H
	DB	042H
	DB	049H
	DB	04aH
	DB	028H
	DB	04aH
	DB	049H
	DB	04aH
	DB	049H
	DB	04aH
	DB	049H
	DB	04aH
	DB	029H
	DB	04aH
	DB	048H
	DB	04aH
	DB	049H
	DB	04aH
	DB	049H
	DB	04aH
	DB	048H
	DB	04aH
	DB	049H
	DB	04aH
	DB	049H
	DB	04aH
	DB	049H
	DB	04aH
	DB	029H
	DB	04aH
	DB	049H
	DB	042H
	DB	049H
	DB	04aH
	DB	028H
	DB	04aH
	DB	049H
	DB	04aH
	DB	049H
	DB	04aH
	DB	029H
	DB	04aH
	DB	049H
	DB	04aH
	DB	048H
	DB	04aH
	DB	029H
	DB	04aH
	DB	049H
	DB	04aH
	DB	048H
	DB	04aH
	DB	029H
	DB	04aH
	DB	049H
	DB	04aH
	DB	049H
	DB	04aH
	DB	049H
	DB	04aH
	DB	029H
	DB	042H
	DB	049H
	DB	04aH
	DB	048H
	DB	04aH
	DB	049H
	DB	04aH
	DB	049H
	DB	04aH
	DB	049H
	DB	04aH
	DB	049H
	DB	04aH
	DB	048H
	DB	04aH
	DB	029H
	DB	04aH
	DB	049H
	DB	04aH
	DB	048H
	DB	04aH
	DB	029H
	DB	04aH
	DB	049H
	DB	04aH
	DB	049H
	DB	04aH
	DB	029H
	DB	04aH
	DB	049H
	DB	042H
	DB	049H
	DB	04aH
	DB	028H
	DB	04aH
	DB	049H
	DB	04aH
	DB	049H
	DB	04aH
	DB	029H
	DB	04aH
	DB	049H
	DB	04aH
	DB	048H
	DB	04aH
	DB	049H
	DB	04aH
	DB	029H
	DB	04aH
	DB	048H
	DB	04aH
	DB	049H
	DB	04aH
	DB	049H
	DB	04aH
	DB	049H
	DB	04aH
	DB	049H
	DB	04aH
	DB	049H
	DB	042H
	DB	049H
	DB	04aH
	DB	028H
	DB	04aH
	DB	049H
	DB	04aH
	DB	049H
	DB	04aH
	DB	029H
	DB	04aH
	DB	049H
	DB	04aH
	DB	048H
	DB	04aH
	DB	049H
	DB	04aH
	DB	049H
	DB	04aH
	DB	028H
	DB	04aH
	DB	049H
	DB	04aH
	DB	029H
	DB	04aH
	DB	049H
	DB	04aH
	DB	049H
	DB	04aH
	DB	029H
	DB	042H
	DB	049H
	DB	04aH
	DB	049H
	DB	04aH
	DB	029H
	DB	04aH
	DB	048H
	DB	04aH
	DB	049H
	DB	04aH
	DB	029H
	DB	04aH
	DB	048H
	DB	04aH
	DB	049H
	DB	042H
	DB	029H
	DB	04aH
	DB	049H
	DB	04aH
	DB	049H
	DB	042H
	DB	049H
	DB	04aH
	DB	029H
	DB	04aH
	DB	049H
	DB	04aH
	DB	049H
	DB	04aH
	DB	0efH
	DB	07bH
	DB	0efH
	DB	07bH
	DB	049H
	DB	04aH
	DB	049H
	DB	04aH
	DB	029H
	DB	04aH
	DB	049H
	DB	04aH
	DB	049H
	DB	042H
	DB	049H
	DB	04aH
	DB	049H
	DB	04aH
	DB	028H
	DB	04aH
	DB	049H
	DB	04aH
	DB	049H
	DB	04aH
	DB	028H
	DB	04aH
	DB	049H
	DB	04aH
	DB	049H
	DB	04aH
	DB	049H
	DB	04aH
	DB	049H
	DB	042H
	DB	049H
	DB	04aH
	DB	049H
	DB	04aH
	DB	049H
	DB	04aH
	DB	029H
	DB	04aH
	DB	049H
	DB	04aH
	DB	049H
	DB	04aH
	DB	029H
	DB	04aH
	DB	049H
	DB	04aH
	DB	049H
	DB	04aH
	DB	029H
	DB	04aH
	DB	049H
	DB	04aH
	DB	049H
	DB	04aH
	DB	049H
	DB	04aH
	DB	049H
	DB	04aH
	DB	049H
	DB	04aH
	DB	049H
	DB	04aH
	DB	049H
	DB	04aH
	DB	028H
	DB	04aH
	DB	049H
	DB	042H
	DB	049H
	DB	04aH
	DB	049H
	DB	04aH
	DB	049H
	DB	042H
	DB	049H
	DB	04aH
	DB	049H
	DB	04aH
	DB	029H
	DB	04aH
	DB	049H
	DB	04aH
	DB	049H
	DB	04aH
	DB	029H
	DB	04aH
	DB	049H
	DB	04aH
	DB	049H
	DB	04aH
	DB	029H
	DB	04aH
	DB	049H
	DB	04aH
	DB	048H
	DB	04aH
	DB	029H
	DB	042H
	DB	049H
	DB	04aH
	DB	049H
	DB	04aH
	DB	049H
	DB	042H
	DB	029H
	DB	04aH
	DB	049H
	DB	04aH
	DB	049H
	DB	04aH
	DB	049H
	DB	04aH
	DB	029H
	DB	04aH
	DB	049H
	DB	04aH
	DB	029H
	DB	04aH
	DB	049H
	DB	04aH
	DB	049H
	DB	04aH
	DB	029H
	DB	04aH
	DB	048H
	DB	04aH
	DB	049H
	DB	042H
	DB	029H
	DB	04aH
	DB	049H
	DB	04aH
	DB	049H
	DB	042H
	DB	049H
	DB	04aH
	DB	029H
	DB	04aH
	DB	049H
	DB	04aH
	DB	049H
	DB	04aH
	DB	049H
	DB	04aH
	DB	049H
	DB	04aH
	DB	049H
	DB	04aH
	DB	049H
	DB	04aH
	DB	029H
	DB	04aH
	DB	049H
	DB	04aH
	DB	048H
	DB	04aH
	DB	049H
	DB	042H
	DB	029H
	DB	04aH
	DB	049H
	DB	04aH
	DB	029H
	DB	042H
	DB	049H
	DB	04aH
	DB	029H
	DB	04aH
	DB	049H
	DB	04aH
	DB	049H
	DB	04aH
	DB	029H
	DB	04aH
	DB	049H
	DB	04aH
	DB	049H
	DB	04aH
	DB	049H
	DB	04aH
	DB	049H
	DB	04aH
	DB	049H
	DB	04aH
	DB	028H
	DB	04aH
	DB	049H
	DB	042H
	DB	049H
	DB	04aH
	DB	049H
	DB	04aH
	DB	049H
	DB	042H
	DB	049H
	DB	04aH
	DB	049H
	DB	04aH
	DB	029H
	DB	04aH
	DB	049H
	DB	04aH
	DB	049H
	DB	04aH
	DB	049H
	DB	04aH
	DB	029H
	DB	04aH
	DB	049H
	DB	04aH
	DB	029H
	DB	04aH
	DB	049H
	DB	04aH
	DB	028H
	DB	04aH
	DB	049H
	DB	042H
	DB	049H
	DB	04aH
	DB	029H
	DB	04aH
	DB	049H
	DB	042H
	DB	049H
	DB	04aH
	DB	049H
	DB	04aH
	DB	049H
	DB	04aH
	DB	049H
	DB	04aH
	DB	029H
	DB	04aH
	DB	049H
	DB	04aH
	DB	049H
	DB	04aH
	DB	049H
	DB	04aH
	DB	049H
	DB	04aH
	DB	049H
	DB	04aH
	DB	048H
	DB	04aH
	DB	029H
	DB	042H
	DB	049H
	DB	04aH
	DB	049H
	DB	04aH
	DB	049H
	DB	042H
	DB	029H
	DB	04aH
	DB	049H
	DB	04aH
	DB	029H
	DB	04aH
	DB	049H
	DB	04aH
	DB	029H
	DB	04aH
	DB	049H
	DB	04aH
	DB	049H
	DB	04aH
	DB	029H
	DB	04aH
	DB	049H
	DB	04aH
	DB	049H
	DB	04aH
	DB	048H
	DB	04aH
	DB	049H
	DB	042H
	DB	029H
	DB	04aH
	DB	049H
	DB	04aH
	DB	049H
	DB	042H
	DB	049H
	DB	04aH
	DB	049H
	DB	04aH
	DB	029H
	DB	04aH
	DB	049H
	DB	04aH
	DB	049H
	DB	04aH
	DB	049H
	DB	04aH
	DB	049H
	DB	04aH
	DB	049H
	DB	04aH
	DB	049H
	DB	04aH
	DB	049H
	DB	04aH
	DB	049H
	DB	04aH
	DB	029H
	DB	04aH
	DB	049H
	DB	04aH
	DB	049H
	DB	04aH
	DB	049H
	DB	04aH
	DB	049H
	DB	04aH
	DB	049H
	DB	04aH
	DB	048H
	DB	04aH
	DB	049H
	DB	04aH
	DB	029H
	DB	04aH
	DB	049H
	DB	04aH
	DB	0efH
	DB	07bH
	DB	0efH
	DB	07bH
	DB	049H
	DB	04aH
	DB	049H
	DB	04aH
	DB	049H
	DB	04aH
	DB	029H
	DB	04aH
	DB	049H
	DB	04aH
	DB	029H
	DB	04aH
	DB	049H
	DB	04aH
	DB	049H
	DB	04aH
	DB	049H
	DB	04aH
	DB	049H
	DB	04aH
	DB	029H
	DB	04aH
	DB	049H
	DB	04aH
	DB	049H
	DB	04aH
	DB	029H
	DB	04aH
	DB	049H
	DB	04aH
	DB	029H
	DB	04aH
	DB	049H
	DB	04aH
	DB	048H
	DB	04aH
	DB	049H
	DB	04aH
	DB	049H
	DB	04aH
	DB	048H
	DB	04aH
	DB	029H
	DB	04aH
	DB	049H
	DB	042H
	DB	049H
	DB	04aH
	DB	048H
	DB	04aH
	DB	049H
	DB	042H
	DB	029H
	DB	04aH
	DB	028H
	DB	04aH
	DB	049H
	DB	04aH
	DB	049H
	DB	04aH
	DB	029H
	DB	042H
	DB	049H
	DB	04aH
	DB	049H
	DB	04aH
	DB	029H
	DB	04aH
	DB	049H
	DB	04aH
	DB	029H
	DB	04aH
	DB	049H
	DB	04aH
	DB	049H
	DB	04aH
	DB	048H
	DB	042H
	DB	049H
	DB	04aH
	DB	049H
	DB	04aH
	DB	048H
	DB	042H
	DB	029H
	DB	04aH
	DB	049H
	DB	04aH
	DB	049H
	DB	04aH
	DB	049H
	DB	042H
	DB	049H
	DB	04aH
	DB	049H
	DB	04aH
	DB	049H
	DB	04aH
	DB	029H
	DB	04aH
	DB	049H
	DB	04aH
	DB	049H
	DB	04aH
	DB	049H
	DB	04aH
	DB	028H
	DB	042H
	DB	049H
	DB	04aH
	DB	049H
	DB	04aH
	DB	048H
	DB	042H
	DB	049H
	DB	04aH
	DB	049H
	DB	04aH
	DB	029H
	DB	04aH
	DB	049H
	DB	042H
	DB	049H
	DB	04aH
	DB	049H
	DB	04aH
	DB	049H
	DB	04aH
	DB	049H
	DB	04aH
	DB	049H
	DB	04aH
	DB	049H
	DB	04aH
	DB	029H
	DB	04aH
	DB	048H
	DB	042H
	DB	049H
	DB	04aH
	DB	029H
	DB	04aH
	DB	048H
	DB	042H
	DB	029H
	DB	04aH
	DB	049H
	DB	04aH
	DB	049H
	DB	04aH
	DB	049H
	DB	042H
	DB	029H
	DB	04aH
	DB	049H
	DB	04aH
	DB	049H
	DB	04aH
	DB	049H
	DB	04aH
	DB	049H
	DB	04aH
	DB	049H
	DB	04aH
	DB	029H
	DB	04aH
	DB	048H
	DB	042H
	DB	049H
	DB	04aH
	DB	049H
	DB	04aH
	DB	048H
	DB	042H
	DB	029H
	DB	04aH
	DB	049H
	DB	04aH
	DB	029H
	DB	04aH
	DB	049H
	DB	042H
	DB	049H
	DB	04aH
	DB	049H
	DB	04aH
	DB	029H
	DB	04aH
	DB	049H
	DB	04aH
	DB	049H
	DB	04aH
	DB	029H
	DB	04aH
	DB	049H
	DB	04aH
	DB	048H
	DB	042H
	DB	049H
	DB	04aH
	DB	029H
	DB	04aH
	DB	048H
	DB	042H
	DB	049H
	DB	04aH
	DB	049H
	DB	04aH
	DB	049H
	DB	04aH
	DB	049H
	DB	042H
	DB	029H
	DB	04aH
	DB	049H
	DB	04aH
	DB	049H
	DB	04aH
	DB	049H
	DB	04aH
	DB	049H
	DB	04aH
	DB	029H
	DB	04aH
	DB	049H
	DB	04aH
	DB	028H
	DB	042H
	DB	049H
	DB	04aH
	DB	049H
	DB	04aH
	DB	048H
	DB	042H
	DB	029H
	DB	04aH
	DB	049H
	DB	04aH
	DB	049H
	DB	04aH
	DB	029H
	DB	042H
	DB	049H
	DB	04aH
	DB	049H
	DB	04aH
	DB	049H
	DB	04aH
	DB	029H
	DB	04aH
	DB	049H
	DB	04aH
	DB	049H
	DB	04aH
	DB	049H
	DB	04aH
	DB	048H
	DB	042H
	DB	049H
	DB	04aH
	DB	029H
	DB	04aH
	DB	048H
	DB	042H
	DB	049H
	DB	04aH
	DB	049H
	DB	04aH
	DB	049H
	DB	04aH
	DB	029H
	DB	042H
	DB	049H
	DB	04aH
	DB	049H
	DB	04aH
	DB	029H
	DB	04aH
	DB	049H
	DB	04aH
	DB	049H
	DB	04aH
	DB	029H
	DB	04aH
	DB	049H
	DB	04aH
	DB	048H
	DB	042H
	DB	049H
	DB	04aH
	DB	029H
	DB	04aH
	DB	048H
	DB	042H
	DB	049H
	DB	04aH
	DB	029H
	DB	04aH
	DB	048H
	DB	04aH
	DB	029H
	DB	042H
	DB	049H
	DB	04aH
	DB	049H
	DB	04aH
	DB	049H
	DB	042H
	DB	029H
	DB	04aH
	DB	049H
	DB	04aH
	DB	048H
	DB	04aH
	DB	029H
	DB	04aH
	DB	029H
	DB	04aH
	DB	049H
	DB	04aH
	DB	049H
	DB	04aH
	DB	049H
	DB	04aH
	DB	049H
	DB	04aH
	DB	0efH
	DB	07bH
	DB	0efH
	DB	07bH
	DB	049H
	DB	04aH
	DB	029H
	DB	04aH
	DB	049H
	DB	04aH
	DB	049H
	DB	04aH
	DB	048H
	DB	04aH
	DB	049H
	DB	04aH
	DB	029H
	DB	042H
	DB	049H
	DB	04aH
	DB	049H
	DB	04aH
	DB	029H
	DB	042H
	DB	049H
	DB	04aH
	DB	048H
	DB	04aH
	DB	049H
	DB	042H
	DB	049H
	DB	04aH
	DB	028H
	DB	04aH
	DB	049H
	DB	04aH
	DB	049H
	DB	042H
	DB	029H
	DB	04aH
	DB	049H
	DB	04aH
	DB	049H
	DB	042H
	DB	029H
	DB	04aH
	DB	049H
	DB	04aH
	DB	049H
	DB	04aH
	DB	029H
	DB	04aH
	DB	049H
	DB	04aH
	DB	049H
	DB	04aH
	DB	049H
	DB	04aH
	DB	049H
	DB	04aH
	DB	049H
	DB	04aH
	DB	029H
	DB	04aH
	DB	048H
	DB	04aH
	DB	049H
	DB	04aH
	DB	049H
	DB	04aH
	DB	049H
	DB	04aH
	DB	049H
	DB	04aH
	DB	028H
	DB	04aH
	DB	049H
	DB	04aH
	DB	029H
	DB	04aH
	DB	029H
	DB	04aH
	DB	049H
	DB	04aH
	DB	049H
	DB	04aH
	DB	029H
	DB	04aH
	DB	049H
	DB	04aH
	DB	048H
	DB	04aH
	DB	049H
	DB	04aH
	DB	029H
	DB	04aH
	DB	048H
	DB	04aH
	DB	049H
	DB	04aH
	DB	029H
	DB	04aH
	DB	049H
	DB	04aH
	DB	048H
	DB	04aH
	DB	049H
	DB	04aH
	DB	049H
	DB	04aH
	DB	049H
	DB	04aH
	DB	029H
	DB	04aH
	DB	049H
	DB	04aH
	DB	049H
	DB	04aH
	DB	029H
	DB	04aH
	DB	048H
	DB	04aH
	DB	049H
	DB	04aH
	DB	049H
	DB	04aH
	DB	028H
	DB	04aH
	DB	049H
	DB	04aH
	DB	029H
	DB	04aH
	DB	049H
	DB	04aH
	DB	048H
	DB	04aH
	DB	029H
	DB	04aH
	DB	049H
	DB	04aH
	DB	049H
	DB	04aH
	DB	049H
	DB	04aH
	DB	049H
	DB	04aH
	DB	049H
	DB	04aH
	DB	049H
	DB	04aH
	DB	028H
	DB	04aH
	DB	049H
	DB	04aH
	DB	049H
	DB	04aH
	DB	048H
	DB	04aH
	DB	029H
	DB	04aH
	DB	049H
	DB	04aH
	DB	049H
	DB	04aH
	DB	028H
	DB	04aH
	DB	049H
	DB	04aH
	DB	049H
	DB	04aH
	DB	049H
	DB	04aH
	DB	029H
	DB	04aH
	DB	049H
	DB	04aH
	DB	049H
	DB	04aH
	DB	049H
	DB	04aH
	DB	048H
	DB	04aH
	DB	029H
	DB	04aH
	DB	049H
	DB	04aH
	DB	048H
	DB	04aH
	DB	049H
	DB	04aH
	DB	049H
	DB	04aH
	DB	029H
	DB	04aH
	DB	048H
	DB	04aH
	DB	049H
	DB	04aH
	DB	029H
	DB	04aH
	DB	049H
	DB	04aH
	DB	049H
	DB	04aH
	DB	049H
	DB	04aH
	DB	029H
	DB	04aH
	DB	049H
	DB	04aH
	DB	048H
	DB	04aH
	DB	029H
	DB	04aH
	DB	049H
	DB	04aH
	DB	048H
	DB	04aH
	DB	049H
	DB	04aH
	DB	029H
	DB	04aH
	DB	049H
	DB	04aH
	DB	048H
	DB	04aH
	DB	049H
	DB	04aH
	DB	049H
	DB	04aH
	DB	029H
	DB	04aH
	DB	049H
	DB	04aH
	DB	049H
	DB	04aH
	DB	049H
	DB	04aH
	DB	049H
	DB	04aH
	DB	028H
	DB	04aH
	DB	049H
	DB	04aH
	DB	049H
	DB	04aH
	DB	028H
	DB	04aH
	DB	049H
	DB	04aH
	DB	049H
	DB	04aH
	DB	049H
	DB	04aH
	DB	028H
	DB	04aH
	DB	049H
	DB	04aH
	DB	049H
	DB	04aH
	DB	029H
	DB	04aH
	DB	049H
	DB	04aH
	DB	049H
	DB	04aH
	DB	049H
	DB	04aH
	DB	029H
	DB	04aH
	DB	048H
	DB	04aH
	DB	049H
	DB	04aH
	DB	049H
	DB	04aH
	DB	028H
	DB	04aH
	DB	049H
	DB	04aH
	DB	049H
	DB	04aH
	DB	049H
	DB	04aH
	DB	048H
	DB	04aH
	DB	029H
	DB	04aH
	DB	049H
	DB	04aH
	DB	049H
	DB	04aH
	DB	049H
	DB	04aH
	DB	049H
	DB	04aH
	DB	029H
	DB	04aH
	DB	049H
	DB	04aH
	DB	049H
	DB	04aH
	DB	029H
	DB	04aH
	DB	049H
	DB	04aH
	DB	049H
	DB	04aH
	DB	028H
	DB	04aH
	DB	049H
	DB	04aH
	DB	049H
	DB	04aH
	DB	029H
	DB	042H
	DB	049H
	DB	04aH
	DB	049H
	DB	04aH
	DB	049H
	DB	042H
	DB	029H
	DB	04aH
	DB	049H
	DB	04aH
	DB	049H
	DB	04aH
	DB	049H
	DB	04aH
	DB	0cfH
	DB	07bH
	DB	0efH
	DB	07bH
	DB	049H
	DB	04aH
	DB	049H
	DB	04aH
	DB	049H
	DB	04aH
	DB	029H
	DB	04aH
	DB	049H
	DB	04aH
	DB	049H
	DB	04aH
	DB	049H
	DB	04aH
	DB	028H
	DB	04aH
	DB	049H
	DB	04aH
	DB	049H
	DB	04aH
	DB	049H
	DB	04aH
	DB	029H
	DB	04aH
	DB	049H
	DB	04aH
	DB	049H
	DB	04aH
	DB	049H
	DB	04aH
	DB	049H
	DB	04aH
	DB	049H
	DB	04aH
	DB	029H
	DB	04aH
	DB	049H
	DB	04aH
	DB	049H
	DB	04aH
	DB	049H
	DB	04aH
	DB	048H
	DB	04aH
	DB	049H
	DB	04aH
	DB	029H
	DB	04aH
	DB	049H
	DB	04aH
	DB	049H
	DB	04aH
	DB	029H
	DB	042H
	DB	049H
	DB	04aH
	DB	049H
	DB	04aH
	DB	049H
	DB	042H
	DB	029H
	DB	04aH
	DB	049H
	DB	04aH
	DB	049H
	DB	042H
	DB	029H
	DB	04aH
	DB	049H
	DB	04aH
	DB	049H
	DB	042H
	DB	049H
	DB	04aH
	DB	049H
	DB	04aH
	DB	049H
	DB	04aH
	DB	049H
	DB	04aH
	DB	029H
	DB	04aH
	DB	049H
	DB	04aH
	DB	049H
	DB	04aH
	DB	049H
	DB	042H
	DB	029H
	DB	04aH
	DB	049H
	DB	04aH
	DB	049H
	DB	04aH
	DB	029H
	DB	042H
	DB	049H
	DB	04aH
	DB	049H
	DB	04aH
	DB	029H
	DB	042H
	DB	029H
	DB	04aH
	DB	049H
	DB	04aH
	DB	049H
	DB	04aH
	DB	049H
	DB	04aH
	DB	029H
	DB	04aH
	DB	049H
	DB	04aH
	DB	049H
	DB	04aH
	DB	029H
	DB	042H
	DB	049H
	DB	04aH
	DB	049H
	DB	04aH
	DB	049H
	DB	04aH
	DB	029H
	DB	042H
	DB	049H
	DB	04aH
	DB	049H
	DB	04aH
	DB	029H
	DB	042H
	DB	049H
	DB	04aH
	DB	049H
	DB	04aH
	DB	049H
	DB	04aH
	DB	029H
	DB	04aH
	DB	049H
	DB	04aH
	DB	049H
	DB	04aH
	DB	049H
	DB	04aH
	DB	029H
	DB	042H
	DB	049H
	DB	04aH
	DB	049H
	DB	04aH
	DB	049H
	DB	04aH
	DB	049H
	DB	042H
	DB	029H
	DB	04aH
	DB	049H
	DB	04aH
	DB	049H
	DB	042H
	DB	029H
	DB	04aH
	DB	049H
	DB	04aH
	DB	049H
	DB	04aH
	DB	029H
	DB	04aH
	DB	049H
	DB	04aH
	DB	049H
	DB	04aH
	DB	029H
	DB	04aH
	DB	049H
	DB	042H
	DB	049H
	DB	04aH
	DB	029H
	DB	04aH
	DB	049H
	DB	04aH
	DB	049H
	DB	042H
	DB	029H
	DB	04aH
	DB	049H
	DB	04aH
	DB	049H
	DB	042H
	DB	049H
	DB	04aH
	DB	049H
	DB	04aH
	DB	029H
	DB	04aH
	DB	049H
	DB	04aH
	DB	049H
	DB	04aH
	DB	049H
	DB	04aH
	DB	029H
	DB	04aH
	DB	049H
	DB	042H
	DB	049H
	DB	04aH
	DB	029H
	DB	04aH
	DB	049H
	DB	04aH
	DB	049H
	DB	042H
	DB	029H
	DB	04aH
	DB	049H
	DB	04aH
	DB	049H
	DB	042H
	DB	029H
	DB	04aH
	DB	049H
	DB	04aH
	DB	049H
	DB	04aH
	DB	029H
	DB	04aH
	DB	049H
	DB	04aH
	DB	049H
	DB	04aH
	DB	029H
	DB	04aH
	DB	049H
	DB	042H
	DB	049H
	DB	04aH
	DB	049H
	DB	04aH
	DB	049H
	DB	04aH
	DB	029H
	DB	042H
	DB	049H
	DB	04aH
	DB	049H
	DB	04aH
	DB	049H
	DB	042H
	DB	029H
	DB	04aH
	DB	049H
	DB	04aH
	DB	049H
	DB	04aH
	DB	029H
	DB	04aH
	DB	049H
	DB	04aH
	DB	049H
	DB	04aH
	DB	029H
	DB	04aH
	DB	049H
	DB	042H
	DB	049H
	DB	04aH
	DB	049H
	DB	04aH
	DB	049H
	DB	04aH
	DB	029H
	DB	042H
	DB	049H
	DB	04aH
	DB	049H
	DB	04aH
	DB	029H
	DB	042H
	DB	049H
	DB	04aH
	DB	049H
	DB	04aH
	DB	029H
	DB	04aH
	DB	049H
	DB	04aH
	DB	049H
	DB	04aH
	DB	049H
	DB	04aH
	DB	048H
	DB	04aH
	DB	049H
	DB	042H
	DB	049H
	DB	04aH
	DB	049H
	DB	04aH
	DB	049H
	DB	04aH
	DB	049H
	DB	04aH
	DB	049H
	DB	04aH
	DB	048H
	DB	04aH
	DB	049H
	DB	04aH
	DB	049H
	DB	04aH
	DB	049H
	DB	04aH
	DB	048H
	DB	04aH
	DB	049H
	DB	04aH
	DB	029H
	DB	04aH
	DB	049H
	DB	04aH
	DB	049H
	DB	04aH
	DB	0efH
	DB	07bH
	DB	0efH
	DB	07bH
	DB	049H
	DB	04aH
	DB	049H
	DB	04aH
	DB	049H
	DB	04aH
	DB	029H
	DB	04aH
	DB	049H
	DB	042H
	DB	049H
	DB	04aH
	DB	049H
	DB	04aH
	DB	049H
	DB	04aH
	DB	029H
	DB	04aH
	DB	048H
	DB	04aH
	DB	049H
	DB	042H
	DB	049H
	DB	04aH
	DB	029H
	DB	04aH
	DB	049H
	DB	04aH
	DB	029H
	DB	042H
	DB	048H
	DB	04aH
	DB	049H
	DB	04aH
	DB	049H
	DB	04aH
	DB	028H
	DB	04aH
	DB	049H
	DB	04aH
	DB	049H
	DB	042H
	DB	029H
	DB	04aH
	DB	049H
	DB	04aH
	DB	048H
	DB	042H
	DB	049H
	DB	04aH
	DB	049H
	DB	04aH
	DB	028H
	DB	04aH
	DB	049H
	DB	04aH
	DB	049H
	DB	04aH
	DB	048H
	DB	04aH
	DB	029H
	DB	04aH
	DB	049H
	DB	04aH
	DB	048H
	DB	04aH
	DB	029H
	DB	04aH
	DB	049H
	DB	04aH
	DB	049H
	DB	04aH
	DB	029H
	DB	04aH
	DB	048H
	DB	042H
	DB	049H
	DB	04aH
	DB	049H
	DB	04aH
	DB	048H
	DB	042H
	DB	049H
	DB	04aH
	DB	049H
	DB	04aH
	DB	029H
	DB	04aH
	DB	049H
	DB	04aH
	DB	049H
	DB	04aH
	DB	049H
	DB	04aH
	DB	049H
	DB	04aH
	DB	048H
	DB	04aH
	DB	049H
	DB	04aH
	DB	049H
	DB	04aH
	DB	049H
	DB	04aH
	DB	028H
	DB	042H
	DB	049H
	DB	04aH
	DB	049H
	DB	04aH
	DB	048H
	DB	042H
	DB	049H
	DB	04aH
	DB	049H
	DB	04aH
	DB	049H
	DB	04aH
	DB	029H
	DB	04aH
	DB	049H
	DB	04aH
	DB	049H
	DB	04aH
	DB	049H
	DB	04aH
	DB	048H
	DB	04aH
	DB	049H
	DB	04aH
	DB	049H
	DB	04aH
	DB	049H
	DB	04aH
	DB	048H
	DB	042H
	DB	029H
	DB	04aH
	DB	049H
	DB	04aH
	DB	028H
	DB	042H
	DB	049H
	DB	04aH
	DB	049H
	DB	04aH
	DB	049H
	DB	04aH
	DB	029H
	DB	04aH
	DB	049H
	DB	04aH
	DB	049H
	DB	04aH
	DB	029H
	DB	04aH
	DB	048H
	DB	04aH
	DB	049H
	DB	04aH
	DB	049H
	DB	04aH
	DB	049H
	DB	04aH
	DB	048H
	DB	042H
	DB	049H
	DB	04aH
	DB	049H
	DB	04aH
	DB	048H
	DB	042H
	DB	029H
	DB	04aH
	DB	049H
	DB	04aH
	DB	049H
	DB	04aH
	DB	049H
	DB	04aH
	DB	049H
	DB	04aH
	DB	029H
	DB	04aH
	DB	049H
	DB	04aH
	DB	048H
	DB	04aH
	DB	049H
	DB	04aH
	DB	029H
	DB	04aH
	DB	049H
	DB	04aH
	DB	048H
	DB	042H
	DB	049H
	DB	04aH
	DB	029H
	DB	04aH
	DB	048H
	DB	042H
	DB	049H
	DB	04aH
	DB	049H
	DB	04aH
	DB	049H
	DB	04aH
	DB	049H
	DB	04aH
	DB	049H
	DB	04aH
	DB	049H
	DB	04aH
	DB	049H
	DB	04aH
	DB	048H
	DB	04aH
	DB	049H
	DB	04aH
	DB	029H
	DB	04aH
	DB	049H
	DB	04aH
	DB	048H
	DB	042H
	DB	049H
	DB	04aH
	DB	049H
	DB	04aH
	DB	028H
	DB	042H
	DB	049H
	DB	04aH
	DB	049H
	DB	04aH
	DB	049H
	DB	04aH
	DB	029H
	DB	04aH
	DB	049H
	DB	04aH
	DB	049H
	DB	04aH
	DB	049H
	DB	04aH
	DB	028H
	DB	04aH
	DB	049H
	DB	04aH
	DB	049H
	DB	04aH
	DB	049H
	DB	04aH
	DB	048H
	DB	042H
	DB	049H
	DB	04aH
	DB	049H
	DB	04aH
	DB	048H
	DB	042H
	DB	049H
	DB	04aH
	DB	049H
	DB	04aH
	DB	029H
	DB	04aH
	DB	049H
	DB	04aH
	DB	049H
	DB	04aH
	DB	029H
	DB	04aH
	DB	049H
	DB	04aH
	DB	048H
	DB	04aH
	DB	049H
	DB	04aH
	DB	049H
	DB	04aH
	DB	049H
	DB	04aH
	DB	048H
	DB	042H
	DB	029H
	DB	04aH
	DB	049H
	DB	04aH
	DB	028H
	DB	042H
	DB	049H
	DB	04aH
	DB	029H
	DB	04aH
	DB	049H
	DB	04aH
	DB	029H
	DB	04aH
	DB	048H
	DB	04aH
	DB	029H
	DB	042H
	DB	049H
	DB	04aH
	DB	029H
	DB	04aH
	DB	049H
	DB	04aH
	DB	049H
	DB	04aH
	DB	029H
	DB	04aH
	DB	029H
	DB	04aH
	DB	049H
	DB	04aH
	DB	049H
	DB	042H
	DB	048H
	DB	04aH
	DB	029H
	DB	04aH
	DB	049H
	DB	04aH
	DB	0efH
	DB	07bH
	DB	0cfH
	DB	07bH
	DB	049H
	DB	04aH
	DB	049H
	DB	04aH
	DB	029H
	DB	04aH
	DB	049H
	DB	04aH
	DB	048H
	DB	04aH
	DB	029H
	DB	04aH
	DB	049H
	DB	04aH
	DB	049H
	DB	042H
	DB	049H
	DB	04aH
	DB	029H
	DB	04aH
	DB	049H
	DB	04aH
	DB	049H
	DB	04aH
	DB	048H
	DB	04aH
	DB	049H
	DB	04aH
	DB	049H
	DB	04aH
	DB	029H
	DB	04aH
	DB	049H
	DB	042H
	DB	049H
	DB	04aH
	DB	029H
	DB	04aH
	DB	049H
	DB	04aH
	DB	049H
	DB	04aH
	DB	029H
	DB	04aH
	DB	049H
	DB	04aH
	DB	049H
	DB	04aH
	DB	029H
	DB	04aH
	DB	049H
	DB	04aH
	DB	049H
	DB	04aH
	DB	029H
	DB	04aH
	DB	049H
	DB	04aH
	DB	049H
	DB	04aH
	DB	049H
	DB	04aH
	DB	049H
	DB	04aH
	DB	049H
	DB	04aH
	DB	049H
	DB	04aH
	DB	048H
	DB	04aH
	DB	049H
	DB	04aH
	DB	029H
	DB	04aH
	DB	049H
	DB	04aH
	DB	049H
	DB	04aH
	DB	029H
	DB	04aH
	DB	049H
	DB	04aH
	DB	049H
	DB	04aH
	DB	028H
	DB	04aH
	DB	049H
	DB	04aH
	DB	049H
	DB	04aH
	DB	028H
	DB	042H
	DB	049H
	DB	04aH
	DB	049H
	DB	04aH
	DB	029H
	DB	04aH
	DB	049H
	DB	04aH
	DB	049H
	DB	04aH
	DB	049H
	DB	04aH
	DB	049H
	DB	04aH
	DB	029H
	DB	04aH
	DB	049H
	DB	04aH
	DB	049H
	DB	04aH
	DB	029H
	DB	04aH
	DB	048H
	DB	04aH
	DB	049H
	DB	04aH
	DB	049H
	DB	04aH
	DB	028H
	DB	042H
	DB	049H
	DB	04aH
	DB	049H
	DB	04aH
	DB	029H
	DB	04aH
	DB	049H
	DB	04aH
	DB	029H
	DB	04aH
	DB	049H
	DB	04aH
	DB	049H
	DB	04aH
	DB	049H
	DB	04aH
	DB	049H
	DB	04aH
	DB	049H
	DB	04aH
	DB	029H
	DB	04aH
	DB	048H
	DB	04aH
	DB	049H
	DB	04aH
	DB	049H
	DB	04aH
	DB	028H
	DB	042H
	DB	049H
	DB	04aH
	DB	049H
	DB	04aH
	DB	049H
	DB	04aH
	DB	029H
	DB	04aH
	DB	049H
	DB	04aH
	DB	049H
	DB	04aH
	DB	029H
	DB	04aH
	DB	049H
	DB	04aH
	DB	049H
	DB	04aH
	DB	029H
	DB	04aH
	DB	049H
	DB	04aH
	DB	048H
	DB	04aH
	DB	049H
	DB	04aH
	DB	029H
	DB	04aH
	DB	048H
	DB	042H
	DB	049H
	DB	04aH
	DB	049H
	DB	04aH
	DB	049H
	DB	04aH
	DB	029H
	DB	04aH
	DB	049H
	DB	04aH
	DB	049H
	DB	04aH
	DB	029H
	DB	04aH
	DB	049H
	DB	04aH
	DB	049H
	DB	04aH
	DB	029H
	DB	04aH
	DB	049H
	DB	04aH
	DB	048H
	DB	04aH
	DB	029H
	DB	04aH
	DB	049H
	DB	04aH
	DB	028H
	DB	042H
	DB	049H
	DB	04aH
	DB	029H
	DB	04aH
	DB	049H
	DB	04aH
	DB	049H
	DB	04aH
	DB	049H
	DB	04aH
	DB	049H
	DB	04aH
	DB	029H
	DB	04aH
	DB	049H
	DB	04aH
	DB	049H
	DB	04aH
	DB	049H
	DB	04aH
	DB	029H
	DB	04aH
	DB	048H
	DB	04aH
	DB	049H
	DB	04aH
	DB	029H
	DB	04aH
	DB	048H
	DB	042H
	DB	049H
	DB	04aH
	DB	029H
	DB	04aH
	DB	049H
	DB	04aH
	DB	049H
	DB	04aH
	DB	029H
	DB	04aH
	DB	049H
	DB	04aH
	DB	029H
	DB	04aH
	DB	049H
	DB	04aH
	DB	049H
	DB	04aH
	DB	029H
	DB	04aH
	DB	049H
	DB	04aH
	DB	048H
	DB	04aH
	DB	029H
	DB	04aH
	DB	049H
	DB	04aH
	DB	048H
	DB	042H
	DB	049H
	DB	04aH
	DB	029H
	DB	04aH
	DB	049H
	DB	04aH
	DB	029H
	DB	04aH
	DB	049H
	DB	04aH
	DB	049H
	DB	04aH
	DB	029H
	DB	04aH
	DB	049H
	DB	04aH
	DB	049H
	DB	04aH
	DB	049H
	DB	04aH
	DB	049H
	DB	04aH
	DB	049H
	DB	04aH
	DB	029H
	DB	04aH
	DB	049H
	DB	04aH
	DB	049H
	DB	04aH
	DB	049H
	DB	04aH
	DB	029H
	DB	04aH
	DB	049H
	DB	042H
	DB	049H
	DB	04aH
	DB	028H
	DB	04aH
	DB	049H
	DB	042H
	DB	049H
	DB	04aH
	DB	049H
	DB	04aH
	DB	029H
	DB	04aH
	DB	049H
	DB	04aH
	DB	049H
	DB	04aH
	DB	049H
	DB	04aH
	DB	0efH
	DB	07bH
	DB	0efH
	DB	07bH
	DB	049H
	DB	04aH
	DB	049H
	DB	04aH
	DB	049H
	DB	04aH
	DB	049H
	DB	04aH
	DB	049H
	DB	04aH
	DB	029H
	DB	04aH
	DB	049H
	DB	04aH
	DB	048H
	DB	04aH
	DB	049H
	DB	04aH
	DB	049H
	DB	04aH
	DB	029H
	DB	04aH
	DB	049H
	DB	04aH
	DB	049H
	DB	042H
	DB	029H
	DB	04aH
	DB	049H
	DB	04aH
	DB	049H
	DB	04aH
	DB	049H
	DB	04aH
	DB	049H
	DB	04aH
	DB	049H
	DB	04aH
	DB	048H
	DB	042H
	DB	049H
	DB	04aH
	DB	049H
	DB	04aH
	DB	049H
	DB	04aH
	DB	029H
	DB	04aH
	DB	049H
	DB	042H
	DB	049H
	DB	04aH
	DB	049H
	DB	04aH
	DB	048H
	DB	042H
	DB	029H
	DB	04aH
	DB	049H
	DB	04aH
	DB	049H
	DB	042H
	DB	029H
	DB	04aH
	DB	049H
	DB	04aH
	DB	029H
	DB	042H
	DB	049H
	DB	04aH
	DB	049H
	DB	04aH
	DB	049H
	DB	042H
	DB	049H
	DB	04aH
	DB	029H
	DB	04aH
	DB	049H
	DB	04aH
	DB	049H
	DB	04aH
	DB	029H
	DB	042H
	DB	049H
	DB	04aH
	DB	049H
	DB	04aH
	DB	049H
	DB	04aH
	DB	029H
	DB	04aH
	DB	049H
	DB	04aH
	DB	049H
	DB	04aH
	DB	029H
	DB	042H
	DB	049H
	DB	04aH
	DB	028H
	DB	04aH
	DB	049H
	DB	042H
	DB	049H
	DB	04aH
	DB	049H
	DB	04aH
	DB	029H
	DB	04aH
	DB	049H
	DB	04aH
	DB	049H
	DB	042H
	DB	029H
	DB	04aH
	DB	049H
	DB	04aH
	DB	049H
	DB	04aH
	DB	049H
	DB	04aH
	DB	029H
	DB	04aH
	DB	049H
	DB	04aH
	DB	049H
	DB	042H
	DB	029H
	DB	04aH
	DB	048H
	DB	04aH
	DB	049H
	DB	042H
	DB	029H
	DB	04aH
	DB	049H
	DB	04aH
	DB	049H
	DB	04aH
	DB	049H
	DB	04aH
	DB	029H
	DB	042H
	DB	049H
	DB	04aH
	DB	049H
	DB	04aH
	DB	029H
	DB	04aH
	DB	049H
	DB	04aH
	DB	049H
	DB	04aH
	DB	049H
	DB	04aH
	DB	029H
	DB	042H
	DB	049H
	DB	04aH
	DB	048H
	DB	04aH
	DB	029H
	DB	042H
	DB	049H
	DB	04aH
	DB	049H
	DB	04aH
	DB	029H
	DB	04aH
	DB	049H
	DB	04aH
	DB	049H
	DB	042H
	DB	049H
	DB	04aH
	DB	029H
	DB	04aH
	DB	049H
	DB	04aH
	DB	049H
	DB	04aH
	DB	029H
	DB	04aH
	DB	049H
	DB	04aH
	DB	049H
	DB	042H
	DB	029H
	DB	04aH
	DB	048H
	DB	04aH
	DB	049H
	DB	042H
	DB	049H
	DB	04aH
	DB	049H
	DB	04aH
	DB	049H
	DB	04aH
	DB	049H
	DB	04aH
	DB	029H
	DB	042H
	DB	049H
	DB	04aH
	DB	049H
	DB	04aH
	DB	029H
	DB	04aH
	DB	049H
	DB	04aH
	DB	049H
	DB	04aH
	DB	049H
	DB	04aH
	DB	029H
	DB	042H
	DB	049H
	DB	04aH
	DB	048H
	DB	04aH
	DB	029H
	DB	042H
	DB	049H
	DB	04aH
	DB	049H
	DB	04aH
	DB	049H
	DB	04aH
	DB	049H
	DB	04aH
	DB	049H
	DB	042H
	DB	049H
	DB	04aH
	DB	049H
	DB	04aH
	DB	049H
	DB	04aH
	DB	049H
	DB	04aH
	DB	049H
	DB	04aH
	DB	029H
	DB	04aH
	DB	049H
	DB	042H
	DB	049H
	DB	04aH
	DB	048H
	DB	04aH
	DB	029H
	DB	042H
	DB	049H
	DB	04aH
	DB	049H
	DB	04aH
	DB	029H
	DB	04aH
	DB	049H
	DB	04aH
	DB	049H
	DB	042H
	DB	049H
	DB	04aH
	DB	049H
	DB	04aH
	DB	029H
	DB	04aH
	DB	049H
	DB	04aH
	DB	049H
	DB	04aH
	DB	049H
	DB	04aH
	DB	049H
	DB	042H
	DB	029H
	DB	04aH
	DB	048H
	DB	04aH
	DB	049H
	DB	042H
	DB	049H
	DB	04aH
	DB	049H
	DB	04aH
	DB	049H
	DB	04aH
	DB	029H
	DB	04aH
	DB	049H
	DB	042H
	DB	048H
	DB	04aH
	DB	049H
	DB	04aH
	DB	049H
	DB	042H
	DB	049H
	DB	04aH
	DB	049H
	DB	04aH
	DB	048H
	DB	04aH
	DB	049H
	DB	04aH
	DB	049H
	DB	04aH
	DB	049H
	DB	04aH
	DB	049H
	DB	04aH
	DB	049H
	DB	04aH
	DB	048H
	DB	04aH
	DB	049H
	DB	04aH
	DB	049H
	DB	04aH
	DB	049H
	DB	04aH
	DB	049H
	DB	04aH
	DB	0efH
	DB	07bH
	DB	0efH
	DB	07bH
	DB	049H
	DB	04aH
	DB	029H
	DB	04aH
	DB	049H
	DB	04aH
	DB	049H
	DB	04aH
	DB	029H
	DB	042H
	DB	049H
	DB	04aH
	DB	049H
	DB	04aH
	DB	029H
	DB	04aH
	DB	049H
	DB	042H
	DB	049H
	DB	04aH
	DB	028H
	DB	04aH
	DB	049H
	DB	04aH
	DB	049H
	DB	04aH
	DB	029H
	DB	04aH
	DB	048H
	DB	04aH
	DB	049H
	DB	04aH
	DB	029H
	DB	04aH
	DB	048H
	DB	04aH
	DB	029H
	DB	04aH
	DB	049H
	DB	04aH
	DB	029H
	DB	04aH
	DB	049H
	DB	04aH
	DB	048H
	DB	042H
	DB	049H
	DB	04aH
	DB	049H
	DB	04aH
	DB	028H
	DB	04aH
	DB	049H
	DB	04aH
	DB	049H
	DB	04aH
	DB	049H
	DB	04aH
	DB	029H
	DB	04aH
	DB	048H
	DB	04aH
	DB	049H
	DB	04aH
	DB	029H
	DB	04aH
	DB	049H
	DB	04aH
	DB	049H
	DB	04aH
	DB	029H
	DB	04aH
	DB	048H
	DB	04aH
	DB	049H
	DB	04aH
	DB	049H
	DB	04aH
	DB	048H
	DB	04aH
	DB	049H
	DB	04aH
	DB	049H
	DB	04aH
	DB	029H
	DB	04aH
	DB	049H
	DB	04aH
	DB	049H
	DB	042H
	DB	049H
	DB	04aH
	DB	048H
	DB	04aH
	DB	049H
	DB	04aH
	DB	049H
	DB	04aH
	DB	049H
	DB	04aH
	DB	049H
	DB	04aH
	DB	029H
	DB	04aH
	DB	049H
	DB	04aH
	DB	048H
	DB	04aH
	DB	049H
	DB	04aH
	DB	049H
	DB	04aH
	DB	048H
	DB	04aH
	DB	029H
	DB	04aH
	DB	049H
	DB	04aH
	DB	049H
	DB	042H
	DB	049H
	DB	04aH
	DB	048H
	DB	04aH
	DB	049H
	DB	04aH
	DB	049H
	DB	04aH
	DB	049H
	DB	04aH
	DB	049H
	DB	04aH
	DB	049H
	DB	04aH
	DB	029H
	DB	04aH
	DB	048H
	DB	04aH
	DB	049H
	DB	04aH
	DB	029H
	DB	04aH
	DB	048H
	DB	04aH
	DB	049H
	DB	04aH
	DB	049H
	DB	04aH
	DB	049H
	DB	042H
	DB	049H
	DB	04aH
	DB	028H
	DB	04aH
	DB	049H
	DB	04aH
	DB	049H
	DB	04aH
	DB	049H
	DB	04aH
	DB	049H
	DB	04aH
	DB	049H
	DB	04aH
	DB	049H
	DB	04aH
	DB	048H
	DB	04aH
	DB	049H
	DB	04aH
	DB	049H
	DB	04aH
	DB	028H
	DB	04aH
	DB	049H
	DB	04aH
	DB	049H
	DB	04aH
	DB	049H
	DB	042H
	DB	049H
	DB	04aH
	DB	028H
	DB	04aH
	DB	049H
	DB	04aH
	DB	049H
	DB	04aH
	DB	049H
	DB	04aH
	DB	049H
	DB	04aH
	DB	029H
	DB	04aH
	DB	049H
	DB	04aH
	DB	028H
	DB	04aH
	DB	049H
	DB	04aH
	DB	049H
	DB	04aH
	DB	048H
	DB	04aH
	DB	049H
	DB	04aH
	DB	049H
	DB	04aH
	DB	049H
	DB	042H
	DB	049H
	DB	04aH
	DB	048H
	DB	04aH
	DB	049H
	DB	04aH
	DB	029H
	DB	04aH
	DB	049H
	DB	04aH
	DB	049H
	DB	04aH
	DB	049H
	DB	04aH
	DB	029H
	DB	04aH
	DB	048H
	DB	04aH
	DB	029H
	DB	04aH
	DB	029H
	DB	04aH
	DB	048H
	DB	04aH
	DB	029H
	DB	04aH
	DB	049H
	DB	04aH
	DB	029H
	DB	042H
	DB	049H
	DB	04aH
	DB	048H
	DB	04aH
	DB	049H
	DB	04aH
	DB	049H
	DB	04aH
	DB	049H
	DB	04aH
	DB	049H
	DB	04aH
	DB	049H
	DB	04aH
	DB	049H
	DB	04aH
	DB	048H
	DB	04aH
	DB	029H
	DB	04aH
	DB	049H
	DB	04aH
	DB	048H
	DB	04aH
	DB	029H
	DB	04aH
	DB	049H
	DB	04aH
	DB	049H
	DB	042H
	DB	029H
	DB	04aH
	DB	048H
	DB	04aH
	DB	049H
	DB	04aH
	DB	049H
	DB	04aH
	DB	049H
	DB	04aH
	DB	029H
	DB	04aH
	DB	049H
	DB	04aH
	DB	049H
	DB	04aH
	DB	028H
	DB	04aH
	DB	049H
	DB	04aH
	DB	049H
	DB	04aH
	DB	029H
	DB	04aH
	DB	049H
	DB	04aH
	DB	049H
	DB	04aH
	DB	029H
	DB	04aH
	DB	028H
	DB	04aH
	DB	049H
	DB	04aH
	DB	049H
	DB	04aH
	DB	029H
	DB	04aH
	DB	049H
	DB	04aH
	DB	029H
	DB	042H
	DB	049H
	DB	04aH
	DB	029H
	DB	04aH
	DB	029H
	DB	042H
	DB	049H
	DB	04aH
	DB	029H
	DB	04aH
	DB	049H
	DB	04aH
	DB	049H
	DB	04aH
	DB	0cfH
	DB	07bH
	DB	0efH
	DB	07bH
	DB	049H
	DB	04aH
	DB	049H
	DB	04aH
	DB	029H
	DB	04aH
	DB	049H
	DB	04aH
	DB	049H
	DB	04aH
	DB	048H
	DB	04aH
	DB	049H
	DB	04aH
	DB	029H
	DB	04aH
	DB	049H
	DB	04aH
	DB	049H
	DB	04aH
	DB	049H
	DB	04aH
	DB	049H
	DB	042H
	DB	049H
	DB	04aH
	DB	049H
	DB	04aH
	DB	049H
	DB	042H
	DB	029H
	DB	04aH
	DB	049H
	DB	04aH
	DB	049H
	DB	042H
	DB	049H
	DB	04aH
	DB	029H
	DB	04aH
	DB	049H
	DB	04aH
	DB	049H
	DB	04aH
	DB	029H
	DB	04aH
	DB	049H
	DB	04aH
	DB	049H
	DB	04aH
	DB	029H
	DB	04aH
	DB	049H
	DB	04aH
	DB	049H
	DB	04aH
	DB	029H
	DB	042H
	DB	049H
	DB	04aH
	DB	049H
	DB	04aH
	DB	049H
	DB	04aH
	DB	048H
	DB	04aH
	DB	049H
	DB	04aH
	DB	049H
	DB	04aH
	DB	029H
	DB	04aH
	DB	049H
	DB	04aH
	DB	049H
	DB	04aH
	DB	029H
	DB	042H
	DB	029H
	DB	04aH
	DB	049H
	DB	04aH
	DB	048H
	DB	04aH
	DB	049H
	DB	04aH
	DB	029H
	DB	04aH
	DB	048H
	DB	04aH
	DB	049H
	DB	04aH
	DB	029H
	DB	04aH
	DB	029H
	DB	04aH
	DB	049H
	DB	04aH
	DB	048H
	DB	04aH
	DB	049H
	DB	04aH
	DB	029H
	DB	04aH
	DB	049H
	DB	04aH
	DB	049H
	DB	042H
	DB	029H
	DB	04aH
	DB	049H
	DB	04aH
	DB	049H
	DB	04aH
	DB	049H
	DB	04aH
	DB	029H
	DB	04aH
	DB	049H
	DB	04aH
	DB	029H
	DB	04aH
	DB	049H
	DB	04aH
	DB	029H
	DB	04aH
	DB	049H
	DB	04aH
	DB	028H
	DB	04aH
	DB	049H
	DB	04aH
	DB	049H
	DB	04aH
	DB	049H
	DB	04aH
	DB	029H
	DB	042H
	DB	049H
	DB	04aH
	DB	049H
	DB	04aH
	DB	049H
	DB	04aH
	DB	029H
	DB	04aH
	DB	049H
	DB	04aH
	DB	049H
	DB	04aH
	DB	029H
	DB	04aH
	DB	049H
	DB	04aH
	DB	049H
	DB	04aH
	DB	029H
	DB	04aH
	DB	048H
	DB	04aH
	DB	029H
	DB	04aH
	DB	049H
	DB	04aH
	DB	029H
	DB	04aH
	DB	029H
	DB	042H
	DB	049H
	DB	04aH
	DB	049H
	DB	04aH
	DB	049H
	DB	04aH
	DB	029H
	DB	04aH
	DB	049H
	DB	04aH
	DB	049H
	DB	04aH
	DB	029H
	DB	04aH
	DB	049H
	DB	04aH
	DB	049H
	DB	04aH
	DB	029H
	DB	04aH
	DB	048H
	DB	04aH
	DB	049H
	DB	04aH
	DB	049H
	DB	04aH
	DB	029H
	DB	04aH
	DB	049H
	DB	042H
	DB	049H
	DB	04aH
	DB	029H
	DB	04aH
	DB	049H
	DB	04aH
	DB	029H
	DB	04aH
	DB	049H
	DB	04aH
	DB	029H
	DB	04aH
	DB	049H
	DB	04aH
	DB	029H
	DB	04aH
	DB	049H
	DB	04aH
	DB	049H
	DB	04aH
	DB	028H
	DB	04aH
	DB	049H
	DB	04aH
	DB	049H
	DB	04aH
	DB	049H
	DB	04aH
	DB	049H
	DB	042H
	DB	049H
	DB	04aH
	DB	049H
	DB	04aH
	DB	049H
	DB	04aH
	DB	049H
	DB	04aH
	DB	029H
	DB	04aH
	DB	049H
	DB	04aH
	DB	049H
	DB	04aH
	DB	029H
	DB	04aH
	DB	049H
	DB	04aH
	DB	029H
	DB	04aH
	DB	028H
	DB	04aH
	DB	049H
	DB	04aH
	DB	049H
	DB	04aH
	DB	029H
	DB	04aH
	DB	049H
	DB	042H
	DB	049H
	DB	04aH
	DB	049H
	DB	04aH
	DB	029H
	DB	04aH
	DB	049H
	DB	04aH
	DB	049H
	DB	04aH
	DB	049H
	DB	04aH
	DB	049H
	DB	04aH
	DB	029H
	DB	04aH
	DB	049H
	DB	04aH
	DB	049H
	DB	04aH
	DB	028H
	DB	04aH
	DB	049H
	DB	04aH
	DB	049H
	DB	04aH
	DB	029H
	DB	04aH
	DB	049H
	DB	042H
	DB	049H
	DB	04aH
	DB	049H
	DB	04aH
	DB	028H
	DB	04aH
	DB	049H
	DB	04aH
	DB	049H
	DB	04aH
	DB	049H
	DB	04aH
	DB	049H
	DB	042H
	DB	049H
	DB	04aH
	DB	029H
	DB	04aH
	DB	049H
	DB	042H
	DB	048H
	DB	04aH
	DB	049H
	DB	04aH
	DB	049H
	DB	04aH
	DB	048H
	DB	04aH
	DB	049H
	DB	04aH
	DB	049H
	DB	04aH
	DB	049H
	DB	04aH
	DB	029H
	DB	04aH
	DB	049H
	DB	04aH
	DB	0efH
	DB	07bH
	DB	0efH
	DB	07bH
	DB	049H
	DB	04aH
	DB	049H
	DB	04aH
	DB	049H
	DB	04aH
	DB	029H
	DB	04aH
	DB	049H
	DB	04aH
	DB	049H
	DB	04aH
	DB	029H
	DB	042H
	DB	049H
	DB	04aH
	DB	048H
	DB	04aH
	DB	029H
	DB	04aH
	DB	049H
	DB	04aH
	DB	029H
	DB	04aH
	DB	048H
	DB	04aH
	DB	049H
	DB	04aH
	DB	029H
	DB	04aH
	DB	049H
	DB	04aH
	DB	049H
	DB	04aH
	DB	049H
	DB	04aH
	DB	049H
	DB	04aH
	DB	048H
	DB	04aH
	DB	049H
	DB	042H
	DB	049H
	DB	04aH
	DB	029H
	DB	04aH
	DB	049H
	DB	04aH
	DB	049H
	DB	04aH
	DB	049H
	DB	042H
	DB	049H
	DB	04aH
	DB	048H
	DB	04aH
	DB	049H
	DB	04aH
	DB	049H
	DB	04aH
	DB	029H
	DB	04aH
	DB	049H
	DB	042H
	DB	049H
	DB	04aH
	DB	029H
	DB	04aH
	DB	049H
	DB	042H
	DB	048H
	DB	04aH
	DB	049H
	DB	04aH
	DB	049H
	DB	04aH
	DB	049H
	DB	04aH
	DB	049H
	DB	04aH
	DB	029H
	DB	042H
	DB	049H
	DB	04aH
	DB	049H
	DB	04aH
	DB	049H
	DB	042H
	DB	029H
	DB	04aH
	DB	049H
	DB	04aH
	DB	049H
	DB	042H
	DB	049H
	DB	04aH
	DB	029H
	DB	04aH
	DB	049H
	DB	042H
	DB	049H
	DB	04aH
	DB	049H
	DB	04aH
	DB	049H
	DB	04aH
	DB	029H
	DB	04aH
	DB	049H
	DB	04aH
	DB	029H
	DB	042H
	DB	049H
	DB	04aH
	DB	049H
	DB	04aH
	DB	048H
	DB	042H
	DB	049H
	DB	04aH
	DB	049H
	DB	04aH
	DB	029H
	DB	042H
	DB	049H
	DB	04aH
	DB	049H
	DB	04aH
	DB	049H
	DB	042H
	DB	029H
	DB	04aH
	DB	049H
	DB	04aH
	DB	049H
	DB	04aH
	DB	049H
	DB	04aH
	DB	029H
	DB	04aH
	DB	049H
	DB	042H
	DB	049H
	DB	04aH
	DB	029H
	DB	04aH
	DB	048H
	DB	042H
	DB	049H
	DB	04aH
	DB	049H
	DB	04aH
	DB	049H
	DB	042H
	DB	049H
	DB	04aH
	DB	049H
	DB	04aH
	DB	029H
	DB	042H
	DB	049H
	DB	04aH
	DB	049H
	DB	04aH
	DB	049H
	DB	04aH
	DB	049H
	DB	04aH
	DB	029H
	DB	04aH
	DB	049H
	DB	042H
	DB	049H
	DB	04aH
	DB	049H
	DB	04aH
	DB	028H
	DB	042H
	DB	049H
	DB	04aH
	DB	049H
	DB	04aH
	DB	049H
	DB	042H
	DB	049H
	DB	04aH
	DB	049H
	DB	04aH
	DB	029H
	DB	042H
	DB	049H
	DB	04aH
	DB	049H
	DB	04aH
	DB	049H
	DB	04aH
	DB	049H
	DB	04aH
	DB	049H
	DB	04aH
	DB	049H
	DB	042H
	DB	029H
	DB	04aH
	DB	049H
	DB	04aH
	DB	048H
	DB	042H
	DB	049H
	DB	04aH
	DB	029H
	DB	04aH
	DB	049H
	DB	042H
	DB	049H
	DB	04aH
	DB	049H
	DB	04aH
	DB	049H
	DB	042H
	DB	029H
	DB	04aH
	DB	049H
	DB	04aH
	DB	049H
	DB	04aH
	DB	029H
	DB	04aH
	DB	049H
	DB	04aH
	DB	049H
	DB	042H
	DB	049H
	DB	04aH
	DB	049H
	DB	04aH
	DB	048H
	DB	042H
	DB	049H
	DB	04aH
	DB	049H
	DB	04aH
	DB	049H
	DB	042H
	DB	049H
	DB	04aH
	DB	049H
	DB	04aH
	DB	049H
	DB	042H
	DB	049H
	DB	04aH
	DB	029H
	DB	04aH
	DB	049H
	DB	04aH
	DB	049H
	DB	04aH
	DB	049H
	DB	04aH
	DB	029H
	DB	042H
	DB	049H
	DB	04aH
	DB	049H
	DB	04aH
	DB	028H
	DB	042H
	DB	049H
	DB	04aH
	DB	049H
	DB	04aH
	DB	049H
	DB	042H
	DB	029H
	DB	04aH
	DB	049H
	DB	04aH
	DB	049H
	DB	042H
	DB	049H
	DB	04aH
	DB	049H
	DB	04aH
	DB	049H
	DB	04aH
	DB	029H
	DB	04aH
	DB	049H
	DB	04aH
	DB	049H
	DB	042H
	DB	049H
	DB	04aH
	DB	029H
	DB	04aH
	DB	049H
	DB	042H
	DB	049H
	DB	04aH
	DB	049H
	DB	04aH
	DB	029H
	DB	04aH
	DB	049H
	DB	04aH
	DB	049H
	DB	04aH
	DB	029H
	DB	04aH
	DB	049H
	DB	04aH
	DB	049H
	DB	04aH
	DB	029H
	DB	04aH
	DB	049H
	DB	04aH
	DB	049H
	DB	042H
	DB	048H
	DB	04aH
	DB	049H
	DB	04aH
	DB	049H
	DB	04aH
	DB	0efH
	DB	07bH
	DB	0efH
	DB	07bH
	DB	049H
	DB	04aH
	DB	029H
	DB	04aH
	DB	049H
	DB	04aH
	DB	049H
	DB	04aH
	DB	049H
	DB	04aH
	DB	049H
	DB	04aH
	DB	049H
	DB	04aH
	DB	049H
	DB	04aH
	DB	049H
	DB	04aH
	DB	049H
	DB	042H
	DB	029H
	DB	04aH
	DB	049H
	DB	04aH
	DB	049H
	DB	04aH
	DB	029H
	DB	04aH
	DB	048H
	DB	04aH
	DB	049H
	DB	04aH
	DB	029H
	DB	04aH
	DB	028H
	DB	04aH
	DB	049H
	DB	04aH
	DB	049H
	DB	04aH
	DB	029H
	DB	04aH
	DB	049H
	DB	04aH
	DB	048H
	DB	04aH
	DB	049H
	DB	04aH
	DB	029H
	DB	04aH
	DB	048H
	DB	04aH
	DB	029H
	DB	04aH
	DB	049H
	DB	04aH
	DB	049H
	DB	04aH
	DB	029H
	DB	04aH
	DB	048H
	DB	04aH
	DB	049H
	DB	04aH
	DB	029H
	DB	04aH
	DB	049H
	DB	04aH
	DB	049H
	DB	04aH
	DB	029H
	DB	042H
	DB	049H
	DB	04aH
	DB	029H
	DB	04aH
	DB	048H
	DB	04aH
	DB	049H
	DB	04aH
	DB	049H
	DB	04aH
	DB	029H
	DB	04aH
	DB	049H
	DB	04aH
	DB	049H
	DB	04aH
	DB	049H
	DB	04aH
	DB	049H
	DB	04aH
	DB	048H
	DB	04aH
	DB	049H
	DB	04aH
	DB	049H
	DB	04aH
	DB	029H
	DB	04aH
	DB	049H
	DB	04aH
	DB	048H
	DB	042H
	DB	029H
	DB	04aH
	DB	049H
	DB	04aH
	DB	048H
	DB	04aH
	DB	049H
	DB	04aH
	DB	029H
	DB	04aH
	DB	049H
	DB	04aH
	DB	049H
	DB	04aH
	DB	029H
	DB	04aH
	DB	048H
	DB	04aH
	DB	049H
	DB	04aH
	DB	049H
	DB	04aH
	DB	048H
	DB	04aH
	DB	049H
	DB	04aH
	DB	029H
	DB	04aH
	DB	048H
	DB	042H
	DB	049H
	DB	04aH
	DB	049H
	DB	04aH
	DB	048H
	DB	04aH
	DB	049H
	DB	04aH
	DB	049H
	DB	04aH
	DB	049H
	DB	04aH
	DB	029H
	DB	04aH
	DB	049H
	DB	04aH
	DB	028H
	DB	04aH
	DB	049H
	DB	04aH
	DB	049H
	DB	04aH
	DB	048H
	DB	04aH
	DB	049H
	DB	04aH
	DB	049H
	DB	04aH
	DB	048H
	DB	042H
	DB	049H
	DB	04aH
	DB	049H
	DB	04aH
	DB	048H
	DB	04aH
	DB	029H
	DB	04aH
	DB	049H
	DB	04aH
	DB	049H
	DB	04aH
	DB	049H
	DB	04aH
	DB	049H
	DB	04aH
	DB	028H
	DB	04aH
	DB	049H
	DB	04aH
	DB	049H
	DB	04aH
	DB	048H
	DB	04aH
	DB	049H
	DB	04aH
	DB	029H
	DB	04aH
	DB	048H
	DB	042H
	DB	049H
	DB	04aH
	DB	029H
	DB	04aH
	DB	048H
	DB	04aH
	DB	049H
	DB	04aH
	DB	049H
	DB	04aH
	DB	049H
	DB	04aH
	DB	049H
	DB	04aH
	DB	049H
	DB	04aH
	DB	048H
	DB	04aH
	DB	049H
	DB	04aH
	DB	029H
	DB	04aH
	DB	048H
	DB	04aH
	DB	049H
	DB	04aH
	DB	049H
	DB	04aH
	DB	028H
	DB	042H
	DB	049H
	DB	04aH
	DB	049H
	DB	04aH
	DB	028H
	DB	04aH
	DB	049H
	DB	04aH
	DB	029H
	DB	04aH
	DB	029H
	DB	04aH
	DB	049H
	DB	04aH
	DB	029H
	DB	04aH
	DB	048H
	DB	04aH
	DB	029H
	DB	04aH
	DB	049H
	DB	04aH
	DB	048H
	DB	04aH
	DB	049H
	DB	04aH
	DB	029H
	DB	04aH
	DB	048H
	DB	042H
	DB	049H
	DB	04aH
	DB	049H
	DB	04aH
	DB	028H
	DB	04aH
	DB	049H
	DB	04aH
	DB	049H
	DB	04aH
	DB	049H
	DB	04aH
	DB	049H
	DB	04aH
	DB	029H
	DB	04aH
	DB	048H
	DB	04aH
	DB	049H
	DB	04aH
	DB	049H
	DB	04aH
	DB	028H
	DB	04aH
	DB	049H
	DB	04aH
	DB	049H
	DB	04aH
	DB	028H
	DB	042H
	DB	049H
	DB	04aH
	DB	049H
	DB	04aH
	DB	028H
	DB	04aH
	DB	049H
	DB	04aH
	DB	049H
	DB	04aH
	DB	049H
	DB	04aH
	DB	028H
	DB	04aH
	DB	049H
	DB	04aH
	DB	049H
	DB	04aH
	DB	028H
	DB	04aH
	DB	049H
	DB	04aH
	DB	049H
	DB	04aH
	DB	049H
	DB	04aH
	DB	029H
	DB	04aH
	DB	049H
	DB	042H
	DB	049H
	DB	04aH
	DB	029H
	DB	04aH
	DB	049H
	DB	04aH
	DB	029H
	DB	04aH
	DB	049H
	DB	04aH
	DB	049H
	DB	04aH
	DB	0efH
	DB	07bH
	DB	0efH
	DB	07bH
	DB	049H
	DB	04aH
	DB	049H
	DB	04aH
	DB	049H
	DB	04aH
	DB	029H
	DB	04aH
	DB	048H
	DB	042H
	DB	029H
	DB	04aH
	DB	049H
	DB	04aH
	DB	028H
	DB	04aH
	DB	049H
	DB	04aH
	DB	049H
	DB	04aH
	DB	048H
	DB	04aH
	DB	049H
	DB	04aH
	DB	049H
	DB	042H
	DB	049H
	DB	04aH
	DB	049H
	DB	04aH
	DB	049H
	DB	042H
	DB	049H
	DB	04aH
	DB	049H
	DB	04aH
	DB	049H
	DB	042H
	DB	029H
	DB	04aH
	DB	049H
	DB	04aH
	DB	049H
	DB	04aH
	DB	049H
	DB	042H
	DB	029H
	DB	04aH
	DB	049H
	DB	04aH
	DB	049H
	DB	04aH
	DB	029H
	DB	042H
	DB	049H
	DB	04aH
	DB	049H
	DB	04aH
	DB	029H
	DB	042H
	DB	049H
	DB	04aH
	DB	049H
	DB	04aH
	DB	049H
	DB	04aH
	DB	048H
	DB	04aH
	DB	049H
	DB	04aH
	DB	049H
	DB	04aH
	DB	029H
	DB	04aH
	DB	049H
	DB	04aH
	DB	049H
	DB	042H
	DB	029H
	DB	04aH
	DB	048H
	DB	04aH
	DB	049H
	DB	04aH
	DB	029H
	DB	04aH
	DB	048H
	DB	04aH
	DB	049H
	DB	04aH
	DB	029H
	DB	04aH
	DB	029H
	DB	04aH
	DB	049H
	DB	04aH
	DB	049H
	DB	04aH
	DB	048H
	DB	04aH
	DB	029H
	DB	04aH
	DB	049H
	DB	04aH
	DB	049H
	DB	04aH
	DB	049H
	DB	04aH
	DB	049H
	DB	04aH
	DB	049H
	DB	04aH
	DB	048H
	DB	04aH
	DB	029H
	DB	04aH
	DB	049H
	DB	04aH
	DB	049H
	DB	04aH
	DB	029H
	DB	04aH
	DB	049H
	DB	04aH
	DB	029H
	DB	04aH
	DB	049H
	DB	04aH
	DB	049H
	DB	04aH
	DB	049H
	DB	04aH
	DB	029H
	DB	04aH
	DB	049H
	DB	04aH
	DB	029H
	DB	04aH
	DB	049H
	DB	04aH
	DB	029H
	DB	04aH
	DB	048H
	DB	04aH
	DB	049H
	DB	04aH
	DB	049H
	DB	04aH
	DB	049H
	DB	04aH
	DB	029H
	DB	04aH
	DB	049H
	DB	04aH
	DB	029H
	DB	04aH
	DB	029H
	DB	04aH
	DB	049H
	DB	04aH
	DB	029H
	DB	04aH
	DB	029H
	DB	04aH
	DB	049H
	DB	04aH
	DB	049H
	DB	04aH
	DB	049H
	DB	04aH
	DB	049H
	DB	04aH
	DB	028H
	DB	04aH
	DB	049H
	DB	04aH
	DB	049H
	DB	04aH
	DB	029H
	DB	04aH
	DB	049H
	DB	04aH
	DB	049H
	DB	04aH
	DB	029H
	DB	04aH
	DB	049H
	DB	04aH
	DB	049H
	DB	04aH
	DB	029H
	DB	04aH
	DB	049H
	DB	04aH
	DB	049H
	DB	04aH
	DB	029H
	DB	04aH
	DB	049H
	DB	04aH
	DB	049H
	DB	04aH
	DB	028H
	DB	04aH
	DB	029H
	DB	04aH
	DB	049H
	DB	04aH
	DB	029H
	DB	04aH
	DB	049H
	DB	04aH
	DB	049H
	DB	04aH
	DB	029H
	DB	04aH
	DB	049H
	DB	04aH
	DB	049H
	DB	04aH
	DB	049H
	DB	04aH
	DB	049H
	DB	04aH
	DB	049H
	DB	04aH
	DB	049H
	DB	04aH
	DB	049H
	DB	04aH
	DB	049H
	DB	04aH
	DB	048H
	DB	04aH
	DB	049H
	DB	04aH
	DB	049H
	DB	04aH
	DB	049H
	DB	04aH
	DB	029H
	DB	04aH
	DB	049H
	DB	04aH
	DB	049H
	DB	04aH
	DB	029H
	DB	04aH
	DB	049H
	DB	04aH
	DB	049H
	DB	04aH
	DB	049H
	DB	04aH
	DB	029H
	DB	04aH
	DB	049H
	DB	04aH
	DB	049H
	DB	04aH
	DB	049H
	DB	04aH
	DB	028H
	DB	04aH
	DB	049H
	DB	04aH
	DB	049H
	DB	04aH
	DB	049H
	DB	04aH
	DB	029H
	DB	04aH
	DB	049H
	DB	04aH
	DB	049H
	DB	04aH
	DB	049H
	DB	04aH
	DB	029H
	DB	04aH
	DB	049H
	DB	04aH
	DB	049H
	DB	04aH
	DB	049H
	DB	04aH
	DB	049H
	DB	04aH
	DB	049H
	DB	04aH
	DB	029H
	DB	04aH
	DB	049H
	DB	04aH
	DB	049H
	DB	04aH
	DB	049H
	DB	04aH
	DB	029H
	DB	04aH
	DB	049H
	DB	042H
	DB	049H
	DB	04aH
	DB	049H
	DB	04aH
	DB	048H
	DB	042H
	DB	049H
	DB	04aH
	DB	049H
	DB	04aH
	DB	048H
	DB	04aH
	DB	049H
	DB	04aH
	DB	049H
	DB	04aH
	DB	049H
	DB	04aH
	DB	049H
	DB	04aH
	DB	029H
	DB	04aH
	DB	049H
	DB	04aH
	DB	0efH
	DB	07bH
	DB	0efH
	DB	07bH
	DB	049H
	DB	04aH
	DB	049H
	DB	04aH
	DB	029H
	DB	04aH
	DB	049H
	DB	04aH
	DB	049H
	DB	04aH
	DB	049H
	DB	04aH
	DB	029H
	DB	04aH
	DB	049H
	DB	042H
	DB	049H
	DB	04aH
	DB	029H
	DB	04aH
	DB	049H
	DB	04aH
	DB	029H
	DB	04aH
	DB	049H
	DB	04aH
	DB	049H
	DB	04aH
	DB	029H
	DB	04aH
	DB	049H
	DB	04aH
	DB	049H
	DB	04aH
	DB	049H
	DB	04aH
	DB	029H
	DB	04aH
	DB	048H
	DB	04aH
	DB	049H
	DB	04aH
	DB	029H
	DB	04aH
	DB	049H
	DB	04aH
	DB	049H
	DB	04aH
	DB	049H
	DB	04aH
	DB	049H
	DB	04aH
	DB	049H
	DB	04aH
	DB	048H
	DB	04aH
	DB	049H
	DB	04aH
	DB	049H
	DB	04aH
	DB	049H
	DB	04aH
	DB	029H
	DB	042H
	DB	049H
	DB	04aH
	DB	029H
	DB	04aH
	DB	049H
	DB	04aH
	DB	049H
	DB	04aH
	DB	048H
	DB	04aH
	DB	049H
	DB	04aH
	DB	049H
	DB	04aH
	DB	049H
	DB	04aH
	DB	049H
	DB	04aH
	DB	049H
	DB	042H
	DB	049H
	DB	04aH
	DB	029H
	DB	04aH
	DB	049H
	DB	042H
	DB	049H
	DB	04aH
	DB	049H
	DB	04aH
	DB	029H
	DB	042H
	DB	049H
	DB	04aH
	DB	049H
	DB	04aH
	DB	049H
	DB	042H
	DB	029H
	DB	04aH
	DB	049H
	DB	04aH
	DB	029H
	DB	042H
	DB	049H
	DB	04aH
	DB	049H
	DB	04aH
	DB	029H
	DB	042H
	DB	049H
	DB	04aH
	DB	049H
	DB	04aH
	DB	049H
	DB	042H
	DB	049H
	DB	04aH
	DB	049H
	DB	04aH
	DB	049H
	DB	042H
	DB	029H
	DB	04aH
	DB	049H
	DB	04aH
	DB	049H
	DB	042H
	DB	049H
	DB	04aH
	DB	049H
	DB	04aH
	DB	049H
	DB	042H
	DB	029H
	DB	04aH
	DB	049H
	DB	04aH
	DB	049H
	DB	042H
	DB	029H
	DB	04aH
	DB	049H
	DB	04aH
	DB	049H
	DB	042H
	DB	049H
	DB	04aH
	DB	049H
	DB	04aH
	DB	049H
	DB	042H
	DB	049H
	DB	04aH
	DB	049H
	DB	04aH
	DB	049H
	DB	042H
	DB	049H
	DB	04aH
	DB	029H
	DB	04aH
	DB	049H
	DB	042H
	DB	029H
	DB	04aH
	DB	049H
	DB	04aH
	DB	049H
	DB	042H
	DB	029H
	DB	04aH
	DB	049H
	DB	04aH
	DB	049H
	DB	042H
	DB	049H
	DB	04aH
	DB	049H
	DB	04aH
	DB	029H
	DB	042H
	DB	049H
	DB	04aH
	DB	049H
	DB	04aH
	DB	049H
	DB	042H
	DB	049H
	DB	04aH
	DB	049H
	DB	04aH
	DB	049H
	DB	042H
	DB	029H
	DB	04aH
	DB	049H
	DB	04aH
	DB	049H
	DB	042H
	DB	049H
	DB	04aH
	DB	049H
	DB	04aH
	DB	049H
	DB	042H
	DB	029H
	DB	04aH
	DB	049H
	DB	04aH
	DB	049H
	DB	042H
	DB	049H
	DB	04aH
	DB	029H
	DB	04aH
	DB	029H
	DB	042H
	DB	049H
	DB	04aH
	DB	029H
	DB	04aH
	DB	049H
	DB	042H
	DB	029H
	DB	04aH
	DB	049H
	DB	04aH
	DB	049H
	DB	042H
	DB	029H
	DB	04aH
	DB	049H
	DB	04aH
	DB	049H
	DB	042H
	DB	049H
	DB	04aH
	DB	049H
	DB	04aH
	DB	049H
	DB	042H
	DB	029H
	DB	04aH
	DB	049H
	DB	04aH
	DB	049H
	DB	042H
	DB	029H
	DB	04aH
	DB	049H
	DB	04aH
	DB	049H
	DB	042H
	DB	049H
	DB	04aH
	DB	029H
	DB	04aH
	DB	049H
	DB	042H
	DB	049H
	DB	04aH
	DB	029H
	DB	04aH
	DB	049H
	DB	042H
	DB	049H
	DB	04aH
	DB	029H
	DB	04aH
	DB	049H
	DB	042H
	DB	049H
	DB	04aH
	DB	049H
	DB	04aH
	DB	029H
	DB	042H
	DB	049H
	DB	04aH
	DB	029H
	DB	04aH
	DB	049H
	DB	042H
	DB	049H
	DB	04aH
	DB	048H
	DB	04aH
	DB	029H
	DB	042H
	DB	049H
	DB	04aH
	DB	049H
	DB	04aH
	DB	049H
	DB	04aH
	DB	029H
	DB	04aH
	DB	049H
	DB	04aH
	DB	049H
	DB	04aH
	DB	029H
	DB	04aH
	DB	029H
	DB	04aH
	DB	049H
	DB	04aH
	DB	029H
	DB	04aH
	DB	049H
	DB	04aH
	DB	028H
	DB	042H
	DB	049H
	DB	04aH
	DB	049H
	DB	04aH
	DB	049H
	DB	04aH
	DB	049H
	DB	04aH
	DB	0efH
	DB	07bH
	DB	0cfH
	DB	07bH
	DB	049H
	DB	04aH
	DB	049H
	DB	04aH
	DB	049H
	DB	04aH
	DB	049H
	DB	04aH
	DB	049H
	DB	04aH
	DB	049H
	DB	04aH
	DB	049H
	DB	04aH
	DB	049H
	DB	04aH
	DB	049H
	DB	04aH
	DB	049H
	DB	04aH
	DB	029H
	DB	042H
	DB	049H
	DB	04aH
	DB	048H
	DB	04aH
	DB	029H
	DB	04aH
	DB	049H
	DB	04aH
	DB	028H
	DB	04aH
	DB	049H
	DB	042H
	DB	049H
	DB	04aH
	DB	029H
	DB	04aH
	DB	049H
	DB	04aH
	DB	049H
	DB	042H
	DB	049H
	DB	04aH
	DB	028H
	DB	04aH
	DB	049H
	DB	042H
	DB	049H
	DB	04aH
	DB	028H
	DB	04aH
	DB	049H
	DB	04aH
	DB	029H
	DB	04aH
	DB	049H
	DB	04aH
	DB	049H
	DB	04aH
	DB	028H
	DB	04aH
	DB	049H
	DB	04aH
	DB	049H
	DB	04aH
	DB	049H
	DB	042H
	DB	029H
	DB	04aH
	DB	049H
	DB	04aH
	DB	049H
	DB	042H
	DB	029H
	DB	04aH
	DB	029H
	DB	04aH
	DB	049H
	DB	04aH
	DB	029H
	DB	04aH
	DB	049H
	DB	04aH
	DB	049H
	DB	04aH
	DB	049H
	DB	04aH
	DB	048H
	DB	04aH
	DB	049H
	DB	04aH
	DB	049H
	DB	04aH
	DB	048H
	DB	04aH
	DB	029H
	DB	04aH
	DB	049H
	DB	04aH
	DB	049H
	DB	04aH
	DB	048H
	DB	04aH
	DB	049H
	DB	04aH
	DB	049H
	DB	04aH
	DB	028H
	DB	04aH
	DB	049H
	DB	04aH
	DB	049H
	DB	04aH
	DB	049H
	DB	04aH
	DB	028H
	DB	04aH
	DB	049H
	DB	04aH
	DB	049H
	DB	04aH
	DB	028H
	DB	04aH
	DB	049H
	DB	04aH
	DB	049H
	DB	04aH
	DB	028H
	DB	04aH
	DB	049H
	DB	04aH
	DB	049H
	DB	04aH
	DB	028H
	DB	04aH
	DB	049H
	DB	04aH
	DB	049H
	DB	04aH
	DB	048H
	DB	04aH
	DB	049H
	DB	04aH
	DB	029H
	DB	04aH
	DB	048H
	DB	04aH
	DB	049H
	DB	04aH
	DB	029H
	DB	04aH
	DB	048H
	DB	04aH
	DB	049H
	DB	04aH
	DB	049H
	DB	04aH
	DB	028H
	DB	04aH
	DB	049H
	DB	04aH
	DB	049H
	DB	04aH
	DB	048H
	DB	04aH
	DB	049H
	DB	04aH
	DB	049H
	DB	04aH
	DB	048H
	DB	04aH
	DB	049H
	DB	04aH
	DB	049H
	DB	04aH
	DB	028H
	DB	04aH
	DB	049H
	DB	04aH
	DB	049H
	DB	04aH
	DB	028H
	DB	04aH
	DB	049H
	DB	04aH
	DB	049H
	DB	04aH
	DB	028H
	DB	04aH
	DB	049H
	DB	04aH
	DB	029H
	DB	04aH
	DB	048H
	DB	04aH
	DB	049H
	DB	04aH
	DB	049H
	DB	04aH
	DB	048H
	DB	04aH
	DB	049H
	DB	04aH
	DB	029H
	DB	04aH
	DB	048H
	DB	04aH
	DB	049H
	DB	04aH
	DB	049H
	DB	04aH
	DB	048H
	DB	04aH
	DB	049H
	DB	04aH
	DB	049H
	DB	04aH
	DB	048H
	DB	04aH
	DB	049H
	DB	04aH
	DB	049H
	DB	04aH
	DB	048H
	DB	04aH
	DB	029H
	DB	04aH
	DB	049H
	DB	04aH
	DB	048H
	DB	04aH
	DB	029H
	DB	04aH
	DB	049H
	DB	04aH
	DB	048H
	DB	04aH
	DB	029H
	DB	04aH
	DB	049H
	DB	04aH
	DB	048H
	DB	04aH
	DB	029H
	DB	04aH
	DB	049H
	DB	04aH
	DB	048H
	DB	04aH
	DB	049H
	DB	04aH
	DB	049H
	DB	04aH
	DB	048H
	DB	04aH
	DB	029H
	DB	04aH
	DB	049H
	DB	04aH
	DB	048H
	DB	04aH
	DB	049H
	DB	04aH
	DB	049H
	DB	04aH
	DB	048H
	DB	04aH
	DB	049H
	DB	04aH
	DB	049H
	DB	04aH
	DB	048H
	DB	04aH
	DB	029H
	DB	04aH
	DB	049H
	DB	04aH
	DB	048H
	DB	04aH
	DB	049H
	DB	04aH
	DB	049H
	DB	04aH
	DB	048H
	DB	04aH
	DB	029H
	DB	04aH
	DB	049H
	DB	04aH
	DB	049H
	DB	04aH
	DB	049H
	DB	04aH
	DB	028H
	DB	04aH
	DB	049H
	DB	042H
	DB	049H
	DB	04aH
	DB	048H
	DB	04aH
	DB	029H
	DB	04aH
	DB	049H
	DB	04aH
	DB	049H
	DB	04aH
	DB	049H
	DB	04aH
	DB	049H
	DB	042H
	DB	049H
	DB	04aH
	DB	029H
	DB	04aH
	DB	049H
	DB	04aH
	DB	049H
	DB	04aH
	DB	029H
	DB	04aH
	DB	049H
	DB	04aH
	DB	049H
	DB	04aH
	DB	0cfH
	DB	07bH
	DB	0efH
	DB	07bH
	DB	049H
	DB	04aH
	DB	029H
	DB	04aH
	DB	049H
	DB	04aH
	DB	029H
	DB	04aH
	DB	028H
	DB	042H
	DB	049H
	DB	04aH
	DB	049H
	DB	04aH
	DB	028H
	DB	04aH
	DB	049H
	DB	04aH
	DB	049H
	DB	04aH
	DB	048H
	DB	04aH
	DB	049H
	DB	04aH
	DB	049H
	DB	04aH
	DB	049H
	DB	042H
	DB	049H
	DB	04aH
	DB	049H
	DB	04aH
	DB	029H
	DB	04aH
	DB	049H
	DB	04aH
	DB	048H
	DB	04aH
	DB	049H
	DB	04aH
	DB	049H
	DB	04aH
	DB	049H
	DB	04aH
	DB	049H
	DB	04aH
	DB	029H
	DB	04aH
	DB	049H
	DB	04aH
	DB	049H
	DB	042H
	DB	029H
	DB	04aH
	DB	049H
	DB	04aH
	DB	049H
	DB	042H
	DB	029H
	DB	04aH
	DB	049H
	DB	04aH
	DB	049H
	DB	04aH
	DB	049H
	DB	04aH
	DB	048H
	DB	04aH
	DB	029H
	DB	04aH
	DB	049H
	DB	04aH
	DB	049H
	DB	04aH
	DB	048H
	DB	04aH
	DB	049H
	DB	04aH
	DB	049H
	DB	042H
	DB	048H
	DB	04aH
	DB	029H
	DB	04aH
	DB	049H
	DB	04aH
	DB	049H
	DB	04aH
	DB	029H
	DB	04aH
	DB	029H
	DB	042H
	DB	049H
	DB	04aH
	DB	049H
	DB	04aH
	DB	049H
	DB	04aH
	DB	029H
	DB	04aH
	DB	049H
	DB	04aH
	DB	049H
	DB	04aH
	DB	029H
	DB	04aH
	DB	049H
	DB	04aH
	DB	049H
	DB	04aH
	DB	029H
	DB	04aH
	DB	049H
	DB	04aH
	DB	049H
	DB	042H
	DB	029H
	DB	04aH
	DB	049H
	DB	04aH
	DB	049H
	DB	04aH
	DB	029H
	DB	04aH
	DB	049H
	DB	04aH
	DB	049H
	DB	042H
	DB	049H
	DB	04aH
	DB	029H
	DB	04aH
	DB	049H
	DB	04aH
	DB	049H
	DB	04aH
	DB	029H
	DB	04aH
	DB	049H
	DB	04aH
	DB	049H
	DB	04aH
	DB	029H
	DB	04aH
	DB	049H
	DB	042H
	DB	049H
	DB	04aH
	DB	049H
	DB	04aH
	DB	029H
	DB	04aH
	DB	049H
	DB	04aH
	DB	049H
	DB	04aH
	DB	029H
	DB	042H
	DB	049H
	DB	04aH
	DB	049H
	DB	04aH
	DB	029H
	DB	04aH
	DB	049H
	DB	04aH
	DB	049H
	DB	04aH
	DB	029H
	DB	04aH
	DB	029H
	DB	04aH
	DB	049H
	DB	04aH
	DB	049H
	DB	042H
	DB	049H
	DB	04aH
	DB	029H
	DB	04aH
	DB	049H
	DB	04aH
	DB	049H
	DB	04aH
	DB	049H
	DB	04aH
	DB	049H
	DB	042H
	DB	049H
	DB	04aH
	DB	029H
	DB	04aH
	DB	049H
	DB	04aH
	DB	049H
	DB	04aH
	DB	029H
	DB	04aH
	DB	049H
	DB	04aH
	DB	049H
	DB	04aH
	DB	029H
	DB	04aH
	DB	049H
	DB	042H
	DB	049H
	DB	04aH
	DB	029H
	DB	04aH
	DB	049H
	DB	04aH
	DB	029H
	DB	04aH
	DB	029H
	DB	04aH
	DB	049H
	DB	042H
	DB	049H
	DB	04aH
	DB	029H
	DB	04aH
	DB	049H
	DB	04aH
	DB	049H
	DB	04aH
	DB	049H
	DB	04aH
	DB	049H
	DB	04aH
	DB	049H
	DB	04aH
	DB	049H
	DB	04aH
	DB	049H
	DB	042H
	DB	049H
	DB	04aH
	DB	029H
	DB	04aH
	DB	049H
	DB	04aH
	DB	049H
	DB	04aH
	DB	049H
	DB	04aH
	DB	049H
	DB	042H
	DB	029H
	DB	04aH
	DB	049H
	DB	04aH
	DB	049H
	DB	04aH
	DB	029H
	DB	04aH
	DB	049H
	DB	04aH
	DB	049H
	DB	04aH
	DB	029H
	DB	04aH
	DB	049H
	DB	04aH
	DB	029H
	DB	042H
	DB	049H
	DB	04aH
	DB	029H
	DB	04aH
	DB	049H
	DB	04aH
	DB	049H
	DB	04aH
	DB	049H
	DB	04aH
	DB	029H
	DB	042H
	DB	049H
	DB	04aH
	DB	049H
	DB	04aH
	DB	029H
	DB	04aH
	DB	049H
	DB	04aH
	DB	049H
	DB	04aH
	DB	029H
	DB	04aH
	DB	049H
	DB	04aH
	DB	049H
	DB	04aH
	DB	049H
	DB	04aH
	DB	029H
	DB	04aH
	DB	049H
	DB	04aH
	DB	049H
	DB	04aH
	DB	049H
	DB	042H
	DB	048H
	DB	04aH
	DB	049H
	DB	04aH
	DB	029H
	DB	04aH
	DB	048H
	DB	04aH
	DB	049H
	DB	04aH
	DB	049H
	DB	04aH
	DB	049H
	DB	04aH
	DB	048H
	DB	042H
	DB	029H
	DB	04aH
	DB	049H
	DB	04aH
	DB	049H
	DB	04aH
	DB	0efH
	DB	07bH
	DB	0efH
	DB	07bH
	DB	049H
	DB	04aH
	DB	049H
	DB	04aH
	DB	049H
	DB	04aH
	DB	049H
	DB	04aH
	DB	049H
	DB	04aH
	DB	049H
	DB	04aH
	DB	029H
	DB	04aH
	DB	049H
	DB	042H
	DB	049H
	DB	04aH
	DB	029H
	DB	04aH
	DB	049H
	DB	04aH
	DB	029H
	DB	04aH
	DB	049H
	DB	04aH
	DB	049H
	DB	04aH
	DB	029H
	DB	04aH
	DB	049H
	DB	04aH
	DB	049H
	DB	04aH
	DB	049H
	DB	04aH
	DB	049H
	DB	042H
	DB	029H
	DB	04aH
	DB	029H
	DB	04aH
	DB	048H
	DB	04aH
	DB	049H
	DB	04aH
	DB	049H
	DB	04aH
	DB	049H
	DB	04aH
	DB	049H
	DB	04aH
	DB	049H
	DB	04aH
	DB	048H
	DB	04aH
	DB	049H
	DB	04aH
	DB	049H
	DB	04aH
	DB	049H
	DB	04aH
	DB	029H
	DB	042H
	DB	049H
	DB	04aH
	DB	049H
	DB	04aH
	DB	049H
	DB	04aH
	DB	029H
	DB	04aH
	DB	049H
	DB	04aH
	DB	049H
	DB	04aH
	DB	029H
	DB	04aH
	DB	049H
	DB	04aH
	DB	049H
	DB	04aH
	DB	049H
	DB	042H
	DB	028H
	DB	04aH
	DB	049H
	DB	04aH
	DB	049H
	DB	04aH
	DB	049H
	DB	04aH
	DB	029H
	DB	04aH
	DB	049H
	DB	04aH
	DB	049H
	DB	042H
	DB	048H
	DB	04aH
	DB	029H
	DB	04aH
	DB	049H
	DB	042H
	DB	049H
	DB	04aH
	DB	049H
	DB	04aH
	DB	049H
	DB	042H
	DB	048H
	DB	04aH
	DB	049H
	DB	04aH
	DB	049H
	DB	04aH
	DB	049H
	DB	04aH
	DB	049H
	DB	04aH
	DB	048H
	DB	042H
	DB	049H
	DB	04aH
	DB	049H
	DB	04aH
	DB	049H
	DB	04aH
	DB	049H
	DB	04aH
	DB	048H
	DB	04aH
	DB	049H
	DB	042H
	DB	049H
	DB	04aH
	DB	049H
	DB	04aH
	DB	029H
	DB	042H
	DB	049H
	DB	04aH
	DB	049H
	DB	04aH
	DB	049H
	DB	04aH
	DB	049H
	DB	04aH
	DB	029H
	DB	04aH
	DB	049H
	DB	042H
	DB	049H
	DB	04aH
	DB	048H
	DB	04aH
	DB	029H
	DB	04aH
	DB	049H
	DB	04aH
	DB	049H
	DB	04aH
	DB	049H
	DB	042H
	DB	029H
	DB	04aH
	DB	048H
	DB	04aH
	DB	049H
	DB	042H
	DB	049H
	DB	04aH
	DB	049H
	DB	04aH
	DB	029H
	DB	04aH
	DB	049H
	DB	04aH
	DB	049H
	DB	04aH
	DB	049H
	DB	042H
	DB	029H
	DB	04aH
	DB	048H
	DB	04aH
	DB	049H
	DB	04aH
	DB	049H
	DB	04aH
	DB	049H
	DB	04aH
	DB	049H
	DB	042H
	DB	049H
	DB	04aH
	DB	028H
	DB	04aH
	DB	049H
	DB	042H
	DB	049H
	DB	04aH
	DB	029H
	DB	04aH
	DB	049H
	DB	04aH
	DB	049H
	DB	04aH
	DB	049H
	DB	04aH
	DB	049H
	DB	042H
	DB	049H
	DB	04aH
	DB	048H
	DB	04aH
	DB	049H
	DB	04aH
	DB	029H
	DB	04aH
	DB	049H
	DB	04aH
	DB	049H
	DB	042H
	DB	029H
	DB	04aH
	DB	048H
	DB	04aH
	DB	049H
	DB	042H
	DB	029H
	DB	04aH
	DB	049H
	DB	04aH
	DB	049H
	DB	04aH
	DB	029H
	DB	04aH
	DB	049H
	DB	04aH
	DB	049H
	DB	042H
	DB	029H
	DB	04aH
	DB	048H
	DB	04aH
	DB	049H
	DB	04aH
	DB	029H
	DB	04aH
	DB	049H
	DB	04aH
	DB	049H
	DB	042H
	DB	029H
	DB	04aH
	DB	048H
	DB	04aH
	DB	049H
	DB	042H
	DB	049H
	DB	04aH
	DB	049H
	DB	04aH
	DB	049H
	DB	04aH
	DB	029H
	DB	04aH
	DB	049H
	DB	04aH
	DB	049H
	DB	042H
	DB	029H
	DB	04aH
	DB	048H
	DB	04aH
	DB	049H
	DB	04aH
	DB	049H
	DB	04aH
	DB	029H
	DB	04aH
	DB	049H
	DB	042H
	DB	049H
	DB	04aH
	DB	048H
	DB	04aH
	DB	049H
	DB	042H
	DB	029H
	DB	04aH
	DB	049H
	DB	04aH
	DB	049H
	DB	042H
	DB	049H
	DB	04aH
	DB	029H
	DB	04aH
	DB	049H
	DB	04aH
	DB	049H
	DB	04aH
	DB	029H
	DB	04aH
	DB	049H
	DB	04aH
	DB	049H
	DB	042H
	DB	029H
	DB	04aH
	DB	049H
	DB	04aH
	DB	049H
	DB	04aH
	DB	029H
	DB	04aH
	DB	049H
	DB	04aH
	DB	049H
	DB	04aH
	DB	049H
	DB	04aH
	DB	049H
	DB	04aH
	DB	0efH
	DB	07bH
	DB	0efH
	DB	07bH
	DB	049H
	DB	04aH
	DB	049H
	DB	04aH
	DB	049H
	DB	04aH
	DB	029H
	DB	04aH
	DB	049H
	DB	04aH
	DB	049H
	DB	04aH
	DB	049H
	DB	04aH
	DB	049H
	DB	04aH
	DB	029H
	DB	04aH
	DB	049H
	DB	042H
	DB	049H
	DB	04aH
	DB	049H
	DB	04aH
	DB	028H
	DB	042H
	DB	049H
	DB	04aH
	DB	049H
	DB	04aH
	DB	028H
	DB	042H
	DB	049H
	DB	04aH
	DB	049H
	DB	04aH
	DB	029H
	DB	04aH
	DB	049H
	DB	04aH
	DB	049H
	DB	04aH
	DB	049H
	DB	042H
	DB	029H
	DB	04aH
	DB	049H
	DB	04aH
	DB	028H
	DB	04aH
	DB	049H
	DB	04aH
	DB	049H
	DB	04aH
	DB	029H
	DB	04aH
	DB	049H
	DB	04aH
	DB	049H
	DB	04aH
	DB	028H
	DB	04aH
	DB	049H
	DB	04aH
	DB	049H
	DB	04aH
	DB	029H
	DB	04aH
	DB	048H
	DB	042H
	DB	049H
	DB	04aH
	DB	049H
	DB	04aH
	DB	029H
	DB	042H
	DB	049H
	DB	04aH
	DB	049H
	DB	04aH
	DB	029H
	DB	04aH
	DB	049H
	DB	04aH
	DB	049H
	DB	04aH
	DB	049H
	DB	04aH
	DB	049H
	DB	042H
	DB	048H
	DB	04aH
	DB	049H
	DB	04aH
	DB	029H
	DB	04aH
	DB	049H
	DB	04aH
	DB	049H
	DB	04aH
	DB	049H
	DB	04aH
	DB	029H
	DB	04aH
	DB	048H
	DB	04aH
	DB	049H
	DB	04aH
	DB	029H
	DB	04aH
	DB	049H
	DB	04aH
	DB	029H
	DB	04aH
	DB	048H
	DB	04aH
	DB	029H
	DB	04aH
	DB	049H
	DB	04aH
	DB	029H
	DB	04aH
	DB	049H
	DB	04aH
	DB	029H
	DB	04aH
	DB	028H
	DB	04aH
	DB	049H
	DB	04aH
	DB	029H
	DB	04aH
	DB	049H
	DB	04aH
	DB	049H
	DB	04aH
	DB	028H
	DB	04aH
	DB	049H
	DB	04aH
	DB	049H
	DB	04aH
	DB	048H
	DB	04aH
	DB	029H
	DB	04aH
	DB	049H
	DB	04aH
	DB	048H
	DB	04aH
	DB	049H
	DB	04aH
	DB	049H
	DB	04aH
	DB	029H
	DB	04aH
	DB	049H
	DB	04aH
	DB	049H
	DB	04aH
	DB	048H
	DB	04aH
	DB	049H
	DB	04aH
	DB	049H
	DB	04aH
	DB	029H
	DB	04aH
	DB	049H
	DB	04aH
	DB	049H
	DB	04aH
	DB	048H
	DB	04aH
	DB	049H
	DB	04aH
	DB	029H
	DB	04aH
	DB	048H
	DB	04aH
	DB	049H
	DB	04aH
	DB	029H
	DB	04aH
	DB	049H
	DB	04aH
	DB	029H
	DB	04aH
	DB	029H
	DB	04aH
	DB	048H
	DB	04aH
	DB	049H
	DB	04aH
	DB	029H
	DB	04aH
	DB	049H
	DB	04aH
	DB	049H
	DB	04aH
	DB	049H
	DB	04aH
	DB	048H
	DB	04aH
	DB	029H
	DB	04aH
	DB	049H
	DB	04aH
	DB	048H
	DB	04aH
	DB	029H
	DB	04aH
	DB	049H
	DB	04aH
	DB	049H
	DB	04aH
	DB	049H
	DB	04aH
	DB	049H
	DB	04aH
	DB	048H
	DB	04aH
	DB	049H
	DB	04aH
	DB	029H
	DB	04aH
	DB	049H
	DB	04aH
	DB	049H
	DB	04aH
	DB	029H
	DB	04aH
	DB	048H
	DB	04aH
	DB	049H
	DB	04aH
	DB	049H
	DB	04aH
	DB	048H
	DB	04aH
	DB	049H
	DB	04aH
	DB	029H
	DB	04aH
	DB	049H
	DB	04aH
	DB	049H
	DB	04aH
	DB	049H
	DB	04aH
	DB	048H
	DB	04aH
	DB	049H
	DB	04aH
	DB	049H
	DB	04aH
	DB	049H
	DB	04aH
	DB	029H
	DB	04aH
	DB	049H
	DB	04aH
	DB	048H
	DB	04aH
	DB	049H
	DB	04aH
	DB	049H
	DB	04aH
	DB	048H
	DB	04aH
	DB	049H
	DB	04aH
	DB	029H
	DB	04aH
	DB	049H
	DB	04aH
	DB	049H
	DB	04aH
	DB	029H
	DB	04aH
	DB	048H
	DB	04aH
	DB	049H
	DB	04aH
	DB	029H
	DB	04aH
	DB	049H
	DB	04aH
	DB	049H
	DB	04aH
	DB	048H
	DB	04aH
	DB	029H
	DB	04aH
	DB	049H
	DB	04aH
	DB	048H
	DB	04aH
	DB	049H
	DB	04aH
	DB	029H
	DB	04aH
	DB	048H
	DB	04aH
	DB	049H
	DB	04aH
	DB	049H
	DB	04aH
	DB	049H
	DB	04aH
	DB	049H
	DB	04aH
	DB	028H
	DB	04aH
	DB	049H
	DB	042H
	DB	049H
	DB	04aH
	DB	029H
	DB	04aH
	DB	049H
	DB	04aH
	DB	049H
	DB	04aH
	DB	049H
	DB	04aH
	DB	0cfH
	DB	07bH
	DB	0efH
	DB	07bH
	DB	049H
	DB	04aH
	DB	029H
	DB	04aH
	DB	049H
	DB	04aH
	DB	049H
	DB	04aH
	DB	028H
	DB	04aH
	DB	049H
	DB	042H
	DB	049H
	DB	04aH
	DB	028H
	DB	04aH
	DB	049H
	DB	04aH
	DB	049H
	DB	04aH
	DB	048H
	DB	04aH
	DB	049H
	DB	04aH
	DB	029H
	DB	04aH
	DB	049H
	DB	04aH
	DB	049H
	DB	04aH
	DB	049H
	DB	04aH
	DB	049H
	DB	04aH
	DB	028H
	DB	04aH
	DB	049H
	DB	04aH
	DB	049H
	DB	04aH
	DB	048H
	DB	04aH
	DB	049H
	DB	04aH
	DB	049H
	DB	04aH
	DB	029H
	DB	042H
	DB	049H
	DB	04aH
	DB	049H
	DB	04aH
	DB	029H
	DB	042H
	DB	049H
	DB	04aH
	DB	049H
	DB	04aH
	DB	029H
	DB	042H
	DB	049H
	DB	04aH
	DB	049H
	DB	04aH
	DB	049H
	DB	04aH
	DB	029H
	DB	04aH
	DB	049H
	DB	04aH
	DB	049H
	DB	04aH
	DB	048H
	DB	04aH
	DB	049H
	DB	04aH
	DB	049H
	DB	04aH
	DB	048H
	DB	04aH
	DB	049H
	DB	04aH
	DB	029H
	DB	04aH
	DB	049H
	DB	04aH
	DB	029H
	DB	04aH
	DB	049H
	DB	04aH
	DB	049H
	DB	04aH
	DB	049H
	DB	04aH
	DB	048H
	DB	042H
	DB	029H
	DB	04aH
	DB	049H
	DB	04aH
	DB	049H
	DB	04aH
	DB	049H
	DB	04aH
	DB	029H
	DB	042H
	DB	049H
	DB	04aH
	DB	049H
	DB	04aH
	DB	029H
	DB	04aH
	DB	049H
	DB	042H
	DB	049H
	DB	04aH
	DB	049H
	DB	04aH
	DB	029H
	DB	042H
	DB	049H
	DB	04aH
	DB	049H
	DB	04aH
	DB	049H
	DB	042H
	DB	049H
	DB	04aH
	DB	049H
	DB	04aH
	DB	029H
	DB	042H
	DB	049H
	DB	04aH
	DB	049H
	DB	04aH
	DB	049H
	DB	04aH
	DB	049H
	DB	04aH
	DB	029H
	DB	042H
	DB	049H
	DB	04aH
	DB	049H
	DB	04aH
	DB	029H
	DB	042H
	DB	049H
	DB	04aH
	DB	049H
	DB	04aH
	DB	029H
	DB	04aH
	DB	049H
	DB	042H
	DB	049H
	DB	04aH
	DB	029H
	DB	04aH
	DB	049H
	DB	042H
	DB	049H
	DB	04aH
	DB	029H
	DB	04aH
	DB	049H
	DB	04aH
	DB	049H
	DB	04aH
	DB	029H
	DB	042H
	DB	049H
	DB	04aH
	DB	049H
	DB	04aH
	DB	049H
	DB	042H
	DB	049H
	DB	04aH
	DB	049H
	DB	04aH
	DB	049H
	DB	04aH
	DB	049H
	DB	042H
	DB	049H
	DB	04aH
	DB	049H
	DB	04aH
	DB	049H
	DB	042H
	DB	029H
	DB	04aH
	DB	049H
	DB	04aH
	DB	049H
	DB	04aH
	DB	029H
	DB	04aH
	DB	049H
	DB	042H
	DB	049H
	DB	04aH
	DB	049H
	DB	04aH
	DB	049H
	DB	042H
	DB	029H
	DB	04aH
	DB	049H
	DB	04aH
	DB	049H
	DB	04aH
	DB	029H
	DB	042H
	DB	029H
	DB	04aH
	DB	049H
	DB	04aH
	DB	049H
	DB	042H
	DB	029H
	DB	04aH
	DB	049H
	DB	04aH
	DB	049H
	DB	04aH
	DB	049H
	DB	04aH
	DB	049H
	DB	042H
	DB	029H
	DB	04aH
	DB	049H
	DB	04aH
	DB	049H
	DB	042H
	DB	029H
	DB	04aH
	DB	049H
	DB	04aH
	DB	049H
	DB	04aH
	DB	049H
	DB	042H
	DB	029H
	DB	04aH
	DB	049H
	DB	04aH
	DB	029H
	DB	042H
	DB	049H
	DB	04aH
	DB	049H
	DB	04aH
	DB	029H
	DB	04aH
	DB	049H
	DB	04aH
	DB	049H
	DB	042H
	DB	029H
	DB	04aH
	DB	029H
	DB	04aH
	DB	049H
	DB	042H
	DB	049H
	DB	04aH
	DB	029H
	DB	04aH
	DB	049H
	DB	04aH
	DB	049H
	DB	042H
	DB	049H
	DB	04aH
	DB	049H
	DB	04aH
	DB	049H
	DB	042H
	DB	049H
	DB	04aH
	DB	049H
	DB	04aH
	DB	029H
	DB	04aH
	DB	049H
	DB	04aH
	DB	049H
	DB	04aH
	DB	049H
	DB	04aH
	DB	029H
	DB	04aH
	DB	049H
	DB	04aH
	DB	049H
	DB	042H
	DB	049H
	DB	04aH
	DB	029H
	DB	04aH
	DB	049H
	DB	042H
	DB	029H
	DB	04aH
	DB	049H
	DB	04aH
	DB	049H
	DB	04aH
	DB	049H
	DB	04aH
	DB	049H
	DB	04aH
	DB	048H
	DB	04aH
	DB	049H
	DB	04aH
	DB	029H
	DB	042H
	DB	049H
	DB	04aH
	DB	049H
	DB	04aH
	DB	0efH
	DB	07bH
	DB	0efH
	DB	07bH
	DB	049H
	DB	04aH
	DB	049H
	DB	04aH
	DB	049H
	DB	04aH
	DB	049H
	DB	04aH
	DB	049H
	DB	04aH
	DB	029H
	DB	04aH
	DB	049H
	DB	04aH
	DB	049H
	DB	04aH
	DB	049H
	DB	04aH
	DB	029H
	DB	04aH
	DB	049H
	DB	04aH
	DB	049H
	DB	04aH
	DB	049H
	DB	04aH
	DB	049H
	DB	04aH
	DB	029H
	DB	04aH
	DB	049H
	DB	04aH
	DB	049H
	DB	04aH
	DB	049H
	DB	042H
	DB	049H
	DB	04aH
	DB	029H
	DB	04aH
	DB	049H
	DB	042H
	DB	049H
	DB	04aH
	DB	029H
	DB	04aH
	DB	049H
	DB	04aH
	DB	049H
	DB	04aH
	DB	049H
	DB	04aH
	DB	048H
	DB	04aH
	DB	049H
	DB	04aH
	DB	049H
	DB	04aH
	DB	048H
	DB	04aH
	DB	029H
	DB	04aH
	DB	049H
	DB	04aH
	DB	048H
	DB	042H
	DB	049H
	DB	04aH
	DB	029H
	DB	04aH
	DB	049H
	DB	04aH
	DB	029H
	DB	04aH
	DB	049H
	DB	04aH
	DB	029H
	DB	042H
	DB	049H
	DB	04aH
	DB	049H
	DB	04aH
	DB	048H
	DB	042H
	DB	049H
	DB	04aH
	DB	029H
	DB	04aH
	DB	048H
	DB	04aH
	DB	029H
	DB	04aH
	DB	049H
	DB	04aH
	DB	049H
	DB	04aH
	DB	049H
	DB	04aH
	DB	029H
	DB	04aH
	DB	048H
	DB	042H
	DB	049H
	DB	04aH
	DB	049H
	DB	04aH
	DB	049H
	DB	04aH
	DB	048H
	DB	04aH
	DB	049H
	DB	04aH
	DB	049H
	DB	04aH
	DB	049H
	DB	04aH
	DB	049H
	DB	04aH
	DB	048H
	DB	04aH
	DB	049H
	DB	04aH
	DB	049H
	DB	04aH
	DB	048H
	DB	04aH
	DB	049H
	DB	04aH
	DB	049H
	DB	04aH
	DB	049H
	DB	04aH
	DB	028H
	DB	04aH
	DB	049H
	DB	04aH
	DB	049H
	DB	04aH
	DB	029H
	DB	04aH
	DB	049H
	DB	04aH
	DB	049H
	DB	04aH
	DB	048H
	DB	04aH
	DB	049H
	DB	04aH
	DB	029H
	DB	04aH
	DB	049H
	DB	04aH
	DB	048H
	DB	04aH
	DB	049H
	DB	04aH
	DB	049H
	DB	04aH
	DB	028H
	DB	04aH
	DB	049H
	DB	04aH
	DB	049H
	DB	04aH
	DB	048H
	DB	04aH
	DB	049H
	DB	04aH
	DB	049H
	DB	04aH
	DB	028H
	DB	04aH
	DB	049H
	DB	04aH
	DB	049H
	DB	04aH
	DB	029H
	DB	04aH
	DB	049H
	DB	04aH
	DB	028H
	DB	04aH
	DB	049H
	DB	04aH
	DB	049H
	DB	04aH
	DB	028H
	DB	04aH
	DB	049H
	DB	04aH
	DB	049H
	DB	04aH
	DB	049H
	DB	04aH
	DB	048H
	DB	04aH
	DB	049H
	DB	04aH
	DB	029H
	DB	04aH
	DB	048H
	DB	04aH
	DB	049H
	DB	04aH
	DB	029H
	DB	04aH
	DB	049H
	DB	04aH
	DB	049H
	DB	04aH
	DB	048H
	DB	04aH
	DB	049H
	DB	04aH
	DB	049H
	DB	04aH
	DB	048H
	DB	04aH
	DB	049H
	DB	04aH
	DB	029H
	DB	04aH
	DB	049H
	DB	04aH
	DB	048H
	DB	04aH
	DB	029H
	DB	04aH
	DB	049H
	DB	04aH
	DB	048H
	DB	04aH
	DB	029H
	DB	04aH
	DB	049H
	DB	04aH
	DB	049H
	DB	04aH
	DB	029H
	DB	04aH
	DB	048H
	DB	04aH
	DB	049H
	DB	04aH
	DB	029H
	DB	04aH
	DB	048H
	DB	04aH
	DB	049H
	DB	04aH
	DB	049H
	DB	04aH
	DB	029H
	DB	04aH
	DB	048H
	DB	04aH
	DB	049H
	DB	04aH
	DB	049H
	DB	04aH
	DB	048H
	DB	04aH
	DB	049H
	DB	04aH
	DB	049H
	DB	04aH
	DB	049H
	DB	04aH
	DB	029H
	DB	04aH
	DB	048H
	DB	04aH
	DB	049H
	DB	04aH
	DB	049H
	DB	04aH
	DB	028H
	DB	04aH
	DB	049H
	DB	04aH
	DB	029H
	DB	04aH
	DB	049H
	DB	04aH
	DB	048H
	DB	04aH
	DB	049H
	DB	042H
	DB	029H
	DB	04aH
	DB	049H
	DB	04aH
	DB	049H
	DB	042H
	DB	049H
	DB	04aH
	DB	029H
	DB	04aH
	DB	049H
	DB	04aH
	DB	049H
	DB	04aH
	DB	049H
	DB	04aH
	DB	048H
	DB	04aH
	DB	029H
	DB	04aH
	DB	049H
	DB	042H
	DB	048H
	DB	04aH
	DB	029H
	DB	04aH
	DB	049H
	DB	04aH
	DB	049H
	DB	04aH
	DB	029H
	DB	04aH
	DB	049H
	DB	04aH
	DB	049H
	DB	04aH
	DB	049H
	DB	04aH
	DB	0efH
	DB	07bH
	DB	0efH
	DB	07bH
	DB	049H
	DB	04aH
	DB	029H
	DB	04aH
	DB	049H
	DB	04aH
	DB	049H
	DB	04aH
	DB	029H
	DB	04aH
	DB	049H
	DB	04aH
	DB	049H
	DB	042H
	DB	049H
	DB	04aH
	DB	029H
	DB	04aH
	DB	049H
	DB	042H
	DB	049H
	DB	04aH
	DB	029H
	DB	04aH
	DB	048H
	DB	042H
	DB	049H
	DB	04aH
	DB	029H
	DB	04aH
	DB	048H
	DB	042H
	DB	049H
	DB	04aH
	DB	029H
	DB	04aH
	DB	049H
	DB	04aH
	DB	049H
	DB	04aH
	DB	029H
	DB	04aH
	DB	049H
	DB	04aH
	DB	048H
	DB	04aH
	DB	049H
	DB	04aH
	DB	029H
	DB	04aH
	DB	049H
	DB	04aH
	DB	029H
	DB	04aH
	DB	029H
	DB	042H
	DB	049H
	DB	04aH
	DB	049H
	DB	04aH
	DB	049H
	DB	04aH
	DB	029H
	DB	04aH
	DB	049H
	DB	04aH
	DB	049H
	DB	04aH
	DB	049H
	DB	04aH
	DB	049H
	DB	042H
	DB	049H
	DB	04aH
	DB	029H
	DB	04aH
	DB	049H
	DB	04aH
	DB	049H
	DB	04aH
	DB	029H
	DB	04aH
	DB	049H
	DB	04aH
	DB	049H
	DB	04aH
	DB	049H
	DB	042H
	DB	049H
	DB	04aH
	DB	049H
	DB	04aH
	DB	029H
	DB	042H
	DB	049H
	DB	04aH
	DB	049H
	DB	04aH
	DB	049H
	DB	04aH
	DB	029H
	DB	04aH
	DB	049H
	DB	04aH
	DB	049H
	DB	04aH
	DB	029H
	DB	04aH
	DB	049H
	DB	04aH
	DB	029H
	DB	042H
	DB	049H
	DB	04aH
	DB	029H
	DB	04aH
	DB	049H
	DB	04aH
	DB	049H
	DB	04aH
	DB	029H
	DB	04aH
	DB	029H
	DB	04aH
	DB	049H
	DB	04aH
	DB	029H
	DB	04aH
	DB	049H
	DB	04aH
	DB	049H
	DB	04aH
	DB	049H
	DB	04aH
	DB	029H
	DB	042H
	DB	049H
	DB	04aH
	DB	048H
	DB	04aH
	DB	049H
	DB	04aH
	DB	029H
	DB	04aH
	DB	049H
	DB	04aH
	DB	049H
	DB	04aH
	DB	049H
	DB	042H
	DB	029H
	DB	04aH
	DB	049H
	DB	04aH
	DB	049H
	DB	04aH
	DB	049H
	DB	04aH
	DB	049H
	DB	04aH
	DB	029H
	DB	04aH
	DB	049H
	DB	04aH
	DB	049H
	DB	042H
	DB	029H
	DB	04aH
	DB	049H
	DB	04aH
	DB	049H
	DB	04aH
	DB	049H
	DB	04aH
	DB	029H
	DB	04aH
	DB	049H
	DB	04aH
	DB	049H
	DB	042H
	DB	029H
	DB	04aH
	DB	049H
	DB	04aH
	DB	049H
	DB	04aH
	DB	029H
	DB	04aH
	DB	049H
	DB	04aH
	DB	049H
	DB	04aH
	DB	029H
	DB	04aH
	DB	049H
	DB	042H
	DB	049H
	DB	04aH
	DB	049H
	DB	04aH
	DB	049H
	DB	04aH
	DB	029H
	DB	04aH
	DB	049H
	DB	04aH
	DB	049H
	DB	04aH
	DB	029H
	DB	042H
	DB	049H
	DB	04aH
	DB	029H
	DB	04aH
	DB	049H
	DB	04aH
	DB	049H
	DB	04aH
	DB	049H
	DB	04aH
	DB	049H
	DB	04aH
	DB	049H
	DB	04aH
	DB	049H
	DB	042H
	DB	029H
	DB	04aH
	DB	049H
	DB	04aH
	DB	049H
	DB	04aH
	DB	049H
	DB	04aH
	DB	049H
	DB	04aH
	DB	049H
	DB	04aH
	DB	049H
	DB	042H
	DB	049H
	DB	04aH
	DB	049H
	DB	04aH
	DB	049H
	DB	04aH
	DB	049H
	DB	04aH
	DB	049H
	DB	04aH
	DB	049H
	DB	04aH
	DB	049H
	DB	04aH
	DB	029H
	DB	042H
	DB	049H
	DB	04aH
	DB	029H
	DB	04aH
	DB	049H
	DB	04aH
	DB	049H
	DB	04aH
	DB	049H
	DB	04aH
	DB	029H
	DB	04aH
	DB	049H
	DB	042H
	DB	049H
	DB	04aH
	DB	049H
	DB	04aH
	DB	029H
	DB	04aH
	DB	049H
	DB	04aH
	DB	049H
	DB	04aH
	DB	049H
	DB	04aH
	DB	029H
	DB	04aH
	DB	049H
	DB	04aH
	DB	049H
	DB	04aH
	DB	049H
	DB	04aH
	DB	028H
	DB	04aH
	DB	049H
	DB	04aH
	DB	049H
	DB	04aH
	DB	048H
	DB	04aH
	DB	029H
	DB	04aH
	DB	049H
	DB	04aH
	DB	049H
	DB	042H
	DB	049H
	DB	04aH
	DB	049H
	DB	04aH
	DB	049H
	DB	04aH
	DB	029H
	DB	04aH
	DB	049H
	DB	04aH
	DB	049H
	DB	042H
	DB	029H
	DB	04aH
	DB	048H
	DB	04aH
	DB	049H
	DB	04aH
	DB	049H
	DB	04aH
	DB	049H
	DB	04aH
	DB	0cfH
	DB	07bH
	DB	0efH
	DB	07bH
	DB	049H
	DB	04aH
	DB	029H
	DB	04aH
	DB	049H
	DB	04aH
	DB	049H
	DB	04aH
	DB	048H
	DB	04aH
	DB	049H
	DB	04aH
	DB	029H
	DB	04aH
	DB	048H
	DB	04aH
	DB	049H
	DB	04aH
	DB	049H
	DB	04aH
	DB	048H
	DB	04aH
	DB	029H
	DB	04aH
	DB	049H
	DB	04aH
	DB	049H
	DB	04aH
	DB	049H
	DB	04aH
	DB	049H
	DB	04aH
	DB	029H
	DB	04aH
	DB	049H
	DB	04aH
	DB	048H
	DB	04aH
	DB	049H
	DB	04aH
	DB	049H
	DB	04aH
	DB	029H
	DB	04aH
	DB	049H
	DB	042H
	DB	049H
	DB	04aH
	DB	048H
	DB	04aH
	DB	049H
	DB	042H
	DB	049H
	DB	04aH
	DB	049H
	DB	04aH
	DB	029H
	DB	04aH
	DB	049H
	DB	04aH
	DB	049H
	DB	042H
	DB	049H
	DB	04aH
	DB	029H
	DB	04aH
	DB	049H
	DB	04aH
	DB	048H
	DB	04aH
	DB	029H
	DB	04aH
	DB	049H
	DB	04aH
	DB	048H
	DB	04aH
	DB	049H
	DB	04aH
	DB	049H
	DB	04aH
	DB	028H
	DB	04aH
	DB	049H
	DB	04aH
	DB	049H
	DB	04aH
	DB	029H
	DB	04aH
	DB	049H
	DB	04aH
	DB	049H
	DB	04aH
	DB	028H
	DB	04aH
	DB	049H
	DB	04aH
	DB	049H
	DB	04aH
	DB	029H
	DB	04aH
	DB	049H
	DB	04aH
	DB	048H
	DB	04aH
	DB	029H
	DB	042H
	DB	049H
	DB	04aH
	DB	049H
	DB	04aH
	DB	049H
	DB	04aH
	DB	028H
	DB	04aH
	DB	049H
	DB	04aH
	DB	049H
	DB	042H
	DB	029H
	DB	04aH
	DB	049H
	DB	04aH
	DB	049H
	DB	042H
	DB	049H
	DB	04aH
	DB	029H
	DB	04aH
	DB	048H
	DB	042H
	DB	049H
	DB	04aH
	DB	029H
	DB	04aH
	DB	049H
	DB	04aH
	DB	049H
	DB	04aH
	DB	049H
	DB	042H
	DB	029H
	DB	04aH
	DB	049H
	DB	04aH
	DB	049H
	DB	042H
	DB	029H
	DB	04aH
	DB	048H
	DB	04aH
	DB	049H
	DB	04aH
	DB	029H
	DB	04aH
	DB	049H
	DB	042H
	DB	049H
	DB	04aH
	DB	029H
	DB	04aH
	DB	049H
	DB	042H
	DB	049H
	DB	04aH
	DB	029H
	DB	04aH
	DB	049H
	DB	04aH
	DB	049H
	DB	042H
	DB	049H
	DB	04aH
	DB	029H
	DB	04aH
	DB	048H
	DB	042H
	DB	049H
	DB	04aH
	DB	049H
	DB	04aH
	DB	049H
	DB	04aH
	DB	049H
	DB	04aH
	DB	049H
	DB	042H
	DB	049H
	DB	04aH
	DB	048H
	DB	04aH
	DB	029H
	DB	042H
	DB	049H
	DB	04aH
	DB	049H
	DB	04aH
	DB	029H
	DB	04aH
	DB	049H
	DB	042H
	DB	049H
	DB	04aH
	DB	049H
	DB	04aH
	DB	048H
	DB	042H
	DB	049H
	DB	04aH
	DB	049H
	DB	04aH
	DB	029H
	DB	04aH
	DB	049H
	DB	04aH
	DB	049H
	DB	042H
	DB	029H
	DB	04aH
	DB	028H
	DB	04aH
	DB	049H
	DB	042H
	DB	049H
	DB	04aH
	DB	049H
	DB	04aH
	DB	049H
	DB	04aH
	DB	049H
	DB	042H
	DB	029H
	DB	04aH
	DB	049H
	DB	04aH
	DB	028H
	DB	042H
	DB	049H
	DB	04aH
	DB	029H
	DB	04aH
	DB	049H
	DB	04aH
	DB	029H
	DB	04aH
	DB	049H
	DB	042H
	DB	029H
	DB	04aH
	DB	028H
	DB	04aH
	DB	049H
	DB	042H
	DB	049H
	DB	04aH
	DB	049H
	DB	04aH
	DB	049H
	DB	04aH
	DB	049H
	DB	042H
	DB	029H
	DB	04aH
	DB	049H
	DB	04aH
	DB	028H
	DB	042H
	DB	049H
	DB	04aH
	DB	049H
	DB	04aH
	DB	049H
	DB	04aH
	DB	029H
	DB	04aH
	DB	049H
	DB	042H
	DB	049H
	DB	04aH
	DB	048H
	DB	04aH
	DB	049H
	DB	042H
	DB	029H
	DB	04aH
	DB	049H
	DB	04aH
	DB	049H
	DB	04aH
	DB	049H
	DB	042H
	DB	049H
	DB	04aH
	DB	029H
	DB	04aH
	DB	049H
	DB	04aH
	DB	049H
	DB	042H
	DB	048H
	DB	04aH
	DB	029H
	DB	04aH
	DB	049H
	DB	04aH
	DB	029H
	DB	04aH
	DB	049H
	DB	04aH
	DB	049H
	DB	04aH
	DB	029H
	DB	04aH
	DB	049H
	DB	04aH
	DB	049H
	DB	04aH
	DB	049H
	DB	04aH
	DB	049H
	DB	042H
	DB	029H
	DB	04aH
	DB	049H
	DB	04aH
	DB	049H
	DB	04aH
	DB	0efH
	DB	07bH
	DB	0efH
	DB	07bH
	DB	049H
	DB	04aH
	DB	049H
	DB	04aH
	DB	049H
	DB	04aH
	DB	029H
	DB	04aH
	DB	049H
	DB	042H
	DB	049H
	DB	04aH
	DB	029H
	DB	04aH
	DB	049H
	DB	04aH
	DB	049H
	DB	04aH
	DB	029H
	DB	04aH
	DB	049H
	DB	04aH
	DB	049H
	DB	042H
	DB	029H
	DB	04aH
	DB	049H
	DB	04aH
	DB	049H
	DB	04aH
	DB	029H
	DB	04aH
	DB	049H
	DB	04aH
	DB	049H
	DB	042H
	DB	029H
	DB	04aH
	DB	049H
	DB	04aH
	DB	049H
	DB	04aH
	DB	048H
	DB	04aH
	DB	029H
	DB	04aH
	DB	049H
	DB	04aH
	DB	049H
	DB	04aH
	DB	029H
	DB	04aH
	DB	049H
	DB	04aH
	DB	048H
	DB	04aH
	DB	049H
	DB	04aH
	DB	029H
	DB	04aH
	DB	048H
	DB	04aH
	DB	049H
	DB	04aH
	DB	049H
	DB	04aH
	DB	029H
	DB	042H
	DB	049H
	DB	04aH
	DB	049H
	DB	04aH
	DB	029H
	DB	04aH
	DB	049H
	DB	042H
	DB	049H
	DB	04aH
	DB	029H
	DB	04aH
	DB	049H
	DB	042H
	DB	049H
	DB	04aH
	DB	049H
	DB	04aH
	DB	028H
	DB	04aH
	DB	049H
	DB	04aH
	DB	049H
	DB	04aH
	DB	049H
	DB	04aH
	DB	049H
	DB	04aH
	DB	049H
	DB	042H
	DB	028H
	DB	04aH
	DB	049H
	DB	04aH
	DB	049H
	DB	04aH
	DB	049H
	DB	04aH
	DB	049H
	DB	04aH
	DB	048H
	DB	04aH
	DB	049H
	DB	04aH
	DB	049H
	DB	04aH
	DB	049H
	DB	04aH
	DB	048H
	DB	04aH
	DB	049H
	DB	04aH
	DB	049H
	DB	04aH
	DB	048H
	DB	04aH
	DB	049H
	DB	04aH
	DB	049H
	DB	04aH
	DB	049H
	DB	04aH
	DB	049H
	DB	04aH
	DB	049H
	DB	04aH
	DB	048H
	DB	04aH
	DB	029H
	DB	04aH
	DB	049H
	DB	04aH
	DB	049H
	DB	04aH
	DB	048H
	DB	04aH
	DB	049H
	DB	04aH
	DB	029H
	DB	04aH
	DB	049H
	DB	04aH
	DB	049H
	DB	04aH
	DB	049H
	DB	04aH
	DB	028H
	DB	04aH
	DB	049H
	DB	04aH
	DB	049H
	DB	04aH
	DB	048H
	DB	04aH
	DB	049H
	DB	04aH
	DB	049H
	DB	04aH
	DB	028H
	DB	04aH
	DB	049H
	DB	04aH
	DB	049H
	DB	04aH
	DB	049H
	DB	04aH
	DB	049H
	DB	04aH
	DB	029H
	DB	04aH
	DB	048H
	DB	04aH
	DB	049H
	DB	04aH
	DB	029H
	DB	04aH
	DB	048H
	DB	04aH
	DB	049H
	DB	04aH
	DB	029H
	DB	04aH
	DB	049H
	DB	04aH
	DB	049H
	DB	04aH
	DB	048H
	DB	04aH
	DB	029H
	DB	04aH
	DB	049H
	DB	04aH
	DB	048H
	DB	04aH
	DB	029H
	DB	04aH
	DB	029H
	DB	04aH
	DB	049H
	DB	04aH
	DB	048H
	DB	04aH
	DB	049H
	DB	04aH
	DB	049H
	DB	04aH
	DB	048H
	DB	04aH
	DB	049H
	DB	04aH
	DB	049H
	DB	04aH
	DB	029H
	DB	04aH
	DB	049H
	DB	04aH
	DB	028H
	DB	04aH
	DB	049H
	DB	04aH
	DB	049H
	DB	04aH
	DB	048H
	DB	04aH
	DB	029H
	DB	04aH
	DB	049H
	DB	04aH
	DB	049H
	DB	04aH
	DB	048H
	DB	04aH
	DB	029H
	DB	04aH
	DB	049H
	DB	04aH
	DB	048H
	DB	04aH
	DB	049H
	DB	04aH
	DB	049H
	DB	04aH
	DB	029H
	DB	04aH
	DB	049H
	DB	04aH
	DB	048H
	DB	04aH
	DB	029H
	DB	04aH
	DB	049H
	DB	04aH
	DB	048H
	DB	04aH
	DB	049H
	DB	04aH
	DB	049H
	DB	04aH
	DB	049H
	DB	04aH
	DB	048H
	DB	04aH
	DB	029H
	DB	04aH
	DB	049H
	DB	04aH
	DB	048H
	DB	04aH
	DB	029H
	DB	04aH
	DB	049H
	DB	04aH
	DB	049H
	DB	04aH
	DB	049H
	DB	04aH
	DB	028H
	DB	04aH
	DB	049H
	DB	04aH
	DB	049H
	DB	04aH
	DB	029H
	DB	04aH
	DB	048H
	DB	04aH
	DB	049H
	DB	04aH
	DB	029H
	DB	04aH
	DB	049H
	DB	04aH
	DB	049H
	DB	04aH
	DB	049H
	DB	04aH
	DB	028H
	DB	04aH
	DB	049H
	DB	04aH
	DB	049H
	DB	042H
	DB	048H
	DB	04aH
	DB	049H
	DB	04aH
	DB	029H
	DB	04aH
	DB	048H
	DB	04aH
	DB	049H
	DB	04aH
	DB	029H
	DB	04aH
	DB	049H
	DB	04aH
	DB	049H
	DB	04aH
	DB	0efH
	DB	07bH
	DB	0efH
	DB	07bH
	DB	049H
	DB	04aH
	DB	049H
	DB	04aH
	DB	029H
	DB	04aH
	DB	049H
	DB	04aH
	DB	049H
	DB	04aH
	DB	049H
	DB	04aH
	DB	049H
	DB	04aH
	DB	049H
	DB	042H
	DB	028H
	DB	04aH
	DB	049H
	DB	04aH
	DB	049H
	DB	04aH
	DB	049H
	DB	04aH
	DB	049H
	DB	04aH
	DB	048H
	DB	04aH
	DB	029H
	DB	042H
	DB	049H
	DB	04aH
	DB	048H
	DB	04aH
	DB	049H
	DB	04aH
	DB	049H
	DB	04aH
	DB	029H
	DB	042H
	DB	049H
	DB	04aH
	DB	049H
	DB	04aH
	DB	049H
	DB	04aH
	DB	029H
	DB	04aH
	DB	049H
	DB	04aH
	DB	049H
	DB	04aH
	DB	029H
	DB	04aH
	DB	049H
	DB	042H
	DB	049H
	DB	04aH
	DB	049H
	DB	04aH
	DB	029H
	DB	04aH
	DB	049H
	DB	04aH
	DB	048H
	DB	04aH
	DB	049H
	DB	04aH
	DB	049H
	DB	04aH
	DB	049H
	DB	04aH
	DB	049H
	DB	04aH
	DB	049H
	DB	04aH
	DB	048H
	DB	04aH
	DB	049H
	DB	04aH
	DB	049H
	DB	04aH
	DB	049H
	DB	04aH
	DB	029H
	DB	042H
	DB	049H
	DB	04aH
	DB	049H
	DB	04aH
	DB	029H
	DB	042H
	DB	049H
	DB	04aH
	DB	049H
	DB	04aH
	DB	029H
	DB	04aH
	DB	049H
	DB	04aH
	DB	049H
	DB	04aH
	DB	049H
	DB	042H
	DB	029H
	DB	04aH
	DB	029H
	DB	04aH
	DB	049H
	DB	04aH
	DB	029H
	DB	042H
	DB	049H
	DB	04aH
	DB	029H
	DB	04aH
	DB	049H
	DB	04aH
	DB	049H
	DB	04aH
	DB	029H
	DB	04aH
	DB	029H
	DB	04aH
	DB	049H
	DB	042H
	DB	049H
	DB	04aH
	DB	029H
	DB	04aH
	DB	029H
	DB	04aH
	DB	049H
	DB	042H
	DB	049H
	DB	04aH
	DB	049H
	DB	04aH
	DB	029H
	DB	04aH
	DB	049H
	DB	04aH
	DB	049H
	DB	04aH
	DB	029H
	DB	04aH
	DB	049H
	DB	04aH
	DB	049H
	DB	042H
	DB	049H
	DB	04aH
	DB	049H
	DB	04aH
	DB	049H
	DB	04aH
	DB	029H
	DB	04aH
	DB	049H
	DB	04aH
	DB	049H
	DB	04aH
	DB	029H
	DB	04aH
	DB	049H
	DB	04aH
	DB	049H
	DB	04aH
	DB	029H
	DB	04aH
	DB	048H
	DB	04aH
	DB	049H
	DB	04aH
	DB	029H
	DB	04aH
	DB	049H
	DB	04aH
	DB	049H
	DB	042H
	DB	029H
	DB	04aH
	DB	049H
	DB	04aH
	DB	049H
	DB	04aH
	DB	029H
	DB	04aH
	DB	049H
	DB	04aH
	DB	049H
	DB	04aH
	DB	049H
	DB	04aH
	DB	029H
	DB	04aH
	DB	049H
	DB	04aH
	DB	049H
	DB	04aH
	DB	049H
	DB	04aH
	DB	049H
	DB	04aH
	DB	049H
	DB	04aH
	DB	029H
	DB	04aH
	DB	049H
	DB	042H
	DB	049H
	DB	04aH
	DB	029H
	DB	04aH
	DB	049H
	DB	04aH
	DB	049H
	DB	04aH
	DB	049H
	DB	04aH
	DB	049H
	DB	04aH
	DB	049H
	DB	04aH
	DB	029H
	DB	04aH
	DB	049H
	DB	04aH
	DB	049H
	DB	04aH
	DB	049H
	DB	04aH
	DB	049H
	DB	04aH
	DB	049H
	DB	04aH
	DB	049H
	DB	04aH
	DB	049H
	DB	042H
	DB	049H
	DB	04aH
	DB	049H
	DB	04aH
	DB	049H
	DB	04aH
	DB	049H
	DB	04aH
	DB	049H
	DB	04aH
	DB	049H
	DB	04aH
	DB	029H
	DB	04aH
	DB	049H
	DB	04aH
	DB	049H
	DB	04aH
	DB	029H
	DB	04aH
	DB	049H
	DB	04aH
	DB	049H
	DB	04aH
	DB	029H
	DB	04aH
	DB	049H
	DB	04aH
	DB	049H
	DB	042H
	DB	049H
	DB	04aH
	DB	049H
	DB	04aH
	DB	049H
	DB	04aH
	DB	029H
	DB	042H
	DB	049H
	DB	04aH
	DB	049H
	DB	04aH
	DB	029H
	DB	042H
	DB	049H
	DB	04aH
	DB	049H
	DB	04aH
	DB	029H
	DB	04aH
	DB	049H
	DB	042H
	DB	049H
	DB	04aH
	DB	049H
	DB	04aH
	DB	049H
	DB	04aH
	DB	029H
	DB	042H
	DB	049H
	DB	04aH
	DB	049H
	DB	04aH
	DB	049H
	DB	042H
	DB	049H
	DB	04aH
	DB	029H
	DB	04aH
	DB	049H
	DB	04aH
	DB	049H
	DB	04aH
	DB	029H
	DB	042H
	DB	049H
	DB	04aH
	DB	049H
	DB	04aH
	DB	049H
	DB	04aH
	DB	049H
	DB	04aH
	DB	049H
	DB	04aH
	DB	0cfH
	DB	07bH
	DB	0cfH
	DB	07bH
	DB	049H
	DB	04aH
	DB	049H
	DB	04aH
	DB	049H
	DB	04aH
	DB	029H
	DB	04aH
	DB	049H
	DB	04aH
	DB	028H
	DB	04aH
	DB	049H
	DB	04aH
	DB	049H
	DB	04aH
	DB	049H
	DB	04aH
	DB	049H
	DB	042H
	DB	029H
	DB	04aH
	DB	049H
	DB	04aH
	DB	049H
	DB	04aH
	DB	029H
	DB	04aH
	DB	049H
	DB	04aH
	DB	049H
	DB	04aH
	DB	049H
	DB	04aH
	DB	029H
	DB	04aH
	DB	049H
	DB	04aH
	DB	048H
	DB	04aH
	DB	029H
	DB	04aH
	DB	049H
	DB	042H
	DB	049H
	DB	04aH
	DB	049H
	DB	04aH
	DB	048H
	DB	042H
	DB	049H
	DB	04aH
	DB	049H
	DB	04aH
	DB	029H
	DB	04aH
	DB	049H
	DB	04aH
	DB	048H
	DB	04aH
	DB	049H
	DB	042H
	DB	029H
	DB	04aH
	DB	049H
	DB	04aH
	DB	049H
	DB	04aH
	DB	029H
	DB	042H
	DB	048H
	DB	04aH
	DB	029H
	DB	04aH
	DB	049H
	DB	04aH
	DB	029H
	DB	04aH
	DB	049H
	DB	042H
	DB	049H
	DB	04aH
	DB	028H
	DB	04aH
	DB	049H
	DB	04aH
	DB	049H
	DB	04aH
	DB	049H
	DB	04aH
	DB	028H
	DB	04aH
	DB	049H
	DB	04aH
	DB	049H
	DB	04aH
	DB	048H
	DB	04aH
	DB	049H
	DB	04aH
	DB	049H
	DB	04aH
	DB	029H
	DB	04aH
	DB	048H
	DB	04aH
	DB	049H
	DB	04aH
	DB	049H
	DB	04aH
	DB	049H
	DB	04aH
	DB	029H
	DB	04aH
	DB	049H
	DB	042H
	DB	049H
	DB	04aH
	DB	029H
	DB	04aH
	DB	049H
	DB	042H
	DB	049H
	DB	04aH
	DB	048H
	DB	04aH
	DB	049H
	DB	04aH
	DB	049H
	DB	04aH
	DB	048H
	DB	04aH
	DB	029H
	DB	04aH
	DB	049H
	DB	04aH
	DB	049H
	DB	04aH
	DB	048H
	DB	042H
	DB	029H
	DB	04aH
	DB	049H
	DB	04aH
	DB	049H
	DB	042H
	DB	048H
	DB	04aH
	DB	029H
	DB	04aH
	DB	049H
	DB	04aH
	DB	048H
	DB	04aH
	DB	029H
	DB	042H
	DB	049H
	DB	04aH
	DB	049H
	DB	04aH
	DB	029H
	DB	042H
	DB	048H
	DB	04aH
	DB	049H
	DB	04aH
	DB	049H
	DB	042H
	DB	049H
	DB	04aH
	DB	029H
	DB	04aH
	DB	049H
	DB	042H
	DB	049H
	DB	04aH
	DB	049H
	DB	04aH
	DB	049H
	DB	04aH
	DB	049H
	DB	04aH
	DB	049H
	DB	042H
	DB	049H
	DB	04aH
	DB	049H
	DB	04aH
	DB	048H
	DB	042H
	DB	029H
	DB	04aH
	DB	049H
	DB	04aH
	DB	049H
	DB	042H
	DB	049H
	DB	04aH
	DB	029H
	DB	04aH
	DB	049H
	DB	042H
	DB	049H
	DB	04aH
	DB	049H
	DB	04aH
	DB	049H
	DB	04aH
	DB	029H
	DB	04aH
	DB	049H
	DB	04aH
	DB	049H
	DB	042H
	DB	029H
	DB	04aH
	DB	029H
	DB	04aH
	DB	048H
	DB	042H
	DB	049H
	DB	04aH
	DB	049H
	DB	04aH
	DB	049H
	DB	042H
	DB	029H
	DB	04aH
	DB	049H
	DB	04aH
	DB	029H
	DB	042H
	DB	049H
	DB	04aH
	DB	029H
	DB	04aH
	DB	029H
	DB	04aH
	DB	049H
	DB	04aH
	DB	049H
	DB	04aH
	DB	029H
	DB	042H
	DB	029H
	DB	04aH
	DB	049H
	DB	04aH
	DB	048H
	DB	042H
	DB	029H
	DB	04aH
	DB	049H
	DB	04aH
	DB	049H
	DB	042H
	DB	049H
	DB	04aH
	DB	049H
	DB	04aH
	DB	029H
	DB	042H
	DB	049H
	DB	04aH
	DB	049H
	DB	04aH
	DB	029H
	DB	04aH
	DB	049H
	DB	04aH
	DB	029H
	DB	04aH
	DB	049H
	DB	04aH
	DB	049H
	DB	04aH
	DB	049H
	DB	04aH
	DB	048H
	DB	04aH
	DB	049H
	DB	04aH
	DB	029H
	DB	04aH
	DB	049H
	DB	04aH
	DB	048H
	DB	04aH
	DB	049H
	DB	04aH
	DB	049H
	DB	04aH
	DB	029H
	DB	04aH
	DB	049H
	DB	04aH
	DB	048H
	DB	04aH
	DB	049H
	DB	04aH
	DB	029H
	DB	04aH
	DB	048H
	DB	04aH
	DB	049H
	DB	04aH
	DB	029H
	DB	04aH
	DB	049H
	DB	04aH
	DB	049H
	DB	04aH
	DB	048H
	DB	04aH
	DB	049H
	DB	04aH
	DB	029H
	DB	04aH
	DB	049H
	DB	04aH
	DB	048H
	DB	042H
	DB	029H
	DB	04aH
	DB	049H
	DB	04aH
	DB	0efH
	DB	07bH
	DB	0efH
	DB	07bH
	DB	049H
	DB	04aH
	DB	049H
	DB	04aH
	DB	049H
	DB	04aH
	DB	049H
	DB	04aH
	DB	049H
	DB	042H
	DB	029H
	DB	04aH
	DB	049H
	DB	04aH
	DB	049H
	DB	04aH
	DB	029H
	DB	04aH
	DB	049H
	DB	04aH
	DB	048H
	DB	04aH
	DB	029H
	DB	04aH
	DB	049H
	DB	042H
	DB	049H
	DB	04aH
	DB	049H
	DB	04aH
	DB	049H
	DB	04aH
	DB	029H
	DB	042H
	DB	049H
	DB	04aH
	DB	049H
	DB	04aH
	DB	049H
	DB	04aH
	DB	049H
	DB	04aH
	DB	029H
	DB	04aH
	DB	048H
	DB	04aH
	DB	049H
	DB	04aH
	DB	029H
	DB	04aH
	DB	049H
	DB	04aH
	DB	049H
	DB	04aH
	DB	048H
	DB	04aH
	DB	029H
	DB	04aH
	DB	049H
	DB	04aH
	DB	049H
	DB	04aH
	DB	049H
	DB	04aH
	DB	029H
	DB	04aH
	DB	049H
	DB	04aH
	DB	049H
	DB	04aH
	DB	029H
	DB	04aH
	DB	049H
	DB	042H
	DB	049H
	DB	04aH
	DB	029H
	DB	04aH
	DB	049H
	DB	04aH
	DB	049H
	DB	04aH
	DB	029H
	DB	04aH
	DB	049H
	DB	04aH
	DB	049H
	DB	04aH
	DB	049H
	DB	04aH
	DB	049H
	DB	04aH
	DB	029H
	DB	042H
	DB	049H
	DB	04aH
	DB	049H
	DB	04aH
	DB	029H
	DB	042H
	DB	049H
	DB	04aH
	DB	049H
	DB	04aH
	DB	049H
	DB	04aH
	DB	049H
	DB	042H
	DB	049H
	DB	04aH
	DB	048H
	DB	04aH
	DB	049H
	DB	04aH
	DB	049H
	DB	04aH
	DB	048H
	DB	04aH
	DB	049H
	DB	04aH
	DB	049H
	DB	04aH
	DB	049H
	DB	04aH
	DB	029H
	DB	04aH
	DB	049H
	DB	04aH
	DB	049H
	DB	04aH
	DB	049H
	DB	042H
	DB	049H
	DB	04aH
	DB	029H
	DB	04aH
	DB	049H
	DB	04aH
	DB	049H
	DB	04aH
	DB	049H
	DB	04aH
	DB	049H
	DB	04aH
	DB	049H
	DB	04aH
	DB	029H
	DB	04aH
	DB	049H
	DB	04aH
	DB	049H
	DB	04aH
	DB	029H
	DB	04aH
	DB	049H
	DB	04aH
	DB	049H
	DB	04aH
	DB	048H
	DB	04aH
	DB	049H
	DB	04aH
	DB	049H
	DB	04aH
	DB	029H
	DB	04aH
	DB	049H
	DB	04aH
	DB	049H
	DB	04aH
	DB	049H
	DB	04aH
	DB	029H
	DB	04aH
	DB	048H
	DB	04aH
	DB	029H
	DB	04aH
	DB	049H
	DB	04aH
	DB	028H
	DB	04aH
	DB	029H
	DB	04aH
	DB	049H
	DB	04aH
	DB	049H
	DB	04aH
	DB	029H
	DB	04aH
	DB	049H
	DB	04aH
	DB	048H
	DB	04aH
	DB	049H
	DB	04aH
	DB	029H
	DB	04aH
	DB	048H
	DB	04aH
	DB	049H
	DB	04aH
	DB	029H
	DB	04aH
	DB	048H
	DB	042H
	DB	049H
	DB	04aH
	DB	049H
	DB	04aH
	DB	048H
	DB	04aH
	DB	049H
	DB	04aH
	DB	049H
	DB	04aH
	DB	049H
	DB	04aH
	DB	029H
	DB	04aH
	DB	049H
	DB	04aH
	DB	028H
	DB	04aH
	DB	049H
	DB	04aH
	DB	049H
	DB	04aH
	DB	048H
	DB	04aH
	DB	049H
	DB	04aH
	DB	049H
	DB	04aH
	DB	048H
	DB	042H
	DB	049H
	DB	04aH
	DB	049H
	DB	04aH
	DB	048H
	DB	04aH
	DB	049H
	DB	04aH
	DB	049H
	DB	04aH
	DB	029H
	DB	04aH
	DB	049H
	DB	04aH
	DB	049H
	DB	04aH
	DB	048H
	DB	04aH
	DB	029H
	DB	04aH
	DB	049H
	DB	04aH
	DB	048H
	DB	04aH
	DB	049H
	DB	04aH
	DB	049H
	DB	04aH
	DB	048H
	DB	042H
	DB	049H
	DB	04aH
	DB	029H
	DB	04aH
	DB	048H
	DB	04aH
	DB	049H
	DB	042H
	DB	029H
	DB	04aH
	DB	049H
	DB	04aH
	DB	049H
	DB	04aH
	DB	029H
	DB	04aH
	DB	049H
	DB	04aH
	DB	049H
	DB	04aH
	DB	049H
	DB	042H
	DB	029H
	DB	04aH
	DB	048H
	DB	04aH
	DB	049H
	DB	04aH
	DB	029H
	DB	042H
	DB	049H
	DB	04aH
	DB	049H
	DB	04aH
	DB	049H
	DB	04aH
	DB	049H
	DB	04aH
	DB	029H
	DB	04aH
	DB	049H
	DB	04aH
	DB	048H
	DB	042H
	DB	029H
	DB	04aH
	DB	049H
	DB	04aH
	DB	049H
	DB	04aH
	DB	049H
	DB	04aH
	DB	029H
	DB	04aH
	DB	049H
	DB	04aH
	DB	049H
	DB	04aH
	DB	049H
	DB	04aH
	DB	0efH
	DB	07bH
	DB	0efH
	DB	07bH
	DB	049H
	DB	04aH
	DB	029H
	DB	04aH
	DB	049H
	DB	04aH
	DB	049H
	DB	04aH
	DB	049H
	DB	04aH
	DB	049H
	DB	04aH
	DB	048H
	DB	04aH
	DB	029H
	DB	042H
	DB	049H
	DB	04aH
	DB	049H
	DB	04aH
	DB	049H
	DB	04aH
	DB	049H
	DB	04aH
	DB	028H
	DB	04aH
	DB	049H
	DB	04aH
	DB	049H
	DB	04aH
	DB	028H
	DB	04aH
	DB	049H
	DB	04aH
	DB	049H
	DB	04aH
	DB	028H
	DB	04aH
	DB	049H
	DB	042H
	DB	049H
	DB	04aH
	DB	049H
	DB	04aH
	DB	029H
	DB	04aH
	DB	049H
	DB	04aH
	DB	049H
	DB	04aH
	DB	029H
	DB	042H
	DB	049H
	DB	04aH
	DB	049H
	DB	04aH
	DB	049H
	DB	042H
	DB	029H
	DB	04aH
	DB	049H
	DB	04aH
	DB	049H
	DB	042H
	DB	048H
	DB	04aH
	DB	049H
	DB	04aH
	DB	049H
	DB	04aH
	DB	049H
	DB	04aH
	DB	048H
	DB	04aH
	DB	049H
	DB	04aH
	DB	049H
	DB	04aH
	DB	048H
	DB	04aH
	DB	049H
	DB	04aH
	DB	049H
	DB	042H
	DB	029H
	DB	04aH
	DB	048H
	DB	04aH
	DB	049H
	DB	042H
	DB	049H
	DB	04aH
	DB	029H
	DB	04aH
	DB	049H
	DB	04aH
	DB	049H
	DB	04aH
	DB	029H
	DB	04aH
	DB	048H
	DB	04aH
	DB	049H
	DB	04aH
	DB	029H
	DB	04aH
	DB	029H
	DB	04aH
	DB	049H
	DB	04aH
	DB	029H
	DB	04aH
	DB	049H
	DB	04aH
	DB	029H
	DB	04aH
	DB	049H
	DB	04aH
	DB	049H
	DB	04aH
	DB	028H
	DB	04aH
	DB	049H
	DB	04aH
	DB	049H
	DB	042H
	DB	029H
	DB	04aH
	DB	029H
	DB	04aH
	DB	049H
	DB	04aH
	DB	049H
	DB	04aH
	DB	048H
	DB	04aH
	DB	029H
	DB	042H
	DB	049H
	DB	04aH
	DB	049H
	DB	04aH
	DB	028H
	DB	04aH
	DB	049H
	DB	04aH
	DB	049H
	DB	04aH
	DB	049H
	DB	042H
	DB	049H
	DB	04aH
	DB	049H
	DB	04aH
	DB	049H
	DB	04aH
	DB	029H
	DB	042H
	DB	049H
	DB	04aH
	DB	049H
	DB	04aH
	DB	029H
	DB	04aH
	DB	049H
	DB	042H
	DB	048H
	DB	04aH
	DB	029H
	DB	04aH
	DB	049H
	DB	04aH
	DB	049H
	DB	04aH
	DB	049H
	DB	042H
	DB	049H
	DB	04aH
	DB	049H
	DB	04aH
	DB	049H
	DB	04aH
	DB	049H
	DB	04aH
	DB	048H
	DB	04aH
	DB	029H
	DB	04aH
	DB	049H
	DB	04aH
	DB	049H
	DB	042H
	DB	049H
	DB	04aH
	DB	029H
	DB	04aH
	DB	049H
	DB	04aH
	DB	049H
	DB	042H
	DB	049H
	DB	04aH
	DB	029H
	DB	04aH
	DB	049H
	DB	04aH
	DB	049H
	DB	04aH
	DB	029H
	DB	04aH
	DB	029H
	DB	04aH
	DB	049H
	DB	04aH
	DB	048H
	DB	04aH
	DB	049H
	DB	04aH
	DB	049H
	DB	04aH
	DB	049H
	DB	042H
	DB	049H
	DB	04aH
	DB	029H
	DB	04aH
	DB	049H
	DB	04aH
	DB	049H
	DB	042H
	DB	029H
	DB	04aH
	DB	049H
	DB	04aH
	DB	049H
	DB	04aH
	DB	029H
	DB	04aH
	DB	049H
	DB	04aH
	DB	029H
	DB	04aH
	DB	049H
	DB	04aH
	DB	048H
	DB	04aH
	DB	049H
	DB	04aH
	DB	029H
	DB	04aH
	DB	049H
	DB	042H
	DB	049H
	DB	04aH
	DB	049H
	DB	04aH
	DB	029H
	DB	04aH
	DB	049H
	DB	042H
	DB	029H
	DB	04aH
	DB	049H
	DB	04aH
	DB	049H
	DB	04aH
	DB	029H
	DB	04aH
	DB	049H
	DB	04aH
	DB	049H
	DB	04aH
	DB	049H
	DB	04aH
	DB	028H
	DB	04aH
	DB	049H
	DB	04aH
	DB	049H
	DB	042H
	DB	049H
	DB	04aH
	DB	048H
	DB	04aH
	DB	049H
	DB	04aH
	DB	029H
	DB	04aH
	DB	049H
	DB	04aH
	DB	049H
	DB	04aH
	DB	049H
	DB	04aH
	DB	049H
	DB	04aH
	DB	029H
	DB	04aH
	DB	049H
	DB	04aH
	DB	049H
	DB	042H
	DB	029H
	DB	04aH
	DB	049H
	DB	04aH
	DB	049H
	DB	04aH
	DB	049H
	DB	04aH
	DB	029H
	DB	04aH
	DB	049H
	DB	04aH
	DB	049H
	DB	042H
	DB	049H
	DB	04aH
	DB	049H
	DB	04aH
	DB	049H
	DB	04aH
	DB	049H
	DB	04aH
	DB	049H
	DB	04aH
	DB	0efH
	DB	07bH
	DB	0efH
	DB	07bH
	DB	049H
	DB	04aH
	DB	049H
	DB	04aH
	DB	029H
	DB	04aH
	DB	029H
	DB	04aH
	DB	049H
	DB	04aH
	DB	049H
	DB	04aH
	DB	029H
	DB	04aH
	DB	049H
	DB	04aH
	DB	049H
	DB	04aH
	DB	028H
	DB	04aH
	DB	049H
	DB	042H
	DB	049H
	DB	04aH
	DB	049H
	DB	04aH
	DB	029H
	DB	04aH
	DB	049H
	DB	042H
	DB	049H
	DB	04aH
	DB	049H
	DB	04aH
	DB	049H
	DB	04aH
	DB	029H
	DB	04aH
	DB	049H
	DB	04aH
	DB	049H
	DB	04aH
	DB	049H
	DB	04aH
	DB	049H
	DB	042H
	DB	049H
	DB	04aH
	DB	048H
	DB	04aH
	DB	029H
	DB	04aH
	DB	049H
	DB	04aH
	DB	049H
	DB	04aH
	DB	049H
	DB	04aH
	DB	049H
	DB	04aH
	DB	029H
	DB	04aH
	DB	049H
	DB	04aH
	DB	049H
	DB	04aH
	DB	029H
	DB	04aH
	DB	049H
	DB	042H
	DB	049H
	DB	04aH
	DB	029H
	DB	04aH
	DB	049H
	DB	04aH
	DB	029H
	DB	042H
	DB	049H
	DB	04aH
	DB	049H
	DB	04aH
	DB	029H
	DB	04aH
	DB	049H
	DB	04aH
	DB	049H
	DB	04aH
	DB	029H
	DB	04aH
	DB	049H
	DB	04aH
	DB	048H
	DB	04aH
	DB	049H
	DB	04aH
	DB	049H
	DB	04aH
	DB	049H
	DB	04aH
	DB	049H
	DB	04aH
	DB	049H
	DB	042H
	DB	049H
	DB	04aH
	DB	048H
	DB	04aH
	DB	049H
	DB	04aH
	DB	049H
	DB	042H
	DB	029H
	DB	04aH
	DB	049H
	DB	04aH
	DB	049H
	DB	042H
	DB	029H
	DB	04aH
	DB	049H
	DB	04aH
	DB	049H
	DB	04aH
	DB	049H
	DB	04aH
	DB	048H
	DB	04aH
	DB	049H
	DB	04aH
	DB	029H
	DB	04aH
	DB	049H
	DB	04aH
	DB	049H
	DB	04aH
	DB	049H
	DB	04aH
	DB	029H
	DB	04aH
	DB	049H
	DB	04aH
	DB	049H
	DB	042H
	DB	029H
	DB	04aH
	DB	049H
	DB	04aH
	DB	028H
	DB	04aH
	DB	049H
	DB	04aH
	DB	049H
	DB	04aH
	DB	028H
	DB	04aH
	DB	049H
	DB	04aH
	DB	049H
	DB	04aH
	DB	029H
	DB	04aH
	DB	049H
	DB	04aH
	DB	049H
	DB	04aH
	DB	049H
	DB	04aH
	DB	049H
	DB	04aH
	DB	029H
	DB	042H
	DB	048H
	DB	04aH
	DB	049H
	DB	04aH
	DB	029H
	DB	04aH
	DB	049H
	DB	04aH
	DB	049H
	DB	042H
	DB	049H
	DB	04aH
	DB	029H
	DB	04aH
	DB	049H
	DB	042H
	DB	049H
	DB	04aH
	DB	049H
	DB	04aH
	DB	029H
	DB	04aH
	DB	049H
	DB	04aH
	DB	049H
	DB	04aH
	DB	049H
	DB	04aH
	DB	028H
	DB	04aH
	DB	049H
	DB	04aH
	DB	049H
	DB	04aH
	DB	049H
	DB	04aH
	DB	048H
	DB	042H
	DB	049H
	DB	04aH
	DB	029H
	DB	04aH
	DB	049H
	DB	042H
	DB	029H
	DB	04aH
	DB	049H
	DB	04aH
	DB	049H
	DB	04aH
	DB	049H
	DB	04aH
	DB	029H
	DB	04aH
	DB	049H
	DB	04aH
	DB	049H
	DB	04aH
	DB	028H
	DB	04aH
	DB	049H
	DB	04aH
	DB	049H
	DB	04aH
	DB	029H
	DB	04aH
	DB	048H
	DB	042H
	DB	049H
	DB	04aH
	DB	029H
	DB	04aH
	DB	049H
	DB	042H
	DB	049H
	DB	04aH
	DB	049H
	DB	04aH
	DB	029H
	DB	04aH
	DB	049H
	DB	04aH
	DB	049H
	DB	04aH
	DB	049H
	DB	04aH
	DB	049H
	DB	04aH
	DB	028H
	DB	04aH
	DB	049H
	DB	04aH
	DB	049H
	DB	04aH
	DB	049H
	DB	04aH
	DB	048H
	DB	042H
	DB	049H
	DB	04aH
	DB	029H
	DB	04aH
	DB	049H
	DB	04aH
	DB	049H
	DB	04aH
	DB	029H
	DB	04aH
	DB	049H
	DB	04aH
	DB	049H
	DB	04aH
	DB	029H
	DB	042H
	DB	049H
	DB	04aH
	DB	049H
	DB	04aH
	DB	029H
	DB	042H
	DB	049H
	DB	04aH
	DB	048H
	DB	04aH
	DB	049H
	DB	04aH
	DB	029H
	DB	04aH
	DB	048H
	DB	04aH
	DB	049H
	DB	04aH
	DB	049H
	DB	04aH
	DB	049H
	DB	042H
	DB	049H
	DB	04aH
	DB	049H
	DB	04aH
	DB	028H
	DB	04aH
	DB	049H
	DB	04aH
	DB	029H
	DB	04aH
	DB	048H
	DB	04aH
	DB	029H
	DB	042H
	DB	029H
	DB	04aH
	DB	049H
	DB	04aH
	DB	0efH
	DB	07bH
	DB	0efH
	DB	07bH
	DB	049H
	DB	04aH
	DB	049H
	DB	04aH
	DB	049H
	DB	04aH
	DB	049H
	DB	04aH
	DB	048H
	DB	042H
	DB	029H
	DB	04aH
	DB	049H
	DB	04aH
	DB	049H
	DB	04aH
	DB	049H
	DB	04aH
	DB	029H
	DB	04aH
	DB	049H
	DB	04aH
	DB	049H
	DB	04aH
	DB	049H
	DB	04aH
	DB	049H
	DB	04aH
	DB	029H
	DB	04aH
	DB	049H
	DB	04aH
	DB	048H
	DB	04aH
	DB	049H
	DB	042H
	DB	049H
	DB	04aH
	DB	029H
	DB	04aH
	DB	048H
	DB	04aH
	DB	029H
	DB	04aH
	DB	049H
	DB	04aH
	DB	049H
	DB	04aH
	DB	029H
	DB	04aH
	DB	049H
	DB	04aH
	DB	049H
	DB	04aH
	DB	028H
	DB	04aH
	DB	049H
	DB	04aH
	DB	049H
	DB	04aH
	DB	028H
	DB	04aH
	DB	049H
	DB	04aH
	DB	049H
	DB	04aH
	DB	028H
	DB	04aH
	DB	049H
	DB	04aH
	DB	049H
	DB	04aH
	DB	029H
	DB	04aH
	DB	049H
	DB	04aH
	DB	049H
	DB	04aH
	DB	029H
	DB	04aH
	DB	048H
	DB	04aH
	DB	049H
	DB	04aH
	DB	049H
	DB	04aH
	DB	049H
	DB	04aH
	DB	029H
	DB	04aH
	DB	049H
	DB	04aH
	DB	049H
	DB	042H
	DB	029H
	DB	04aH
	DB	049H
	DB	04aH
	DB	028H
	DB	042H
	DB	049H
	DB	04aH
	DB	029H
	DB	04aH
	DB	049H
	DB	04aH
	DB	049H
	DB	04aH
	DB	049H
	DB	04aH
	DB	049H
	DB	04aH
	DB	048H
	DB	04aH
	DB	049H
	DB	04aH
	DB	049H
	DB	04aH
	DB	048H
	DB	04aH
	DB	029H
	DB	042H
	DB	049H
	DB	04aH
	DB	029H
	DB	04aH
	DB	049H
	DB	04aH
	DB	049H
	DB	042H
	DB	048H
	DB	04aH
	DB	029H
	DB	04aH
	DB	049H
	DB	04aH
	DB	049H
	DB	04aH
	DB	048H
	DB	04aH
	DB	049H
	DB	04aH
	DB	049H
	DB	04aH
	DB	049H
	DB	04aH
	DB	049H
	DB	04aH
	DB	029H
	DB	04aH
	DB	049H
	DB	04aH
	DB	049H
	DB	042H
	DB	049H
	DB	04aH
	DB	049H
	DB	04aH
	DB	049H
	DB	04aH
	DB	048H
	DB	042H
	DB	049H
	DB	04aH
	DB	029H
	DB	04aH
	DB	049H
	DB	04aH
	DB	049H
	DB	04aH
	DB	049H
	DB	04aH
	DB	049H
	DB	04aH
	DB	029H
	DB	04aH
	DB	048H
	DB	04aH
	DB	049H
	DB	04aH
	DB	029H
	DB	04aH
	DB	048H
	DB	04aH
	DB	049H
	DB	04aH
	DB	049H
	DB	04aH
	DB	048H
	DB	04aH
	DB	029H
	DB	04aH
	DB	049H
	DB	04aH
	DB	048H
	DB	042H
	DB	049H
	DB	04aH
	DB	029H
	DB	04aH
	DB	049H
	DB	04aH
	DB	049H
	DB	04aH
	DB	029H
	DB	04aH
	DB	049H
	DB	04aH
	DB	049H
	DB	04aH
	DB	049H
	DB	04aH
	DB	049H
	DB	04aH
	DB	049H
	DB	04aH
	DB	029H
	DB	04aH
	DB	048H
	DB	04aH
	DB	049H
	DB	04aH
	DB	029H
	DB	042H
	DB	048H
	DB	04aH
	DB	049H
	DB	04aH
	DB	049H
	DB	04aH
	DB	049H
	DB	04aH
	DB	049H
	DB	042H
	DB	049H
	DB	04aH
	DB	049H
	DB	04aH
	DB	049H
	DB	04aH
	DB	049H
	DB	04aH
	DB	049H
	DB	04aH
	DB	029H
	DB	04aH
	DB	049H
	DB	04aH
	DB	048H
	DB	04aH
	DB	049H
	DB	04aH
	DB	029H
	DB	042H
	DB	048H
	DB	04aH
	DB	049H
	DB	04aH
	DB	049H
	DB	04aH
	DB	049H
	DB	04aH
	DB	029H
	DB	042H
	DB	049H
	DB	04aH
	DB	049H
	DB	04aH
	DB	029H
	DB	04aH
	DB	049H
	DB	04aH
	DB	049H
	DB	04aH
	DB	049H
	DB	042H
	DB	049H
	DB	04aH
	DB	028H
	DB	04aH
	DB	049H
	DB	04aH
	DB	049H
	DB	04aH
	DB	029H
	DB	04aH
	DB	048H
	DB	04aH
	DB	049H
	DB	04aH
	DB	049H
	DB	04aH
	DB	029H
	DB	04aH
	DB	049H
	DB	04aH
	DB	049H
	DB	042H
	DB	049H
	DB	04aH
	DB	029H
	DB	04aH
	DB	049H
	DB	04aH
	DB	028H
	DB	04aH
	DB	049H
	DB	04aH
	DB	049H
	DB	04aH
	DB	029H
	DB	04aH
	DB	049H
	DB	04aH
	DB	049H
	DB	04aH
	DB	049H
	DB	04aH
	DB	049H
	DB	04aH
	DB	049H
	DB	04aH
	DB	049H
	DB	04aH
	DB	049H
	DB	04aH
	DB	0efH
	DB	07bH
	DB	0efH
	DB	07bH
	DB	049H
	DB	04aH
	DB	029H
	DB	04aH
	DB	049H
	DB	04aH
	DB	049H
	DB	04aH
	DB	049H
	DB	04aH
	DB	049H
	DB	04aH
	DB	048H
	DB	04aH
	DB	049H
	DB	042H
	DB	049H
	DB	04aH
	DB	049H
	DB	04aH
	DB	029H
	DB	04aH
	DB	048H
	DB	042H
	DB	049H
	DB	04aH
	DB	029H
	DB	04aH
	DB	048H
	DB	04aH
	DB	049H
	DB	04aH
	DB	029H
	DB	04aH
	DB	049H
	DB	04aH
	DB	049H
	DB	04aH
	DB	049H
	DB	04aH
	DB	049H
	DB	042H
	DB	029H
	DB	04aH
	DB	049H
	DB	04aH
	DB	048H
	DB	04aH
	DB	029H
	DB	042H
	DB	049H
	DB	04aH
	DB	049H
	DB	04aH
	DB	029H
	DB	042H
	DB	049H
	DB	04aH
	DB	049H
	DB	04aH
	DB	049H
	DB	042H
	DB	049H
	DB	04aH
	DB	049H
	DB	04aH
	DB	049H
	DB	042H
	DB	029H
	DB	04aH
	DB	048H
	DB	04aH
	DB	049H
	DB	04aH
	DB	049H
	DB	04aH
	DB	048H
	DB	04aH
	DB	049H
	DB	04aH
	DB	029H
	DB	042H
	DB	049H
	DB	04aH
	DB	049H
	DB	04aH
	DB	048H
	DB	042H
	DB	049H
	DB	04aH
	DB	049H
	DB	04aH
	DB	029H
	DB	04aH
	DB	049H
	DB	04aH
	DB	049H
	DB	04aH
	DB	049H
	DB	04aH
	DB	029H
	DB	04aH
	DB	049H
	DB	04aH
	DB	049H
	DB	04aH
	DB	029H
	DB	04aH
	DB	029H
	DB	042H
	DB	049H
	DB	04aH
	DB	029H
	DB	04aH
	DB	049H
	DB	04aH
	DB	049H
	DB	04aH
	DB	029H
	DB	04aH
	DB	049H
	DB	04aH
	DB	049H
	DB	04aH
	DB	049H
	DB	04aH
	DB	029H
	DB	04aH
	DB	049H
	DB	04aH
	DB	049H
	DB	04aH
	DB	049H
	DB	042H
	DB	029H
	DB	04aH
	DB	049H
	DB	04aH
	DB	029H
	DB	042H
	DB	049H
	DB	04aH
	DB	029H
	DB	04aH
	DB	048H
	DB	04aH
	DB	049H
	DB	042H
	DB	049H
	DB	04aH
	DB	029H
	DB	04aH
	DB	049H
	DB	04aH
	DB	049H
	DB	04aH
	DB	029H
	DB	04aH
	DB	029H
	DB	04aH
	DB	049H
	DB	04aH
	DB	049H
	DB	04aH
	DB	028H
	DB	04aH
	DB	049H
	DB	042H
	DB	049H
	DB	04aH
	DB	028H
	DB	04aH
	DB	049H
	DB	04aH
	DB	049H
	DB	04aH
	DB	049H
	DB	042H
	DB	049H
	DB	04aH
	DB	029H
	DB	04aH
	DB	049H
	DB	04aH
	DB	049H
	DB	04aH
	DB	029H
	DB	04aH
	DB	049H
	DB	04aH
	DB	049H
	DB	04aH
	DB	049H
	DB	04aH
	DB	049H
	DB	04aH
	DB	029H
	DB	04aH
	DB	049H
	DB	04aH
	DB	049H
	DB	042H
	DB	048H
	DB	04aH
	DB	029H
	DB	04aH
	DB	049H
	DB	042H
	DB	029H
	DB	04aH
	DB	029H
	DB	04aH
	DB	048H
	DB	04aH
	DB	049H
	DB	04aH
	DB	049H
	DB	042H
	DB	049H
	DB	04aH
	DB	029H
	DB	04aH
	DB	049H
	DB	04aH
	DB	049H
	DB	04aH
	DB	029H
	DB	04aH
	DB	049H
	DB	042H
	DB	029H
	DB	04aH
	DB	048H
	DB	04aH
	DB	029H
	DB	04aH
	DB	049H
	DB	04aH
	DB	029H
	DB	04aH
	DB	049H
	DB	04aH
	DB	048H
	DB	04aH
	DB	049H
	DB	04aH
	DB	029H
	DB	042H
	DB	049H
	DB	04aH
	DB	049H
	DB	04aH
	DB	049H
	DB	04aH
	DB	029H
	DB	04aH
	DB	049H
	DB	04aH
	DB	049H
	DB	042H
	DB	029H
	DB	04aH
	DB	048H
	DB	04aH
	DB	049H
	DB	04aH
	DB	029H
	DB	04aH
	DB	049H
	DB	04aH
	DB	049H
	DB	04aH
	DB	028H
	DB	04aH
	DB	049H
	DB	04aH
	DB	049H
	DB	04aH
	DB	049H
	DB	04aH
	DB	049H
	DB	042H
	DB	049H
	DB	04aH
	DB	049H
	DB	04aH
	DB	049H
	DB	04aH
	DB	049H
	DB	04aH
	DB	049H
	DB	04aH
	DB	048H
	DB	04aH
	DB	029H
	DB	04aH
	DB	049H
	DB	04aH
	DB	049H
	DB	04aH
	DB	049H
	DB	04aH
	DB	049H
	DB	042H
	DB	049H
	DB	04aH
	DB	029H
	DB	04aH
	DB	049H
	DB	04aH
	DB	048H
	DB	042H
	DB	049H
	DB	04aH
	DB	049H
	DB	04aH
	DB	029H
	DB	042H
	DB	049H
	DB	04aH
	DB	049H
	DB	04aH
	DB	049H
	DB	04aH
	DB	049H
	DB	04aH
	DB	0cfH
	DB	07bH
	DB	0efH
	DB	07bH
	DB	049H
	DB	04aH
	DB	049H
	DB	04aH
	DB	029H
	DB	04aH
	DB	049H
	DB	04aH
	DB	029H
	DB	04aH
	DB	049H
	DB	04aH
	DB	029H
	DB	04aH
	DB	029H
	DB	04aH
	DB	049H
	DB	04aH
	DB	048H
	DB	04aH
	DB	049H
	DB	04aH
	DB	029H
	DB	04aH
	DB	049H
	DB	04aH
	DB	049H
	DB	04aH
	DB	049H
	DB	042H
	DB	049H
	DB	04aH
	DB	029H
	DB	04aH
	DB	049H
	DB	04aH
	DB	049H
	DB	04aH
	DB	028H
	DB	04aH
	DB	049H
	DB	04aH
	DB	049H
	DB	04aH
	DB	049H
	DB	04aH
	DB	049H
	DB	04aH
	DB	049H
	DB	04aH
	DB	049H
	DB	04aH
	DB	049H
	DB	04aH
	DB	049H
	DB	04aH
	DB	049H
	DB	04aH
	DB	029H
	DB	04aH
	DB	049H
	DB	04aH
	DB	029H
	DB	04aH
	DB	049H
	DB	04aH
	DB	049H
	DB	04aH
	DB	049H
	DB	04aH
	DB	049H
	DB	04aH
	DB	029H
	DB	042H
	DB	049H
	DB	04aH
	DB	049H
	DB	04aH
	DB	049H
	DB	04aH
	DB	049H
	DB	04aH
	DB	029H
	DB	04aH
	DB	049H
	DB	04aH
	DB	029H
	DB	04aH
	DB	049H
	DB	04aH
	DB	048H
	DB	04aH
	DB	049H
	DB	04aH
	DB	049H
	DB	04aH
	DB	048H
	DB	04aH
	DB	049H
	DB	04aH
	DB	049H
	DB	04aH
	DB	048H
	DB	042H
	DB	049H
	DB	04aH
	DB	049H
	DB	04aH
	DB	048H
	DB	04aH
	DB	049H
	DB	04aH
	DB	029H
	DB	04aH
	DB	049H
	DB	042H
	DB	049H
	DB	04aH
	DB	049H
	DB	04aH
	DB	049H
	DB	04aH
	DB	048H
	DB	04aH
	DB	049H
	DB	042H
	DB	049H
	DB	04aH
	DB	028H
	DB	04aH
	DB	049H
	DB	04aH
	DB	049H
	DB	04aH
	DB	049H
	DB	04aH
	DB	048H
	DB	04aH
	DB	049H
	DB	04aH
	DB	029H
	DB	04aH
	DB	049H
	DB	04aH
	DB	049H
	DB	04aH
	DB	029H
	DB	04aH
	DB	048H
	DB	04aH
	DB	049H
	DB	04aH
	DB	029H
	DB	04aH
	DB	048H
	DB	04aH
	DB	049H
	DB	042H
	DB	049H
	DB	04aH
	DB	049H
	DB	04aH
	DB	049H
	DB	04aH
	DB	049H
	DB	04aH
	DB	049H
	DB	04aH
	DB	029H
	DB	04aH
	DB	049H
	DB	04aH
	DB	049H
	DB	04aH
	DB	029H
	DB	04aH
	DB	049H
	DB	04aH
	DB	049H
	DB	04aH
	DB	049H
	DB	042H
	DB	049H
	DB	04aH
	DB	029H
	DB	04aH
	DB	049H
	DB	042H
	DB	049H
	DB	04aH
	DB	029H
	DB	04aH
	DB	049H
	DB	042H
	DB	049H
	DB	04aH
	DB	048H
	DB	04aH
	DB	049H
	DB	04aH
	DB	049H
	DB	04aH
	DB	049H
	DB	04aH
	DB	049H
	DB	04aH
	DB	049H
	DB	04aH
	DB	048H
	DB	04aH
	DB	049H
	DB	04aH
	DB	049H
	DB	042H
	DB	029H
	DB	04aH
	DB	049H
	DB	04aH
	DB	049H
	DB	04aH
	DB	049H
	DB	04aH
	DB	049H
	DB	04aH
	DB	049H
	DB	04aH
	DB	048H
	DB	04aH
	DB	049H
	DB	04aH
	DB	049H
	DB	04aH
	DB	029H
	DB	04aH
	DB	049H
	DB	04aH
	DB	049H
	DB	04aH
	DB	048H
	DB	042H
	DB	029H
	DB	04aH
	DB	049H
	DB	04aH
	DB	049H
	DB	04aH
	DB	049H
	DB	04aH
	DB	029H
	DB	04aH
	DB	049H
	DB	04aH
	DB	049H
	DB	04aH
	DB	049H
	DB	04aH
	DB	028H
	DB	04aH
	DB	049H
	DB	04aH
	DB	049H
	DB	04aH
	DB	049H
	DB	04aH
	DB	049H
	DB	04aH
	DB	049H
	DB	04aH
	DB	048H
	DB	042H
	DB	049H
	DB	04aH
	DB	029H
	DB	04aH
	DB	049H
	DB	04aH
	DB	049H
	DB	04aH
	DB	029H
	DB	04aH
	DB	029H
	DB	04aH
	DB	048H
	DB	04aH
	DB	049H
	DB	04aH
	DB	029H
	DB	042H
	DB	029H
	DB	04aH
	DB	049H
	DB	04aH
	DB	049H
	DB	042H
	DB	049H
	DB	04aH
	DB	029H
	DB	04aH
	DB	048H
	DB	04aH
	DB	049H
	DB	04aH
	DB	029H
	DB	04aH
	DB	049H
	DB	04aH
	DB	049H
	DB	04aH
	DB	029H
	DB	04aH
	DB	049H
	DB	04aH
	DB	049H
	DB	04aH
	DB	029H
	DB	04aH
	DB	048H
	DB	04aH
	DB	029H
	DB	04aH
	DB	049H
	DB	04aH
	DB	029H
	DB	04aH
	DB	049H
	DB	04aH
	DB	0efH
	DB	07bH
	DB	0efH
	DB	07bH
	DB	049H
	DB	04aH
	DB	049H
	DB	04aH
	DB	049H
	DB	04aH
	DB	049H
	DB	04aH
	DB	049H
	DB	042H
	DB	049H
	DB	04aH
	DB	049H
	DB	04aH
	DB	049H
	DB	04aH
	DB	029H
	DB	042H
	DB	049H
	DB	04aH
	DB	049H
	DB	04aH
	DB	049H
	DB	04aH
	DB	029H
	DB	04aH
	DB	049H
	DB	04aH
	DB	049H
	DB	04aH
	DB	029H
	DB	04aH
	DB	048H
	DB	042H
	DB	049H
	DB	04aH
	DB	029H
	DB	04aH
	DB	049H
	DB	042H
	DB	049H
	DB	04aH
	DB	029H
	DB	04aH
	DB	049H
	DB	04aH
	DB	029H
	DB	042H
	DB	048H
	DB	04aH
	DB	049H
	DB	04aH
	DB	029H
	DB	04aH
	DB	048H
	DB	04aH
	DB	049H
	DB	04aH
	DB	049H
	DB	042H
	DB	028H
	DB	04aH
	DB	049H
	DB	04aH
	DB	049H
	DB	04aH
	DB	028H
	DB	04aH
	DB	049H
	DB	04aH
	DB	049H
	DB	04aH
	DB	029H
	DB	04aH
	DB	049H
	DB	04aH
	DB	029H
	DB	042H
	DB	049H
	DB	04aH
	DB	048H
	DB	04aH
	DB	049H
	DB	04aH
	DB	049H
	DB	04aH
	DB	029H
	DB	04aH
	DB	049H
	DB	04aH
	DB	049H
	DB	042H
	DB	029H
	DB	04aH
	DB	029H
	DB	04aH
	DB	049H
	DB	042H
	DB	029H
	DB	04aH
	DB	049H
	DB	04aH
	DB	029H
	DB	04aH
	DB	049H
	DB	04aH
	DB	049H
	DB	04aH
	DB	049H
	DB	04aH
	DB	049H
	DB	04aH
	DB	049H
	DB	04aH
	DB	028H
	DB	04aH
	DB	049H
	DB	04aH
	DB	049H
	DB	042H
	DB	029H
	DB	04aH
	DB	029H
	DB	04aH
	DB	049H
	DB	04aH
	DB	049H
	DB	04aH
	DB	049H
	DB	04aH
	DB	029H
	DB	04aH
	DB	049H
	DB	04aH
	DB	049H
	DB	04aH
	DB	029H
	DB	04aH
	DB	049H
	DB	04aH
	DB	049H
	DB	042H
	DB	049H
	DB	04aH
	DB	049H
	DB	04aH
	DB	049H
	DB	04aH
	DB	049H
	DB	04aH
	DB	049H
	DB	042H
	DB	049H
	DB	04aH
	DB	049H
	DB	04aH
	DB	049H
	DB	04aH
	DB	028H
	DB	04aH
	DB	049H
	DB	04aH
	DB	029H
	DB	042H
	DB	049H
	DB	04aH
	DB	049H
	DB	04aH
	DB	049H
	DB	04aH
	DB	049H
	DB	042H
	DB	049H
	DB	04aH
	DB	029H
	DB	04aH
	DB	048H
	DB	04aH
	DB	049H
	DB	04aH
	DB	029H
	DB	04aH
	DB	048H
	DB	04aH
	DB	049H
	DB	04aH
	DB	049H
	DB	04aH
	DB	048H
	DB	04aH
	DB	029H
	DB	04aH
	DB	049H
	DB	04aH
	DB	029H
	DB	04aH
	DB	049H
	DB	04aH
	DB	029H
	DB	04aH
	DB	029H
	DB	04aH
	DB	049H
	DB	04aH
	DB	049H
	DB	04aH
	DB	029H
	DB	04aH
	DB	049H
	DB	04aH
	DB	049H
	DB	04aH
	DB	049H
	DB	04aH
	DB	029H
	DB	04aH
	DB	049H
	DB	04aH
	DB	048H
	DB	04aH
	DB	029H
	DB	042H
	DB	049H
	DB	04aH
	DB	029H
	DB	04aH
	DB	049H
	DB	04aH
	DB	049H
	DB	04aH
	DB	049H
	DB	04aH
	DB	049H
	DB	042H
	DB	049H
	DB	04aH
	DB	049H
	DB	04aH
	DB	049H
	DB	04aH
	DB	049H
	DB	04aH
	DB	029H
	DB	042H
	DB	049H
	DB	04aH
	DB	049H
	DB	04aH
	DB	048H
	DB	04aH
	DB	029H
	DB	042H
	DB	049H
	DB	04aH
	DB	049H
	DB	04aH
	DB	049H
	DB	04aH
	DB	029H
	DB	04aH
	DB	049H
	DB	04aH
	DB	049H
	DB	042H
	DB	029H
	DB	04aH
	DB	049H
	DB	04aH
	DB	049H
	DB	04aH
	DB	029H
	DB	04aH
	DB	049H
	DB	042H
	DB	049H
	DB	04aH
	DB	049H
	DB	04aH
	DB	049H
	DB	042H
	DB	049H
	DB	04aH
	DB	029H
	DB	04aH
	DB	049H
	DB	04aH
	DB	048H
	DB	04aH
	DB	049H
	DB	04aH
	DB	029H
	DB	04aH
	DB	049H
	DB	04aH
	DB	049H
	DB	04aH
	DB	049H
	DB	04aH
	DB	029H
	DB	042H
	DB	049H
	DB	04aH
	DB	048H
	DB	04aH
	DB	049H
	DB	04aH
	DB	049H
	DB	042H
	DB	048H
	DB	04aH
	DB	029H
	DB	04aH
	DB	049H
	DB	04aH
	DB	049H
	DB	04aH
	DB	049H
	DB	04aH
	DB	049H
	DB	04aH
	DB	049H
	DB	04aH
	DB	049H
	DB	04aH
	DB	049H
	DB	04aH
	DB	0efH
	DB	07bH
	DB	0cfH
	DB	07bH
	DB	049H
	DB	04aH
	DB	049H
	DB	04aH
	DB	029H
	DB	04aH
	DB	049H
	DB	04aH
	DB	048H
	DB	04aH
	DB	029H
	DB	04aH
	DB	049H
	DB	04aH
	DB	048H
	DB	04aH
	DB	049H
	DB	04aH
	DB	029H
	DB	04aH
	DB	049H
	DB	042H
	DB	049H
	DB	04aH
	DB	048H
	DB	04aH
	DB	029H
	DB	042H
	DB	049H
	DB	04aH
	DB	049H
	DB	04aH
	DB	049H
	DB	04aH
	DB	049H
	DB	04aH
	DB	049H
	DB	04aH
	DB	049H
	DB	04aH
	DB	049H
	DB	04aH
	DB	048H
	DB	04aH
	DB	049H
	DB	04aH
	DB	029H
	DB	04aH
	DB	049H
	DB	04aH
	DB	049H
	DB	04aH
	DB	029H
	DB	042H
	DB	049H
	DB	04aH
	DB	049H
	DB	04aH
	DB	049H
	DB	04aH
	DB	049H
	DB	04aH
	DB	049H
	DB	04aH
	DB	049H
	DB	042H
	DB	029H
	DB	04aH
	DB	049H
	DB	04aH
	DB	049H
	DB	042H
	DB	048H
	DB	04aH
	DB	049H
	DB	04aH
	DB	049H
	DB	04aH
	DB	029H
	DB	04aH
	DB	049H
	DB	04aH
	DB	049H
	DB	042H
	DB	029H
	DB	04aH
	DB	048H
	DB	04aH
	DB	049H
	DB	04aH
	DB	049H
	DB	04aH
	DB	049H
	DB	04aH
	DB	049H
	DB	04aH
	DB	049H
	DB	04aH
	DB	049H
	DB	04aH
	DB	029H
	DB	04aH
	DB	049H
	DB	04aH
	DB	029H
	DB	04aH
	DB	029H
	DB	042H
	DB	049H
	DB	04aH
	DB	049H
	DB	04aH
	DB	029H
	DB	042H
	DB	049H
	DB	04aH
	DB	049H
	DB	04aH
	DB	048H
	DB	04aH
	DB	049H
	DB	04aH
	DB	049H
	DB	04aH
	DB	029H
	DB	04aH
	DB	049H
	DB	04aH
	DB	049H
	DB	042H
	DB	049H
	DB	04aH
	DB	028H
	DB	04aH
	DB	049H
	DB	042H
	DB	049H
	DB	04aH
	DB	029H
	DB	04aH
	DB	048H
	DB	04aH
	DB	049H
	DB	04aH
	DB	029H
	DB	042H
	DB	049H
	DB	04aH
	DB	029H
	DB	04aH
	DB	049H
	DB	04aH
	DB	048H
	DB	04aH
	DB	029H
	DB	04aH
	DB	049H
	DB	04aH
	DB	049H
	DB	04aH
	DB	029H
	DB	04aH
	DB	049H
	DB	04aH
	DB	048H
	DB	04aH
	DB	029H
	DB	04aH
	DB	049H
	DB	04aH
	DB	048H
	DB	04aH
	DB	029H
	DB	04aH
	DB	049H
	DB	042H
	DB	049H
	DB	04aH
	DB	029H
	DB	04aH
	DB	049H
	DB	04aH
	DB	049H
	DB	04aH
	DB	029H
	DB	04aH
	DB	049H
	DB	04aH
	DB	049H
	DB	04aH
	DB	049H
	DB	04aH
	DB	048H
	DB	04aH
	DB	049H
	DB	04aH
	DB	049H
	DB	042H
	DB	049H
	DB	04aH
	DB	048H
	DB	04aH
	DB	049H
	DB	042H
	DB	029H
	DB	04aH
	DB	049H
	DB	04aH
	DB	049H
	DB	042H
	DB	029H
	DB	04aH
	DB	048H
	DB	04aH
	DB	049H
	DB	04aH
	DB	049H
	DB	04aH
	DB	029H
	DB	04aH
	DB	049H
	DB	04aH
	DB	048H
	DB	04aH
	DB	049H
	DB	042H
	DB	029H
	DB	04aH
	DB	029H
	DB	04aH
	DB	048H
	DB	04aH
	DB	049H
	DB	04aH
	DB	029H
	DB	04aH
	DB	029H
	DB	04aH
	DB	049H
	DB	04aH
	DB	049H
	DB	04aH
	DB	048H
	DB	04aH
	DB	029H
	DB	04aH
	DB	049H
	DB	04aH
	DB	049H
	DB	04aH
	DB	049H
	DB	04aH
	DB	028H
	DB	04aH
	DB	049H
	DB	042H
	DB	049H
	DB	04aH
	DB	049H
	DB	04aH
	DB	028H
	DB	04aH
	DB	049H
	DB	04aH
	DB	049H
	DB	04aH
	DB	029H
	DB	04aH
	DB	049H
	DB	04aH
	DB	049H
	DB	04aH
	DB	048H
	DB	04aH
	DB	029H
	DB	04aH
	DB	049H
	DB	04aH
	DB	048H
	DB	04aH
	DB	049H
	DB	04aH
	DB	049H
	DB	04aH
	DB	049H
	DB	04aH
	DB	049H
	DB	04aH
	DB	049H
	DB	04aH
	DB	049H
	DB	04aH
	DB	028H
	DB	04aH
	DB	049H
	DB	04aH
	DB	049H
	DB	04aH
	DB	049H
	DB	04aH
	DB	029H
	DB	04aH
	DB	049H
	DB	04aH
	DB	049H
	DB	04aH
	DB	029H
	DB	04aH
	DB	049H
	DB	04aH
	DB	049H
	DB	042H
	DB	049H
	DB	04aH
	DB	049H
	DB	04aH
	DB	029H
	DB	042H
	DB	048H
	DB	04aH
	DB	049H
	DB	04aH
	DB	029H
	DB	04aH
	DB	049H
	DB	04aH
	DB	0efH
	DB	07bH
	DB	0efH
	DB	07bH
	DB	049H
	DB	04aH
	DB	049H
	DB	04aH
	DB	029H
	DB	04aH
	DB	049H
	DB	04aH
	DB	049H
	DB	04aH
	DB	029H
	DB	04aH
	DB	049H
	DB	042H
	DB	049H
	DB	04aH
	DB	049H
	DB	04aH
	DB	049H
	DB	04aH
	DB	029H
	DB	04aH
	DB	049H
	DB	04aH
	DB	049H
	DB	04aH
	DB	049H
	DB	04aH
	DB	049H
	DB	04aH
	DB	028H
	DB	04aH
	DB	049H
	DB	04aH
	DB	049H
	DB	04aH
	DB	028H
	DB	04aH
	DB	049H
	DB	04aH
	DB	029H
	DB	04aH
	DB	049H
	DB	042H
	DB	049H
	DB	04aH
	DB	049H
	DB	04aH
	DB	049H
	DB	04aH
	DB	049H
	DB	04aH
	DB	049H
	DB	04aH
	DB	029H
	DB	04aH
	DB	048H
	DB	04aH
	DB	029H
	DB	04aH
	DB	049H
	DB	04aH
	DB	049H
	DB	04aH
	DB	029H
	DB	04aH
	DB	049H
	DB	04aH
	DB	049H
	DB	04aH
	DB	029H
	DB	04aH
	DB	049H
	DB	04aH
	DB	049H
	DB	04aH
	DB	049H
	DB	04aH
	DB	028H
	DB	04aH
	DB	049H
	DB	04aH
	DB	049H
	DB	04aH
	DB	049H
	DB	04aH
	DB	049H
	DB	042H
	DB	029H
	DB	04aH
	DB	049H
	DB	04aH
	DB	048H
	DB	04aH
	DB	029H
	DB	04aH
	DB	049H
	DB	04aH
	DB	048H
	DB	04aH
	DB	049H
	DB	042H
	DB	049H
	DB	04aH
	DB	048H
	DB	04aH
	DB	049H
	DB	04aH
	DB	049H
	DB	04aH
	DB	028H
	DB	04aH
	DB	049H
	DB	04aH
	DB	049H
	DB	04aH
	DB	029H
	DB	04aH
	DB	049H
	DB	04aH
	DB	049H
	DB	04aH
	DB	049H
	DB	042H
	DB	048H
	DB	04aH
	DB	029H
	DB	04aH
	DB	049H
	DB	04aH
	DB	049H
	DB	04aH
	DB	049H
	DB	04aH
	DB	049H
	DB	04aH
	DB	049H
	DB	04aH
	DB	049H
	DB	04aH
	DB	049H
	DB	04aH
	DB	029H
	DB	04aH
	DB	048H
	DB	04aH
	DB	049H
	DB	04aH
	DB	029H
	DB	04aH
	DB	049H
	DB	04aH
	DB	049H
	DB	04aH
	DB	029H
	DB	042H
	DB	049H
	DB	04aH
	DB	049H
	DB	04aH
	DB	049H
	DB	042H
	DB	049H
	DB	04aH
	DB	049H
	DB	04aH
	DB	029H
	DB	042H
	DB	049H
	DB	04aH
	DB	049H
	DB	04aH
	DB	049H
	DB	04aH
	DB	049H
	DB	04aH
	DB	049H
	DB	04aH
	DB	049H
	DB	04aH
	DB	049H
	DB	042H
	DB	049H
	DB	04aH
	DB	029H
	DB	04aH
	DB	049H
	DB	042H
	DB	049H
	DB	04aH
	DB	029H
	DB	04aH
	DB	049H
	DB	042H
	DB	049H
	DB	04aH
	DB	029H
	DB	04aH
	DB	049H
	DB	04aH
	DB	049H
	DB	04aH
	DB	049H
	DB	04aH
	DB	048H
	DB	04aH
	DB	049H
	DB	04aH
	DB	049H
	DB	04aH
	DB	029H
	DB	04aH
	DB	049H
	DB	04aH
	DB	049H
	DB	042H
	DB	049H
	DB	04aH
	DB	049H
	DB	04aH
	DB	049H
	DB	04aH
	DB	049H
	DB	04aH
	DB	049H
	DB	04aH
	DB	049H
	DB	04aH
	DB	049H
	DB	04aH
	DB	049H
	DB	042H
	DB	029H
	DB	04aH
	DB	048H
	DB	04aH
	DB	049H
	DB	04aH
	DB	029H
	DB	042H
	DB	049H
	DB	04aH
	DB	049H
	DB	04aH
	DB	049H
	DB	04aH
	DB	029H
	DB	042H
	DB	049H
	DB	04aH
	DB	049H
	DB	04aH
	DB	049H
	DB	04aH
	DB	029H
	DB	04aH
	DB	049H
	DB	04aH
	DB	049H
	DB	04aH
	DB	049H
	DB	042H
	DB	049H
	DB	04aH
	DB	048H
	DB	04aH
	DB	029H
	DB	04aH
	DB	049H
	DB	042H
	DB	049H
	DB	04aH
	DB	029H
	DB	04aH
	DB	049H
	DB	04aH
	DB	049H
	DB	04aH
	DB	029H
	DB	04aH
	DB	029H
	DB	04aH
	DB	049H
	DB	042H
	DB	029H
	DB	04aH
	DB	029H
	DB	04aH
	DB	049H
	DB	042H
	DB	049H
	DB	04aH
	DB	049H
	DB	04aH
	DB	029H
	DB	042H
	DB	048H
	DB	04aH
	DB	049H
	DB	04aH
	DB	049H
	DB	04aH
	DB	029H
	DB	042H
	DB	049H
	DB	04aH
	DB	049H
	DB	04aH
	DB	029H
	DB	04aH
	DB	049H
	DB	04aH
	DB	048H
	DB	04aH
	DB	029H
	DB	04aH
	DB	049H
	DB	04aH
	DB	049H
	DB	04aH
	DB	029H
	DB	042H
	DB	049H
	DB	04aH
	DB	049H
	DB	04aH
	DB	0efH
	DB	07bH
	DB	0efH
	DB	07bH
	DB	049H
	DB	04aH
	DB	049H
	DB	04aH
	DB	049H
	DB	04aH
	DB	049H
	DB	04aH
	DB	049H
	DB	04aH
	DB	049H
	DB	04aH
	DB	029H
	DB	04aH
	DB	049H
	DB	04aH
	DB	048H
	DB	04aH
	DB	029H
	DB	04aH
	DB	049H
	DB	04aH
	DB	048H
	DB	04aH
	DB	029H
	DB	04aH
	DB	049H
	DB	04aH
	DB	049H
	DB	04aH
	DB	029H
	DB	042H
	DB	049H
	DB	04aH
	DB	049H
	DB	04aH
	DB	029H
	DB	042H
	DB	049H
	DB	04aH
	DB	049H
	DB	04aH
	DB	029H
	DB	04aH
	DB	049H
	DB	04aH
	DB	028H
	DB	04aH
	DB	049H
	DB	042H
	DB	049H
	DB	04aH
	DB	028H
	DB	04aH
	DB	049H
	DB	04aH
	DB	049H
	DB	042H
	DB	029H
	DB	04aH
	DB	049H
	DB	04aH
	DB	048H
	DB	042H
	DB	049H
	DB	04aH
	DB	049H
	DB	04aH
	DB	048H
	DB	04aH
	DB	029H
	DB	04aH
	DB	049H
	DB	04aH
	DB	049H
	DB	042H
	DB	029H
	DB	04aH
	DB	049H
	DB	04aH
	DB	049H
	DB	042H
	DB	029H
	DB	04aH
	DB	049H
	DB	04aH
	DB	049H
	DB	04aH
	DB	029H
	DB	04aH
	DB	049H
	DB	04aH
	DB	049H
	DB	042H
	DB	029H
	DB	04aH
	DB	049H
	DB	04aH
	DB	049H
	DB	04aH
	DB	029H
	DB	04aH
	DB	049H
	DB	04aH
	DB	049H
	DB	04aH
	DB	049H
	DB	04aH
	DB	049H
	DB	04aH
	DB	049H
	DB	04aH
	DB	049H
	DB	04aH
	DB	049H
	DB	04aH
	DB	029H
	DB	04aH
	DB	049H
	DB	04aH
	DB	029H
	DB	04aH
	DB	049H
	DB	04aH
	DB	049H
	DB	04aH
	DB	049H
	DB	04aH
	DB	028H
	DB	04aH
	DB	049H
	DB	04aH
	DB	049H
	DB	04aH
	DB	029H
	DB	04aH
	DB	048H
	DB	042H
	DB	049H
	DB	04aH
	DB	029H
	DB	04aH
	DB	049H
	DB	04aH
	DB	049H
	DB	04aH
	DB	049H
	DB	04aH
	DB	049H
	DB	042H
	DB	048H
	DB	04aH
	DB	049H
	DB	04aH
	DB	049H
	DB	04aH
	DB	029H
	DB	04aH
	DB	048H
	DB	04aH
	DB	049H
	DB	04aH
	DB	029H
	DB	04aH
	DB	049H
	DB	04aH
	DB	049H
	DB	04aH
	DB	029H
	DB	04aH
	DB	049H
	DB	04aH
	DB	048H
	DB	04aH
	DB	029H
	DB	04aH
	DB	049H
	DB	04aH
	DB	028H
	DB	04aH
	DB	049H
	DB	04aH
	DB	049H
	DB	04aH
	DB	048H
	DB	04aH
	DB	049H
	DB	04aH
	DB	029H
	DB	04aH
	DB	048H
	DB	04aH
	DB	049H
	DB	04aH
	DB	029H
	DB	04aH
	DB	049H
	DB	04aH
	DB	028H
	DB	04aH
	DB	049H
	DB	04aH
	DB	029H
	DB	04aH
	DB	049H
	DB	042H
	DB	049H
	DB	04aH
	DB	029H
	DB	04aH
	DB	048H
	DB	04aH
	DB	049H
	DB	04aH
	DB	029H
	DB	04aH
	DB	029H
	DB	04aH
	DB	048H
	DB	04aH
	DB	029H
	DB	042H
	DB	029H
	DB	04aH
	DB	049H
	DB	04aH
	DB	048H
	DB	04aH
	DB	049H
	DB	04aH
	DB	029H
	DB	04aH
	DB	049H
	DB	04aH
	DB	049H
	DB	04aH
	DB	049H
	DB	04aH
	DB	049H
	DB	04aH
	DB	028H
	DB	04aH
	DB	049H
	DB	04aH
	DB	049H
	DB	04aH
	DB	049H
	DB	04aH
	DB	028H
	DB	04aH
	DB	049H
	DB	04aH
	DB	049H
	DB	04aH
	DB	049H
	DB	04aH
	DB	028H
	DB	04aH
	DB	049H
	DB	04aH
	DB	029H
	DB	04aH
	DB	049H
	DB	04aH
	DB	049H
	DB	04aH
	DB	049H
	DB	04aH
	DB	049H
	DB	04aH
	DB	048H
	DB	04aH
	DB	049H
	DB	04aH
	DB	049H
	DB	042H
	DB	049H
	DB	04aH
	DB	049H
	DB	04aH
	DB	048H
	DB	04aH
	DB	049H
	DB	04aH
	DB	049H
	DB	04aH
	DB	048H
	DB	04aH
	DB	049H
	DB	04aH
	DB	029H
	DB	04aH
	DB	049H
	DB	04aH
	DB	049H
	DB	04aH
	DB	029H
	DB	04aH
	DB	049H
	DB	04aH
	DB	049H
	DB	04aH
	DB	048H
	DB	04aH
	DB	049H
	DB	04aH
	DB	049H
	DB	04aH
	DB	048H
	DB	04aH
	DB	029H
	DB	04aH
	DB	049H
	DB	04aH
	DB	049H
	DB	04aH
	DB	049H
	DB	04aH
	DB	049H
	DB	04aH
	DB	049H
	DB	04aH
	DB	049H
	DB	04aH
	DB	049H
	DB	04aH
	DB	0efH
	DB	07bH
	DB	0efH
	DB	07bH
	DB	049H
	DB	04aH
	DB	029H
	DB	04aH
	DB	049H
	DB	04aH
	DB	029H
	DB	04aH
	DB	048H
	DB	042H
	DB	049H
	DB	04aH
	DB	029H
	DB	04aH
	DB	049H
	DB	04aH
	DB	049H
	DB	042H
	DB	049H
	DB	04aH
	DB	049H
	DB	04aH
	DB	049H
	DB	042H
	DB	029H
	DB	04aH
	DB	049H
	DB	04aH
	DB	049H
	DB	04aH
	DB	049H
	DB	04aH
	DB	049H
	DB	04aH
	DB	049H
	DB	04aH
	DB	049H
	DB	04aH
	DB	049H
	DB	04aH
	DB	048H
	DB	04aH
	DB	049H
	DB	04aH
	DB	049H
	DB	04aH
	DB	029H
	DB	04aH
	DB	049H
	DB	04aH
	DB	049H
	DB	04aH
	DB	029H
	DB	04aH
	DB	049H
	DB	04aH
	DB	049H
	DB	04aH
	DB	049H
	DB	04aH
	DB	029H
	DB	04aH
	DB	049H
	DB	04aH
	DB	049H
	DB	04aH
	DB	029H
	DB	04aH
	DB	049H
	DB	042H
	DB	049H
	DB	04aH
	DB	048H
	DB	04aH
	DB	049H
	DB	04aH
	DB	029H
	DB	04aH
	DB	049H
	DB	04aH
	DB	049H
	DB	04aH
	DB	048H
	DB	04aH
	DB	029H
	DB	04aH
	DB	049H
	DB	04aH
	DB	048H
	DB	04aH
	DB	049H
	DB	04aH
	DB	049H
	DB	04aH
	DB	049H
	DB	04aH
	DB	049H
	DB	042H
	DB	029H
	DB	04aH
	DB	049H
	DB	04aH
	DB	048H
	DB	04aH
	DB	029H
	DB	042H
	DB	029H
	DB	04aH
	DB	049H
	DB	04aH
	DB	029H
	DB	042H
	DB	048H
	DB	04aH
	DB	049H
	DB	04aH
	DB	049H
	DB	042H
	DB	048H
	DB	04aH
	DB	049H
	DB	04aH
	DB	029H
	DB	04aH
	DB	049H
	DB	04aH
	DB	049H
	DB	042H
	DB	049H
	DB	04aH
	DB	029H
	DB	04aH
	DB	049H
	DB	042H
	DB	049H
	DB	04aH
	DB	029H
	DB	04aH
	DB	049H
	DB	04aH
	DB	049H
	DB	04aH
	DB	049H
	DB	042H
	DB	029H
	DB	04aH
	DB	049H
	DB	04aH
	DB	049H
	DB	04aH
	DB	029H
	DB	04aH
	DB	049H
	DB	04aH
	DB	049H
	DB	04aH
	DB	049H
	DB	04aH
	DB	049H
	DB	04aH
	DB	029H
	DB	04aH
	DB	048H
	DB	04aH
	DB	049H
	DB	04aH
	DB	049H
	DB	04aH
	DB	048H
	DB	04aH
	DB	029H
	DB	042H
	DB	049H
	DB	04aH
	DB	049H
	DB	04aH
	DB	029H
	DB	042H
	DB	049H
	DB	04aH
	DB	049H
	DB	04aH
	DB	029H
	DB	04aH
	DB	049H
	DB	042H
	DB	049H
	DB	04aH
	DB	049H
	DB	04aH
	DB	049H
	DB	04aH
	DB	049H
	DB	04aH
	DB	049H
	DB	04aH
	DB	049H
	DB	042H
	DB	049H
	DB	04aH
	DB	049H
	DB	04aH
	DB	029H
	DB	04aH
	DB	049H
	DB	04aH
	DB	049H
	DB	04aH
	DB	029H
	DB	04aH
	DB	049H
	DB	042H
	DB	049H
	DB	04aH
	DB	049H
	DB	04aH
	DB	049H
	DB	04aH
	DB	049H
	DB	04aH
	DB	049H
	DB	04aH
	DB	049H
	DB	04aH
	DB	029H
	DB	04aH
	DB	049H
	DB	042H
	DB	049H
	DB	04aH
	DB	049H
	DB	04aH
	DB	049H
	DB	04aH
	DB	049H
	DB	042H
	DB	029H
	DB	04aH
	DB	049H
	DB	04aH
	DB	049H
	DB	04aH
	DB	029H
	DB	042H
	DB	049H
	DB	04aH
	DB	049H
	DB	04aH
	DB	049H
	DB	04aH
	DB	029H
	DB	042H
	DB	049H
	DB	04aH
	DB	049H
	DB	04aH
	DB	049H
	DB	042H
	DB	049H
	DB	04aH
	DB	029H
	DB	04aH
	DB	049H
	DB	04aH
	DB	049H
	DB	042H
	DB	029H
	DB	04aH
	DB	029H
	DB	04aH
	DB	049H
	DB	04aH
	DB	029H
	DB	04aH
	DB	049H
	DB	04aH
	DB	029H
	DB	04aH
	DB	049H
	DB	042H
	DB	049H
	DB	04aH
	DB	029H
	DB	04aH
	DB	049H
	DB	04aH
	DB	049H
	DB	042H
	DB	049H
	DB	04aH
	DB	048H
	DB	04aH
	DB	049H
	DB	04aH
	DB	049H
	DB	04aH
	DB	049H
	DB	042H
	DB	029H
	DB	04aH
	DB	049H
	DB	04aH
	DB	049H
	DB	04aH
	DB	029H
	DB	04aH
	DB	049H
	DB	042H
	DB	049H
	DB	04aH
	DB	049H
	DB	04aH
	DB	029H
	DB	042H
	DB	049H
	DB	04aH
	DB	028H
	DB	04aH
	DB	049H
	DB	042H
	DB	049H
	DB	04aH
	DB	029H
	DB	04aH
	DB	049H
	DB	04aH
	DB	0efH
	DB	07bH
	DB	0efH
	DB	07bH
	DB	049H
	DB	04aH
	DB	049H
	DB	04aH
	DB	049H
	DB	04aH
	DB	029H
	DB	04aH
	DB	049H
	DB	04aH
	DB	049H
	DB	04aH
	DB	049H
	DB	04aH
	DB	028H
	DB	04aH
	DB	049H
	DB	04aH
	DB	049H
	DB	04aH
	DB	029H
	DB	04aH
	DB	049H
	DB	04aH
	DB	049H
	DB	04aH
	DB	048H
	DB	042H
	DB	029H
	DB	04aH
	DB	049H
	DB	04aH
	DB	028H
	DB	04aH
	DB	049H
	DB	04aH
	DB	029H
	DB	04aH
	DB	049H
	DB	04aH
	DB	029H
	DB	042H
	DB	049H
	DB	04aH
	DB	049H
	DB	04aH
	DB	049H
	DB	042H
	DB	049H
	DB	04aH
	DB	049H
	DB	04aH
	DB	049H
	DB	042H
	DB	049H
	DB	04aH
	DB	048H
	DB	04aH
	DB	049H
	DB	04aH
	DB	049H
	DB	04aH
	DB	029H
	DB	04aH
	DB	048H
	DB	04aH
	DB	049H
	DB	04aH
	DB	029H
	DB	04aH
	DB	049H
	DB	04aH
	DB	049H
	DB	04aH
	DB	029H
	DB	04aH
	DB	049H
	DB	04aH
	DB	048H
	DB	04aH
	DB	049H
	DB	04aH
	DB	049H
	DB	04aH
	DB	049H
	DB	042H
	DB	029H
	DB	04aH
	DB	049H
	DB	04aH
	DB	029H
	DB	042H
	DB	049H
	DB	04aH
	DB	048H
	DB	04aH
	DB	029H
	DB	04aH
	DB	049H
	DB	04aH
	DB	049H
	DB	04aH
	DB	049H
	DB	04aH
	DB	049H
	DB	04aH
	DB	049H
	DB	04aH
	DB	048H
	DB	04aH
	DB	049H
	DB	04aH
	DB	029H
	DB	04aH
	DB	049H
	DB	04aH
	DB	049H
	DB	04aH
	DB	029H
	DB	04aH
	DB	049H
	DB	042H
	DB	048H
	DB	04aH
	DB	029H
	DB	04aH
	DB	049H
	DB	04aH
	DB	049H
	DB	04aH
	DB	049H
	DB	04aH
	DB	048H
	DB	04aH
	DB	049H
	DB	04aH
	DB	029H
	DB	04aH
	DB	049H
	DB	04aH
	DB	048H
	DB	04aH
	DB	029H
	DB	04aH
	DB	049H
	DB	04aH
	DB	048H
	DB	04aH
	DB	029H
	DB	04aH
	DB	049H
	DB	04aH
	DB	029H
	DB	042H
	DB	048H
	DB	04aH
	DB	049H
	DB	04aH
	DB	029H
	DB	042H
	DB	049H
	DB	04aH
	DB	049H
	DB	04aH
	DB	029H
	DB	042H
	DB	049H
	DB	04aH
	DB	049H
	DB	04aH
	DB	049H
	DB	04aH
	DB	049H
	DB	04aH
	DB	049H
	DB	04aH
	DB	049H
	DB	04aH
	DB	049H
	DB	04aH
	DB	048H
	DB	04aH
	DB	029H
	DB	04aH
	DB	049H
	DB	04aH
	DB	029H
	DB	04aH
	DB	049H
	DB	042H
	DB	029H
	DB	04aH
	DB	029H
	DB	04aH
	DB	048H
	DB	04aH
	DB	049H
	DB	04aH
	DB	049H
	DB	04aH
	DB	049H
	DB	042H
	DB	049H
	DB	04aH
	DB	048H
	DB	04aH
	DB	049H
	DB	04aH
	DB	049H
	DB	04aH
	DB	049H
	DB	04aH
	DB	049H
	DB	04aH
	DB	028H
	DB	04aH
	DB	049H
	DB	042H
	DB	049H
	DB	04aH
	DB	049H
	DB	04aH
	DB	048H
	DB	04aH
	DB	049H
	DB	04aH
	DB	029H
	DB	04aH
	DB	049H
	DB	04aH
	DB	028H
	DB	04aH
	DB	049H
	DB	04aH
	DB	049H
	DB	04aH
	DB	048H
	DB	04aH
	DB	049H
	DB	04aH
	DB	049H
	DB	04aH
	DB	049H
	DB	04aH
	DB	028H
	DB	04aH
	DB	049H
	DB	04aH
	DB	049H
	DB	04aH
	DB	049H
	DB	04aH
	DB	028H
	DB	04aH
	DB	049H
	DB	04aH
	DB	049H
	DB	04aH
	DB	049H
	DB	04aH
	DB	048H
	DB	04aH
	DB	049H
	DB	04aH
	DB	049H
	DB	04aH
	DB	048H
	DB	04aH
	DB	049H
	DB	04aH
	DB	049H
	DB	042H
	DB	049H
	DB	04aH
	DB	028H
	DB	04aH
	DB	049H
	DB	04aH
	DB	049H
	DB	04aH
	DB	029H
	DB	04aH
	DB	049H
	DB	04aH
	DB	049H
	DB	04aH
	DB	029H
	DB	04aH
	DB	029H
	DB	04aH
	DB	049H
	DB	042H
	DB	029H
	DB	04aH
	DB	049H
	DB	04aH
	DB	048H
	DB	04aH
	DB	049H
	DB	04aH
	DB	029H
	DB	042H
	DB	049H
	DB	04aH
	DB	049H
	DB	04aH
	DB	029H
	DB	04aH
	DB	049H
	DB	04aH
	DB	049H
	DB	04aH
	DB	049H
	DB	04aH
	DB	049H
	DB	04aH
	DB	049H
	DB	04aH
	DB	029H
	DB	04aH
	DB	048H
	DB	04aH
	DB	049H
	DB	04aH
	DB	049H
	DB	04aH
	DB	0cfH
	DB	07bH
	DB	0efH
	DB	07bH
	DB	049H
	DB	04aH
	DB	049H
	DB	04aH
	DB	049H
	DB	04aH
	DB	049H
	DB	04aH
	DB	029H
	DB	04aH
	DB	049H
	DB	04aH
	DB	049H
	DB	042H
	DB	049H
	DB	04aH
	DB	029H
	DB	04aH
	DB	049H
	DB	04aH
	DB	048H
	DB	04aH
	DB	029H
	DB	04aH
	DB	049H
	DB	04aH
	DB	049H
	DB	04aH
	DB	049H
	DB	04aH
	DB	029H
	DB	04aH
	DB	049H
	DB	042H
	DB	049H
	DB	04aH
	DB	049H
	DB	04aH
	DB	048H
	DB	04aH
	DB	049H
	DB	04aH
	DB	029H
	DB	04aH
	DB	048H
	DB	04aH
	DB	049H
	DB	04aH
	DB	029H
	DB	04aH
	DB	048H
	DB	04aH
	DB	029H
	DB	04aH
	DB	049H
	DB	04aH
	DB	029H
	DB	04aH
	DB	049H
	DB	042H
	DB	049H
	DB	04aH
	DB	049H
	DB	04aH
	DB	049H
	DB	042H
	DB	049H
	DB	04aH
	DB	049H
	DB	04aH
	DB	029H
	DB	04aH
	DB	049H
	DB	042H
	DB	049H
	DB	04aH
	DB	049H
	DB	04aH
	DB	029H
	DB	042H
	DB	049H
	DB	04aH
	DB	049H
	DB	04aH
	DB	029H
	DB	04aH
	DB	049H
	DB	04aH
	DB	049H
	DB	04aH
	DB	049H
	DB	04aH
	DB	029H
	DB	04aH
	DB	049H
	DB	04aH
	DB	049H
	DB	04aH
	DB	048H
	DB	04aH
	DB	029H
	DB	042H
	DB	049H
	DB	04aH
	DB	049H
	DB	04aH
	DB	029H
	DB	04aH
	DB	049H
	DB	04aH
	DB	049H
	DB	04aH
	DB	049H
	DB	04aH
	DB	029H
	DB	042H
	DB	049H
	DB	04aH
	DB	049H
	DB	04aH
	DB	049H
	DB	04aH
	DB	049H
	DB	04aH
	DB	049H
	DB	04aH
	DB	029H
	DB	04aH
	DB	048H
	DB	04aH
	DB	029H
	DB	04aH
	DB	049H
	DB	04aH
	DB	049H
	DB	04aH
	DB	049H
	DB	042H
	DB	049H
	DB	04aH
	DB	049H
	DB	04aH
	DB	049H
	DB	04aH
	DB	049H
	DB	042H
	DB	049H
	DB	04aH
	DB	049H
	DB	04aH
	DB	049H
	DB	04aH
	DB	049H
	DB	04aH
	DB	029H
	DB	04aH
	DB	049H
	DB	04aH
	DB	049H
	DB	04aH
	DB	049H
	DB	04aH
	DB	049H
	DB	04aH
	DB	029H
	DB	04aH
	DB	049H
	DB	04aH
	DB	049H
	DB	04aH
	DB	029H
	DB	04aH
	DB	048H
	DB	04aH
	DB	029H
	DB	04aH
	DB	049H
	DB	04aH
	DB	049H
	DB	042H
	DB	029H
	DB	04aH
	DB	049H
	DB	04aH
	DB	049H
	DB	04aH
	DB	048H
	DB	04aH
	DB	049H
	DB	04aH
	DB	049H
	DB	04aH
	DB	049H
	DB	04aH
	DB	029H
	DB	042H
	DB	029H
	DB	04aH
	DB	049H
	DB	04aH
	DB	028H
	DB	04aH
	DB	049H
	DB	04aH
	DB	029H
	DB	04aH
	DB	049H
	DB	042H
	DB	029H
	DB	04aH
	DB	048H
	DB	04aH
	DB	049H
	DB	04aH
	DB	029H
	DB	04aH
	DB	049H
	DB	04aH
	DB	029H
	DB	04aH
	DB	029H
	DB	04aH
	DB	049H
	DB	042H
	DB	049H
	DB	04aH
	DB	049H
	DB	04aH
	DB	049H
	DB	04aH
	DB	029H
	DB	042H
	DB	049H
	DB	04aH
	DB	049H
	DB	04aH
	DB	029H
	DB	04aH
	DB	049H
	DB	042H
	DB	049H
	DB	04aH
	DB	049H
	DB	04aH
	DB	049H
	DB	04aH
	DB	029H
	DB	042H
	DB	049H
	DB	04aH
	DB	049H
	DB	04aH
	DB	049H
	DB	04aH
	DB	029H
	DB	04aH
	DB	049H
	DB	04aH
	DB	029H
	DB	042H
	DB	049H
	DB	04aH
	DB	029H
	DB	04aH
	DB	049H
	DB	04aH
	DB	049H
	DB	04aH
	DB	029H
	DB	04aH
	DB	049H
	DB	04aH
	DB	049H
	DB	04aH
	DB	049H
	DB	04aH
	DB	049H
	DB	04aH
	DB	048H
	DB	04aH
	DB	049H
	DB	04aH
	DB	049H
	DB	042H
	DB	048H
	DB	04aH
	DB	049H
	DB	04aH
	DB	049H
	DB	04aH
	DB	049H
	DB	04aH
	DB	049H
	DB	04aH
	DB	029H
	DB	04aH
	DB	049H
	DB	04aH
	DB	049H
	DB	04aH
	DB	048H
	DB	04aH
	DB	049H
	DB	04aH
	DB	049H
	DB	04aH
	DB	028H
	DB	04aH
	DB	049H
	DB	04aH
	DB	049H
	DB	04aH
	DB	028H
	DB	04aH
	DB	049H
	DB	04aH
	DB	049H
	DB	04aH
	DB	049H
	DB	04aH
	DB	029H
	DB	04aH
	DB	049H
	DB	04aH
	DB	049H
	DB	04aH
	DB	0efH
	DB	07bH
	DB	0cfH
	DB	07bH
	DB	049H
	DB	04aH
	DB	029H
	DB	04aH
	DB	049H
	DB	04aH
	DB	049H
	DB	04aH
	DB	048H
	DB	04aH
	DB	029H
	DB	04aH
	DB	049H
	DB	04aH
	DB	049H
	DB	04aH
	DB	049H
	DB	04aH
	DB	049H
	DB	042H
	DB	049H
	DB	04aH
	DB	049H
	DB	04aH
	DB	029H
	DB	042H
	DB	049H
	DB	04aH
	DB	049H
	DB	04aH
	DB	048H
	DB	04aH
	DB	049H
	DB	04aH
	DB	049H
	DB	04aH
	DB	029H
	DB	042H
	DB	049H
	DB	04aH
	DB	049H
	DB	04aH
	DB	049H
	DB	04aH
	DB	029H
	DB	04aH
	DB	049H
	DB	04aH
	DB	049H
	DB	04aH
	DB	029H
	DB	04aH
	DB	049H
	DB	04aH
	DB	049H
	DB	04aH
	DB	049H
	DB	04aH
	DB	029H
	DB	04aH
	DB	048H
	DB	04aH
	DB	029H
	DB	04aH
	DB	049H
	DB	04aH
	DB	049H
	DB	04aH
	DB	028H
	DB	04aH
	DB	049H
	DB	04aH
	DB	049H
	DB	04aH
	DB	048H
	DB	04aH
	DB	029H
	DB	04aH
	DB	049H
	DB	04aH
	DB	049H
	DB	04aH
	DB	028H
	DB	04aH
	DB	049H
	DB	04aH
	DB	049H
	DB	04aH
	DB	048H
	DB	04aH
	DB	049H
	DB	04aH
	DB	049H
	DB	04aH
	DB	029H
	DB	042H
	DB	049H
	DB	04aH
	DB	049H
	DB	04aH
	DB	049H
	DB	04aH
	DB	029H
	DB	04aH
	DB	048H
	DB	04aH
	DB	049H
	DB	042H
	DB	029H
	DB	04aH
	DB	049H
	DB	04aH
	DB	048H
	DB	04aH
	DB	049H
	DB	04aH
	DB	029H
	DB	04aH
	DB	048H
	DB	04aH
	DB	029H
	DB	04aH
	DB	049H
	DB	04aH
	DB	049H
	DB	042H
	DB	049H
	DB	04aH
	DB	049H
	DB	04aH
	DB	029H
	DB	042H
	DB	049H
	DB	04aH
	DB	049H
	DB	04aH
	DB	028H
	DB	04aH
	DB	029H
	DB	04aH
	DB	049H
	DB	04aH
	DB	049H
	DB	04aH
	DB	029H
	DB	04aH
	DB	049H
	DB	04aH
	DB	048H
	DB	04aH
	DB	029H
	DB	042H
	DB	049H
	DB	04aH
	DB	049H
	DB	04aH
	DB	049H
	DB	04aH
	DB	028H
	DB	04aH
	DB	049H
	DB	04aH
	DB	049H
	DB	042H
	DB	048H
	DB	04aH
	DB	049H
	DB	04aH
	DB	029H
	DB	042H
	DB	049H
	DB	04aH
	DB	049H
	DB	04aH
	DB	029H
	DB	042H
	DB	049H
	DB	04aH
	DB	048H
	DB	04aH
	DB	049H
	DB	04aH
	DB	049H
	DB	04aH
	DB	049H
	DB	042H
	DB	029H
	DB	04aH
	DB	049H
	DB	04aH
	DB	048H
	DB	04aH
	DB	049H
	DB	04aH
	DB	049H
	DB	04aH
	DB	049H
	DB	04aH
	DB	049H
	DB	04aH
	DB	049H
	DB	04aH
	DB	029H
	DB	04aH
	DB	049H
	DB	04aH
	DB	049H
	DB	04aH
	DB	049H
	DB	04aH
	DB	029H
	DB	04aH
	DB	049H
	DB	042H
	DB	049H
	DB	04aH
	DB	049H
	DB	04aH
	DB	049H
	DB	04aH
	DB	048H
	DB	04aH
	DB	049H
	DB	04aH
	DB	029H
	DB	04aH
	DB	049H
	DB	04aH
	DB	048H
	DB	04aH
	DB	049H
	DB	04aH
	DB	049H
	DB	04aH
	DB	029H
	DB	04aH
	DB	049H
	DB	04aH
	DB	028H
	DB	04aH
	DB	029H
	DB	04aH
	DB	049H
	DB	04aH
	DB	049H
	DB	04aH
	DB	049H
	DB	04aH
	DB	028H
	DB	04aH
	DB	049H
	DB	04aH
	DB	049H
	DB	042H
	DB	049H
	DB	04aH
	DB	048H
	DB	04aH
	DB	049H
	DB	04aH
	DB	029H
	DB	04aH
	DB	049H
	DB	04aH
	DB	049H
	DB	042H
	DB	029H
	DB	04aH
	DB	048H
	DB	04aH
	DB	049H
	DB	04aH
	DB	029H
	DB	04aH
	DB	049H
	DB	042H
	DB	049H
	DB	04aH
	DB	029H
	DB	04aH
	DB	049H
	DB	04aH
	DB	029H
	DB	04aH
	DB	049H
	DB	04aH
	DB	049H
	DB	04aH
	DB	028H
	DB	04aH
	DB	049H
	DB	04aH
	DB	049H
	DB	04aH
	DB	048H
	DB	042H
	DB	029H
	DB	04aH
	DB	049H
	DB	04aH
	DB	029H
	DB	04aH
	DB	049H
	DB	04aH
	DB	049H
	DB	042H
	DB	049H
	DB	04aH
	DB	049H
	DB	04aH
	DB	029H
	DB	042H
	DB	049H
	DB	04aH
	DB	049H
	DB	04aH
	DB	029H
	DB	042H
	DB	049H
	DB	04aH
	DB	049H
	DB	04aH
	DB	049H
	DB	04aH
	DB	049H
	DB	04aH
	DB	0efH
	DB	07bH
	DB	0efH
	DB	07bH
	DB	049H
	DB	04aH
	DB	049H
	DB	04aH
	DB	029H
	DB	04aH
	DB	049H
	DB	04aH
	DB	049H
	DB	042H
	DB	049H
	DB	04aH
	DB	029H
	DB	04aH
	DB	048H
	DB	04aH
	DB	049H
	DB	04aH
	DB	029H
	DB	04aH
	DB	049H
	DB	04aH
	DB	048H
	DB	04aH
	DB	049H
	DB	04aH
	DB	029H
	DB	04aH
	DB	049H
	DB	04aH
	DB	049H
	DB	04aH
	DB	029H
	DB	04aH
	DB	049H
	DB	04aH
	DB	049H
	DB	04aH
	DB	029H
	DB	04aH
	DB	049H
	DB	04aH
	DB	049H
	DB	042H
	DB	049H
	DB	04aH
	DB	049H
	DB	04aH
	DB	049H
	DB	042H
	DB	049H
	DB	04aH
	DB	048H
	DB	04aH
	DB	049H
	DB	042H
	DB	049H
	DB	04aH
	DB	049H
	DB	04aH
	DB	029H
	DB	04aH
	DB	049H
	DB	04aH
	DB	049H
	DB	04aH
	DB	029H
	DB	042H
	DB	049H
	DB	04aH
	DB	049H
	DB	04aH
	DB	049H
	DB	04aH
	DB	029H
	DB	04aH
	DB	049H
	DB	04aH
	DB	049H
	DB	04aH
	DB	049H
	DB	042H
	DB	049H
	DB	04aH
	DB	049H
	DB	04aH
	DB	029H
	DB	042H
	DB	049H
	DB	04aH
	DB	049H
	DB	04aH
	DB	028H
	DB	04aH
	DB	049H
	DB	04aH
	DB	049H
	DB	04aH
	DB	049H
	DB	04aH
	DB	049H
	DB	04aH
	DB	049H
	DB	04aH
	DB	049H
	DB	04aH
	DB	049H
	DB	04aH
	DB	049H
	DB	04aH
	DB	029H
	DB	042H
	DB	049H
	DB	04aH
	DB	049H
	DB	04aH
	DB	049H
	DB	04aH
	DB	049H
	DB	04aH
	DB	029H
	DB	04aH
	DB	049H
	DB	04aH
	DB	048H
	DB	04aH
	DB	029H
	DB	04aH
	DB	049H
	DB	04aH
	DB	049H
	DB	04aH
	DB	049H
	DB	04aH
	DB	049H
	DB	04aH
	DB	049H
	DB	04aH
	DB	049H
	DB	04aH
	DB	029H
	DB	042H
	DB	048H
	DB	04aH
	DB	049H
	DB	04aH
	DB	029H
	DB	04aH
	DB	049H
	DB	04aH
	DB	049H
	DB	04aH
	DB	028H
	DB	04aH
	DB	049H
	DB	04aH
	DB	049H
	DB	042H
	DB	029H
	DB	04aH
	DB	049H
	DB	04aH
	DB	049H
	DB	04aH
	DB	029H
	DB	04aH
	DB	049H
	DB	04aH
	DB	048H
	DB	04aH
	DB	049H
	DB	04aH
	DB	049H
	DB	04aH
	DB	049H
	DB	04aH
	DB	029H
	DB	04aH
	DB	049H
	DB	04aH
	DB	049H
	DB	04aH
	DB	029H
	DB	04aH
	DB	048H
	DB	04aH
	DB	049H
	DB	04aH
	DB	029H
	DB	04aH
	DB	049H
	DB	042H
	DB	049H
	DB	04aH
	DB	029H
	DB	04aH
	DB	048H
	DB	04aH
	DB	049H
	DB	04aH
	DB	049H
	DB	042H
	DB	049H
	DB	04aH
	DB	049H
	DB	04aH
	DB	048H
	DB	04aH
	DB	049H
	DB	04aH
	DB	049H
	DB	04aH
	DB	049H
	DB	04aH
	DB	049H
	DB	04aH
	DB	029H
	DB	04aH
	DB	049H
	DB	042H
	DB	049H
	DB	04aH
	DB	049H
	DB	04aH
	DB	029H
	DB	04aH
	DB	049H
	DB	042H
	DB	049H
	DB	04aH
	DB	029H
	DB	04aH
	DB	049H
	DB	04aH
	DB	048H
	DB	042H
	DB	049H
	DB	04aH
	DB	049H
	DB	04aH
	DB	049H
	DB	04aH
	DB	049H
	DB	042H
	DB	028H
	DB	04aH
	DB	049H
	DB	04aH
	DB	049H
	DB	04aH
	DB	029H
	DB	04aH
	DB	049H
	DB	04aH
	DB	049H
	DB	04aH
	DB	029H
	DB	04aH
	DB	049H
	DB	04aH
	DB	049H
	DB	04aH
	DB	048H
	DB	04aH
	DB	049H
	DB	04aH
	DB	049H
	DB	04aH
	DB	049H
	DB	042H
	DB	049H
	DB	04aH
	DB	029H
	DB	04aH
	DB	048H
	DB	04aH
	DB	049H
	DB	04aH
	DB	029H
	DB	04aH
	DB	049H
	DB	042H
	DB	049H
	DB	04aH
	DB	029H
	DB	04aH
	DB	049H
	DB	042H
	DB	049H
	DB	04aH
	DB	029H
	DB	04aH
	DB	049H
	DB	04aH
	DB	049H
	DB	04aH
	DB	049H
	DB	04aH
	DB	049H
	DB	04aH
	DB	029H
	DB	042H
	DB	049H
	DB	04aH
	DB	049H
	DB	04aH
	DB	029H
	DB	04aH
	DB	048H
	DB	04aH
	DB	049H
	DB	04aH
	DB	049H
	DB	04aH
	DB	049H
	DB	04aH
	DB	028H
	DB	04aH
	DB	049H
	DB	04aH
	DB	049H
	DB	04aH
	DB	029H
	DB	04aH
	DB	049H
	DB	04aH
	DB	0efH
	DB	07bH
	DB	0efH
	DB	07bH
	DB	049H
	DB	04aH
	DB	049H
	DB	04aH
	DB	049H
	DB	04aH
	DB	029H
	DB	04aH
	DB	049H
	DB	04aH
	DB	049H
	DB	04aH
	DB	049H
	DB	04aH
	DB	029H
	DB	042H
	DB	049H
	DB	04aH
	DB	049H
	DB	04aH
	DB	029H
	DB	04aH
	DB	049H
	DB	04aH
	DB	049H
	DB	04aH
	DB	049H
	DB	04aH
	DB	028H
	DB	042H
	DB	049H
	DB	04aH
	DB	049H
	DB	04aH
	DB	048H
	DB	042H
	DB	049H
	DB	04aH
	DB	029H
	DB	04aH
	DB	048H
	DB	04aH
	DB	049H
	DB	04aH
	DB	029H
	DB	04aH
	DB	028H
	DB	04aH
	DB	049H
	DB	04aH
	DB	049H
	DB	04aH
	DB	029H
	DB	04aH
	DB	029H
	DB	04aH
	DB	049H
	DB	04aH
	DB	048H
	DB	042H
	DB	049H
	DB	04aH
	DB	049H
	DB	04aH
	DB	048H
	DB	04aH
	DB	049H
	DB	04aH
	DB	049H
	DB	04aH
	DB	049H
	DB	042H
	DB	029H
	DB	04aH
	DB	049H
	DB	04aH
	DB	048H
	DB	042H
	DB	029H
	DB	04aH
	DB	049H
	DB	04aH
	DB	049H
	DB	04aH
	DB	029H
	DB	04aH
	DB	049H
	DB	04aH
	DB	049H
	DB	04aH
	DB	029H
	DB	04aH
	DB	049H
	DB	042H
	DB	049H
	DB	04aH
	DB	029H
	DB	04aH
	DB	028H
	DB	04aH
	DB	049H
	DB	042H
	DB	029H
	DB	04aH
	DB	049H
	DB	04aH
	DB	049H
	DB	04aH
	DB	028H
	DB	04aH
	DB	049H
	DB	04aH
	DB	049H
	DB	04aH
	DB	029H
	DB	04aH
	DB	049H
	DB	042H
	DB	049H
	DB	04aH
	DB	049H
	DB	04aH
	DB	049H
	DB	042H
	DB	029H
	DB	04aH
	DB	049H
	DB	04aH
	DB	049H
	DB	04aH
	DB	028H
	DB	04aH
	DB	049H
	DB	042H
	DB	029H
	DB	04aH
	DB	049H
	DB	04aH
	DB	049H
	DB	04aH
	DB	049H
	DB	04aH
	DB	049H
	DB	04aH
	DB	049H
	DB	04aH
	DB	029H
	DB	042H
	DB	049H
	DB	04aH
	DB	049H
	DB	04aH
	DB	049H
	DB	04aH
	DB	049H
	DB	04aH
	DB	049H
	DB	04aH
	DB	049H
	DB	04aH
	DB	049H
	DB	04aH
	DB	029H
	DB	04aH
	DB	049H
	DB	04aH
	DB	049H
	DB	04aH
	DB	029H
	DB	04aH
	DB	049H
	DB	04aH
	DB	049H
	DB	04aH
	DB	048H
	DB	04aH
	DB	049H
	DB	04aH
	DB	029H
	DB	042H
	DB	049H
	DB	04aH
	DB	049H
	DB	04aH
	DB	029H
	DB	04aH
	DB	049H
	DB	04aH
	DB	049H
	DB	04aH
	DB	049H
	DB	04aH
	DB	029H
	DB	04aH
	DB	049H
	DB	04aH
	DB	049H
	DB	04aH
	DB	029H
	DB	04aH
	DB	049H
	DB	04aH
	DB	029H
	DB	04aH
	DB	049H
	DB	042H
	DB	029H
	DB	04aH
	DB	029H
	DB	04aH
	DB	049H
	DB	042H
	DB	048H
	DB	04aH
	DB	029H
	DB	04aH
	DB	049H
	DB	04aH
	DB	048H
	DB	04aH
	DB	029H
	DB	04aH
	DB	049H
	DB	04aH
	DB	049H
	DB	04aH
	DB	048H
	DB	04aH
	DB	029H
	DB	04aH
	DB	049H
	DB	04aH
	DB	049H
	DB	04aH
	DB	049H
	DB	04aH
	DB	029H
	DB	04aH
	DB	049H
	DB	04aH
	DB	049H
	DB	04aH
	DB	049H
	DB	04aH
	DB	049H
	DB	04aH
	DB	049H
	DB	04aH
	DB	049H
	DB	042H
	DB	049H
	DB	04aH
	DB	029H
	DB	04aH
	DB	048H
	DB	04aH
	DB	049H
	DB	042H
	DB	029H
	DB	04aH
	DB	049H
	DB	04aH
	DB	049H
	DB	042H
	DB	029H
	DB	04aH
	DB	049H
	DB	04aH
	DB	049H
	DB	04aH
	DB	029H
	DB	04aH
	DB	049H
	DB	04aH
	DB	049H
	DB	04aH
	DB	049H
	DB	04aH
	DB	049H
	DB	04aH
	DB	048H
	DB	04aH
	DB	049H
	DB	04aH
	DB	049H
	DB	04aH
	DB	048H
	DB	04aH
	DB	049H
	DB	04aH
	DB	049H
	DB	04aH
	DB	029H
	DB	042H
	DB	049H
	DB	04aH
	DB	049H
	DB	04aH
	DB	048H
	DB	04aH
	DB	049H
	DB	04aH
	DB	049H
	DB	04aH
	DB	028H
	DB	04aH
	DB	049H
	DB	04aH
	DB	049H
	DB	04aH
	DB	029H
	DB	04aH
	DB	049H
	DB	042H
	DB	049H
	DB	04aH
	DB	049H
	DB	04aH
	DB	049H
	DB	042H
	DB	049H
	DB	04aH
	DB	029H
	DB	04aH
	DB	049H
	DB	04aH
	DB	0efH
	DB	07bH
	DB	0efH
	DB	07bH
	DB	049H
	DB	04aH
	DB	049H
	DB	04aH
	DB	049H
	DB	04aH
	DB	049H
	DB	04aH
	DB	028H
	DB	04aH
	DB	049H
	DB	04aH
	DB	049H
	DB	04aH
	DB	049H
	DB	04aH
	DB	048H
	DB	04aH
	DB	049H
	DB	04aH
	DB	029H
	DB	042H
	DB	049H
	DB	04aH
	DB	049H
	DB	04aH
	DB	049H
	DB	04aH
	DB	049H
	DB	04aH
	DB	029H
	DB	04aH
	DB	049H
	DB	04aH
	DB	049H
	DB	04aH
	DB	029H
	DB	04aH
	DB	049H
	DB	04aH
	DB	049H
	DB	04aH
	DB	049H
	DB	04aH
	DB	049H
	DB	04aH
	DB	049H
	DB	042H
	DB	029H
	DB	04aH
	DB	049H
	DB	04aH
	DB	049H
	DB	04aH
	DB	049H
	DB	04aH
	DB	029H
	DB	04aH
	DB	049H
	DB	04aH
	DB	049H
	DB	04aH
	DB	029H
	DB	04aH
	DB	049H
	DB	042H
	DB	029H
	DB	04aH
	DB	049H
	DB	04aH
	DB	048H
	DB	04aH
	DB	049H
	DB	04aH
	DB	049H
	DB	04aH
	DB	049H
	DB	04aH
	DB	029H
	DB	04aH
	DB	049H
	DB	04aH
	DB	048H
	DB	04aH
	DB	049H
	DB	04aH
	DB	049H
	DB	04aH
	DB	048H
	DB	04aH
	DB	049H
	DB	04aH
	DB	049H
	DB	04aH
	DB	049H
	DB	04aH
	DB	049H
	DB	04aH
	DB	049H
	DB	04aH
	DB	049H
	DB	04aH
	DB	028H
	DB	04aH
	DB	049H
	DB	042H
	DB	049H
	DB	04aH
	DB	049H
	DB	04aH
	DB	049H
	DB	04aH
	DB	049H
	DB	04aH
	DB	028H
	DB	04aH
	DB	049H
	DB	04aH
	DB	049H
	DB	04aH
	DB	028H
	DB	04aH
	DB	049H
	DB	04aH
	DB	049H
	DB	04aH
	DB	049H
	DB	04aH
	DB	049H
	DB	042H
	DB	049H
	DB	04aH
	DB	029H
	DB	04aH
	DB	049H
	DB	04aH
	DB	048H
	DB	04aH
	DB	029H
	DB	042H
	DB	049H
	DB	04aH
	DB	049H
	DB	04aH
	DB	028H
	DB	04aH
	DB	049H
	DB	04aH
	DB	049H
	DB	04aH
	DB	029H
	DB	04aH
	DB	049H
	DB	042H
	DB	049H
	DB	04aH
	DB	028H
	DB	04aH
	DB	049H
	DB	04aH
	DB	049H
	DB	042H
	DB	048H
	DB	04aH
	DB	049H
	DB	04aH
	DB	049H
	DB	042H
	DB	029H
	DB	04aH
	DB	049H
	DB	04aH
	DB	029H
	DB	042H
	DB	049H
	DB	04aH
	DB	049H
	DB	04aH
	DB	049H
	DB	04aH
	DB	048H
	DB	04aH
	DB	049H
	DB	04aH
	DB	049H
	DB	042H
	DB	029H
	DB	04aH
	DB	049H
	DB	04aH
	DB	048H
	DB	04aH
	DB	049H
	DB	04aH
	DB	049H
	DB	042H
	DB	049H
	DB	04aH
	DB	049H
	DB	04aH
	DB	028H
	DB	04aH
	DB	049H
	DB	04aH
	DB	049H
	DB	04aH
	DB	049H
	DB	04aH
	DB	049H
	DB	04aH
	DB	049H
	DB	04aH
	DB	029H
	DB	04aH
	DB	049H
	DB	04aH
	DB	049H
	DB	04aH
	DB	049H
	DB	04aH
	DB	049H
	DB	042H
	DB	029H
	DB	04aH
	DB	049H
	DB	04aH
	DB	049H
	DB	04aH
	DB	049H
	DB	04aH
	DB	029H
	DB	042H
	DB	049H
	DB	04aH
	DB	049H
	DB	04aH
	DB	029H
	DB	04aH
	DB	048H
	DB	042H
	DB	049H
	DB	04aH
	DB	029H
	DB	04aH
	DB	049H
	DB	04aH
	DB	029H
	DB	04aH
	DB	048H
	DB	04aH
	DB	049H
	DB	04aH
	DB	049H
	DB	04aH
	DB	049H
	DB	04aH
	DB	049H
	DB	04aH
	DB	049H
	DB	04aH
	DB	029H
	DB	04aH
	DB	049H
	DB	04aH
	DB	048H
	DB	04aH
	DB	029H
	DB	04aH
	DB	049H
	DB	04aH
	DB	048H
	DB	04aH
	DB	049H
	DB	042H
	DB	029H
	DB	04aH
	DB	049H
	DB	04aH
	DB	049H
	DB	042H
	DB	029H
	DB	04aH
	DB	049H
	DB	04aH
	DB	029H
	DB	04aH
	DB	049H
	DB	04aH
	DB	049H
	DB	04aH
	DB	029H
	DB	04aH
	DB	048H
	DB	04aH
	DB	049H
	DB	04aH
	DB	029H
	DB	04aH
	DB	029H
	DB	04aH
	DB	049H
	DB	04aH
	DB	049H
	DB	04aH
	DB	049H
	DB	042H
	DB	049H
	DB	04aH
	DB	049H
	DB	04aH
	DB	029H
	DB	04aH
	DB	048H
	DB	04aH
	DB	049H
	DB	04aH
	DB	029H
	DB	04aH
	DB	049H
	DB	04aH
	DB	048H
	DB	04aH
	DB	049H
	DB	04aH
	DB	049H
	DB	04aH
	DB	0efH
	DB	07bH
	DB	0efH
	DB	07bH
	DB	049H
	DB	04aH
	DB	029H
	DB	04aH
	DB	049H
	DB	04aH
	DB	049H
	DB	04aH
	DB	049H
	DB	042H
	DB	029H
	DB	04aH
	DB	049H
	DB	04aH
	DB	049H
	DB	04aH
	DB	029H
	DB	04aH
	DB	049H
	DB	04aH
	DB	048H
	DB	04aH
	DB	029H
	DB	04aH
	DB	049H
	DB	042H
	DB	048H
	DB	04aH
	DB	029H
	DB	04aH
	DB	049H
	DB	04aH
	DB	049H
	DB	04aH
	DB	029H
	DB	04aH
	DB	049H
	DB	04aH
	DB	049H
	DB	042H
	DB	029H
	DB	04aH
	DB	049H
	DB	04aH
	DB	048H
	DB	04aH
	DB	049H
	DB	04aH
	DB	049H
	DB	04aH
	DB	048H
	DB	04aH
	DB	049H
	DB	042H
	DB	049H
	DB	04aH
	DB	048H
	DB	04aH
	DB	029H
	DB	04aH
	DB	049H
	DB	04aH
	DB	049H
	DB	04aH
	DB	029H
	DB	04aH
	DB	049H
	DB	04aH
	DB	049H
	DB	04aH
	DB	029H
	DB	04aH
	DB	049H
	DB	04aH
	DB	049H
	DB	04aH
	DB	029H
	DB	04aH
	DB	049H
	DB	04aH
	DB	049H
	DB	042H
	DB	029H
	DB	04aH
	DB	049H
	DB	04aH
	DB	029H
	DB	042H
	DB	049H
	DB	04aH
	DB	029H
	DB	04aH
	DB	049H
	DB	04aH
	DB	048H
	DB	04aH
	DB	029H
	DB	042H
	DB	049H
	DB	04aH
	DB	049H
	DB	04aH
	DB	049H
	DB	04aH
	DB	029H
	DB	04aH
	DB	049H
	DB	04aH
	DB	049H
	DB	04aH
	DB	029H
	DB	042H
	DB	049H
	DB	04aH
	DB	049H
	DB	04aH
	DB	049H
	DB	04aH
	DB	029H
	DB	04aH
	DB	049H
	DB	042H
	DB	049H
	DB	04aH
	DB	029H
	DB	04aH
	DB	048H
	DB	04aH
	DB	049H
	DB	04aH
	DB	049H
	DB	04aH
	DB	049H
	DB	04aH
	DB	049H
	DB	04aH
	DB	049H
	DB	04aH
	DB	029H
	DB	04aH
	DB	049H
	DB	04aH
	DB	049H
	DB	04aH
	DB	049H
	DB	04aH
	DB	049H
	DB	04aH
	DB	048H
	DB	04aH
	DB	029H
	DB	04aH
	DB	049H
	DB	04aH
	DB	049H
	DB	04aH
	DB	029H
	DB	04aH
	DB	049H
	DB	04aH
	DB	049H
	DB	04aH
	DB	029H
	DB	04aH
	DB	049H
	DB	04aH
	DB	048H
	DB	04aH
	DB	049H
	DB	04aH
	DB	049H
	DB	04aH
	DB	048H
	DB	04aH
	DB	029H
	DB	04aH
	DB	049H
	DB	04aH
	DB	029H
	DB	04aH
	DB	049H
	DB	04aH
	DB	049H
	DB	04aH
	DB	029H
	DB	04aH
	DB	049H
	DB	04aH
	DB	049H
	DB	042H
	DB	029H
	DB	04aH
	DB	049H
	DB	04aH
	DB	028H
	DB	04aH
	DB	049H
	DB	04aH
	DB	049H
	DB	042H
	DB	049H
	DB	04aH
	DB	049H
	DB	04aH
	DB	048H
	DB	04aH
	DB	029H
	DB	04aH
	DB	049H
	DB	04aH
	DB	048H
	DB	04aH
	DB	049H
	DB	04aH
	DB	049H
	DB	042H
	DB	029H
	DB	04aH
	DB	049H
	DB	04aH
	DB	049H
	DB	04aH
	DB	048H
	DB	04aH
	DB	029H
	DB	04aH
	DB	049H
	DB	042H
	DB	049H
	DB	04aH
	DB	048H
	DB	04aH
	DB	049H
	DB	04aH
	DB	049H
	DB	04aH
	DB	049H
	DB	04aH
	DB	049H
	DB	04aH
	DB	029H
	DB	04aH
	DB	049H
	DB	04aH
	DB	049H
	DB	042H
	DB	029H
	DB	04aH
	DB	049H
	DB	04aH
	DB	049H
	DB	04aH
	DB	029H
	DB	042H
	DB	029H
	DB	04aH
	DB	049H
	DB	04aH
	DB	048H
	DB	04aH
	DB	049H
	DB	04aH
	DB	049H
	DB	04aH
	DB	049H
	DB	04aH
	DB	029H
	DB	042H
	DB	049H
	DB	04aH
	DB	049H
	DB	04aH
	DB	029H
	DB	04aH
	DB	049H
	DB	04aH
	DB	048H
	DB	04aH
	DB	029H
	DB	04aH
	DB	049H
	DB	04aH
	DB	049H
	DB	04aH
	DB	029H
	DB	042H
	DB	049H
	DB	04aH
	DB	049H
	DB	04aH
	DB	049H
	DB	042H
	DB	049H
	DB	04aH
	DB	049H
	DB	04aH
	DB	049H
	DB	042H
	DB	049H
	DB	04aH
	DB	029H
	DB	04aH
	DB	049H
	DB	04aH
	DB	029H
	DB	04aH
	DB	049H
	DB	04aH
	DB	049H
	DB	04aH
	DB	049H
	DB	042H
	DB	049H
	DB	04aH
	DB	029H
	DB	04aH
	DB	049H
	DB	04aH
	DB	049H
	DB	04aH
	DB	029H
	DB	04aH
	DB	049H
	DB	04aH
	DB	049H
	DB	04aH
	DB	0efH
	DB	07bH
	DB	0efH
	DB	07bH
	DB	049H
	DB	04aH
	DB	029H
	DB	04aH
	DB	049H
	DB	04aH
	DB	049H
	DB	04aH
	DB	049H
	DB	04aH
	DB	049H
	DB	04aH
	DB	028H
	DB	04aH
	DB	049H
	DB	042H
	DB	049H
	DB	04aH
	DB	049H
	DB	04aH
	DB	049H
	DB	04aH
	DB	049H
	DB	04aH
	DB	029H
	DB	04aH
	DB	049H
	DB	04aH
	DB	049H
	DB	04aH
	DB	049H
	DB	042H
	DB	048H
	DB	04aH
	DB	049H
	DB	04aH
	DB	049H
	DB	04aH
	DB	048H
	DB	04aH
	DB	029H
	DB	04aH
	DB	049H
	DB	042H
	DB	029H
	DB	04aH
	DB	029H
	DB	04aH
	DB	049H
	DB	04aH
	DB	029H
	DB	04aH
	DB	029H
	DB	04aH
	DB	049H
	DB	04aH
	DB	049H
	DB	04aH
	DB	049H
	DB	042H
	DB	049H
	DB	04aH
	DB	048H
	DB	04aH
	DB	049H
	DB	04aH
	DB	049H
	DB	04aH
	DB	048H
	DB	042H
	DB	029H
	DB	04aH
	DB	049H
	DB	04aH
	DB	048H
	DB	042H
	DB	049H
	DB	04aH
	DB	049H
	DB	04aH
	DB	048H
	DB	04aH
	DB	049H
	DB	04aH
	DB	029H
	DB	04aH
	DB	049H
	DB	04aH
	DB	049H
	DB	04aH
	DB	049H
	DB	042H
	DB	029H
	DB	04aH
	DB	049H
	DB	04aH
	DB	049H
	DB	04aH
	DB	029H
	DB	04aH
	DB	049H
	DB	04aH
	DB	049H
	DB	04aH
	DB	049H
	DB	04aH
	DB	028H
	DB	04aH
	DB	049H
	DB	04aH
	DB	049H
	DB	04aH
	DB	028H
	DB	04aH
	DB	049H
	DB	042H
	DB	049H
	DB	04aH
	DB	049H
	DB	04aH
	DB	049H
	DB	04aH
	DB	049H
	DB	04aH
	DB	029H
	DB	04aH
	DB	049H
	DB	04aH
	DB	029H
	DB	04aH
	DB	029H
	DB	04aH
	DB	048H
	DB	042H
	DB	049H
	DB	04aH
	DB	029H
	DB	04aH
	DB	048H
	DB	04aH
	DB	049H
	DB	04aH
	DB	029H
	DB	042H
	DB	049H
	DB	04aH
	DB	049H
	DB	04aH
	DB	029H
	DB	042H
	DB	049H
	DB	04aH
	DB	049H
	DB	04aH
	DB	048H
	DB	04aH
	DB	049H
	DB	042H
	DB	029H
	DB	04aH
	DB	049H
	DB	04aH
	DB	049H
	DB	04aH
	DB	029H
	DB	04aH
	DB	049H
	DB	04aH
	DB	049H
	DB	04aH
	DB	029H
	DB	042H
	DB	049H
	DB	04aH
	DB	049H
	DB	04aH
	DB	049H
	DB	042H
	DB	029H
	DB	04aH
	DB	049H
	DB	04aH
	DB	049H
	DB	042H
	DB	048H
	DB	04aH
	DB	049H
	DB	04aH
	DB	049H
	DB	04aH
	DB	049H
	DB	04aH
	DB	029H
	DB	04aH
	DB	049H
	DB	04aH
	DB	049H
	DB	04aH
	DB	029H
	DB	04aH
	DB	049H
	DB	04aH
	DB	049H
	DB	04aH
	DB	029H
	DB	042H
	DB	049H
	DB	04aH
	DB	049H
	DB	04aH
	DB	029H
	DB	042H
	DB	049H
	DB	04aH
	DB	049H
	DB	04aH
	DB	028H
	DB	04aH
	DB	049H
	DB	04aH
	DB	049H
	DB	04aH
	DB	049H
	DB	04aH
	DB	049H
	DB	04aH
	DB	029H
	DB	04aH
	DB	049H
	DB	04aH
	DB	049H
	DB	04aH
	DB	029H
	DB	04aH
	DB	029H
	DB	04aH
	DB	048H
	DB	042H
	DB	049H
	DB	04aH
	DB	049H
	DB	04aH
	DB	048H
	DB	04aH
	DB	049H
	DB	04aH
	DB	049H
	DB	04aH
	DB	049H
	DB	04aH
	DB	049H
	DB	04aH
	DB	048H
	DB	04aH
	DB	049H
	DB	04aH
	DB	029H
	DB	04aH
	DB	049H
	DB	042H
	DB	049H
	DB	04aH
	DB	029H
	DB	04aH
	DB	049H
	DB	04aH
	DB	049H
	DB	04aH
	DB	049H
	DB	04aH
	DB	049H
	DB	04aH
	DB	049H
	DB	04aH
	DB	049H
	DB	04aH
	DB	049H
	DB	04aH
	DB	049H
	DB	04aH
	DB	048H
	DB	04aH
	DB	049H
	DB	04aH
	DB	049H
	DB	04aH
	DB	028H
	DB	04aH
	DB	049H
	DB	04aH
	DB	049H
	DB	04aH
	DB	029H
	DB	04aH
	DB	049H
	DB	04aH
	DB	048H
	DB	04aH
	DB	049H
	DB	04aH
	DB	049H
	DB	04aH
	DB	048H
	DB	042H
	DB	029H
	DB	04aH
	DB	049H
	DB	04aH
	DB	048H
	DB	04aH
	DB	029H
	DB	04aH
	DB	049H
	DB	04aH
	DB	049H
	DB	04aH
	DB	048H
	DB	042H
	DB	049H
	DB	04aH
	DB	029H
	DB	04aH
	DB	049H
	DB	04aH
	DB	049H
	DB	04aH
	DB	0cfH
	DB	07bH
	DB	0efH
	DB	07bH
	DB	049H
	DB	04aH
	DB	049H
	DB	04aH
	DB	049H
	DB	04aH
	DB	029H
	DB	04aH
	DB	049H
	DB	04aH
	DB	049H
	DB	04aH
	DB	049H
	DB	04aH
	DB	029H
	DB	04aH
	DB	049H
	DB	04aH
	DB	029H
	DB	042H
	DB	049H
	DB	04aH
	DB	049H
	DB	04aH
	DB	049H
	DB	04aH
	DB	029H
	DB	04aH
	DB	049H
	DB	04aH
	DB	049H
	DB	04aH
	DB	029H
	DB	04aH
	DB	049H
	DB	042H
	DB	049H
	DB	04aH
	DB	029H
	DB	04aH
	DB	049H
	DB	04aH
	DB	049H
	DB	04aH
	DB	049H
	DB	04aH
	DB	049H
	DB	04aH
	DB	049H
	DB	042H
	DB	049H
	DB	04aH
	DB	049H
	DB	04aH
	DB	049H
	DB	04aH
	DB	029H
	DB	04aH
	DB	049H
	DB	04aH
	DB	029H
	DB	04aH
	DB	049H
	DB	042H
	DB	029H
	DB	04aH
	DB	049H
	DB	04aH
	DB	049H
	DB	04aH
	DB	049H
	DB	04aH
	DB	029H
	DB	04aH
	DB	049H
	DB	04aH
	DB	029H
	DB	04aH
	DB	049H
	DB	04aH
	DB	049H
	DB	04aH
	DB	049H
	DB	04aH
	DB	049H
	DB	04aH
	DB	048H
	DB	04aH
	DB	049H
	DB	04aH
	DB	049H
	DB	04aH
	DB	048H
	DB	04aH
	DB	049H
	DB	04aH
	DB	049H
	DB	04aH
	DB	048H
	DB	04aH
	DB	029H
	DB	042H
	DB	049H
	DB	04aH
	DB	049H
	DB	04aH
	DB	049H
	DB	042H
	DB	049H
	DB	04aH
	DB	049H
	DB	04aH
	DB	049H
	DB	04aH
	DB	029H
	DB	04aH
	DB	049H
	DB	04aH
	DB	048H
	DB	04aH
	DB	029H
	DB	04aH
	DB	049H
	DB	04aH
	DB	048H
	DB	042H
	DB	049H
	DB	04aH
	DB	049H
	DB	04aH
	DB	049H
	DB	04aH
	DB	049H
	DB	04aH
	DB	029H
	DB	04aH
	DB	049H
	DB	04aH
	DB	049H
	DB	042H
	DB	049H
	DB	04aH
	DB	029H
	DB	04aH
	DB	048H
	DB	04aH
	DB	049H
	DB	04aH
	DB	049H
	DB	04aH
	DB	049H
	DB	04aH
	DB	029H
	DB	04aH
	DB	049H
	DB	04aH
	DB	049H
	DB	04aH
	DB	049H
	DB	04aH
	DB	048H
	DB	042H
	DB	049H
	DB	04aH
	DB	029H
	DB	04aH
	DB	049H
	DB	042H
	DB	049H
	DB	04aH
	DB	029H
	DB	04aH
	DB	049H
	DB	04aH
	DB	049H
	DB	04aH
	DB	048H
	DB	04aH
	DB	049H
	DB	04aH
	DB	029H
	DB	04aH
	DB	049H
	DB	04aH
	DB	029H
	DB	04aH
	DB	049H
	DB	04aH
	DB	048H
	DB	04aH
	DB	049H
	DB	04aH
	DB	049H
	DB	042H
	DB	049H
	DB	04aH
	DB	049H
	DB	04aH
	DB	028H
	DB	04aH
	DB	049H
	DB	04aH
	DB	049H
	DB	04aH
	DB	029H
	DB	04aH
	DB	049H
	DB	04aH
	DB	049H
	DB	04aH
	DB	029H
	DB	04aH
	DB	049H
	DB	04aH
	DB	049H
	DB	04aH
	DB	049H
	DB	04aH
	DB	029H
	DB	042H
	DB	049H
	DB	04aH
	DB	049H
	DB	04aH
	DB	029H
	DB	042H
	DB	048H
	DB	04aH
	DB	049H
	DB	04aH
	DB	049H
	DB	04aH
	DB	049H
	DB	04aH
	DB	049H
	DB	04aH
	DB	029H
	DB	04aH
	DB	049H
	DB	04aH
	DB	029H
	DB	04aH
	DB	049H
	DB	04aH
	DB	029H
	DB	04aH
	DB	048H
	DB	04aH
	DB	029H
	DB	042H
	DB	049H
	DB	04aH
	DB	049H
	DB	04aH
	DB	049H
	DB	04aH
	DB	049H
	DB	04aH
	DB	029H
	DB	04aH
	DB	049H
	DB	04aH
	DB	048H
	DB	04aH
	DB	029H
	DB	042H
	DB	049H
	DB	04aH
	DB	028H
	DB	04aH
	DB	049H
	DB	04aH
	DB	029H
	DB	042H
	DB	048H
	DB	04aH
	DB	029H
	DB	04aH
	DB	049H
	DB	042H
	DB	029H
	DB	04aH
	DB	049H
	DB	04aH
	DB	049H
	DB	04aH
	DB	049H
	DB	04aH
	DB	029H
	DB	04aH
	DB	048H
	DB	04aH
	DB	049H
	DB	04aH
	DB	029H
	DB	04aH
	DB	029H
	DB	04aH
	DB	049H
	DB	04aH
	DB	049H
	DB	04aH
	DB	049H
	DB	04aH
	DB	049H
	DB	04aH
	DB	049H
	DB	04aH
	DB	029H
	DB	04aH
	DB	049H
	DB	04aH
	DB	049H
	DB	04aH
	DB	029H
	DB	04aH
	DB	049H
	DB	04aH
	DB	049H
	DB	04aH
	DB	049H
	DB	042H
	DB	049H
	DB	04aH
	DB	049H
	DB	04aH
	DB	0efH
	DB	07bH
	DB	0efH
	DB	07bH
	DB	049H
	DB	04aH
	DB	049H
	DB	04aH
	DB	029H
	DB	04aH
	DB	049H
	DB	04aH
	DB	028H
	DB	04aH
	DB	049H
	DB	042H
	DB	049H
	DB	04aH
	DB	049H
	DB	04aH
	DB	048H
	DB	04aH
	DB	029H
	DB	04aH
	DB	049H
	DB	04aH
	DB	048H
	DB	04aH
	DB	049H
	DB	042H
	DB	029H
	DB	04aH
	DB	048H
	DB	04aH
	DB	049H
	DB	04aH
	DB	029H
	DB	04aH
	DB	049H
	DB	04aH
	DB	049H
	DB	04aH
	DB	049H
	DB	04aH
	DB	048H
	DB	04aH
	DB	049H
	DB	04aH
	DB	049H
	DB	04aH
	DB	048H
	DB	04aH
	DB	049H
	DB	04aH
	DB	049H
	DB	04aH
	DB	048H
	DB	04aH
	DB	029H
	DB	042H
	DB	049H
	DB	04aH
	DB	048H
	DB	04aH
	DB	049H
	DB	04aH
	DB	029H
	DB	04aH
	DB	049H
	DB	04aH
	DB	049H
	DB	04aH
	DB	029H
	DB	04aH
	DB	049H
	DB	04aH
	DB	049H
	DB	04aH
	DB	049H
	DB	04aH
	DB	029H
	DB	04aH
	DB	049H
	DB	042H
	DB	029H
	DB	04aH
	DB	029H
	DB	04aH
	DB	049H
	DB	042H
	DB	029H
	DB	04aH
	DB	029H
	DB	04aH
	DB	049H
	DB	04aH
	DB	029H
	DB	04aH
	DB	049H
	DB	042H
	DB	049H
	DB	04aH
	DB	029H
	DB	04aH
	DB	049H
	DB	04aH
	DB	049H
	DB	04aH
	DB	028H
	DB	04aH
	DB	049H
	DB	04aH
	DB	029H
	DB	04aH
	DB	049H
	DB	04aH
	DB	049H
	DB	04aH
	DB	049H
	DB	04aH
	DB	029H
	DB	04aH
	DB	049H
	DB	042H
	DB	049H
	DB	04aH
	DB	029H
	DB	04aH
	DB	049H
	DB	04aH
	DB	049H
	DB	04aH
	DB	049H
	DB	04aH
	DB	049H
	DB	042H
	DB	049H
	DB	04aH
	DB	049H
	DB	04aH
	DB	049H
	DB	04aH
	DB	049H
	DB	04aH
	DB	049H
	DB	04aH
	DB	049H
	DB	04aH
	DB	029H
	DB	04aH
	DB	049H
	DB	04aH
	DB	049H
	DB	04aH
	DB	028H
	DB	042H
	DB	049H
	DB	04aH
	DB	049H
	DB	04aH
	DB	029H
	DB	04aH
	DB	049H
	DB	04aH
	DB	049H
	DB	04aH
	DB	029H
	DB	04aH
	DB	048H
	DB	04aH
	DB	049H
	DB	04aH
	DB	049H
	DB	04aH
	DB	048H
	DB	04aH
	DB	029H
	DB	04aH
	DB	049H
	DB	04aH
	DB	049H
	DB	04aH
	DB	029H
	DB	04aH
	DB	048H
	DB	04aH
	DB	049H
	DB	04aH
	DB	049H
	DB	04aH
	DB	029H
	DB	042H
	DB	029H
	DB	04aH
	DB	049H
	DB	04aH
	DB	029H
	DB	04aH
	DB	048H
	DB	04aH
	DB	049H
	DB	04aH
	DB	049H
	DB	042H
	DB	049H
	DB	04aH
	DB	049H
	DB	04aH
	DB	048H
	DB	04aH
	DB	049H
	DB	04aH
	DB	049H
	DB	04aH
	DB	048H
	DB	04aH
	DB	049H
	DB	04aH
	DB	049H
	DB	04aH
	DB	029H
	DB	04aH
	DB	048H
	DB	04aH
	DB	049H
	DB	04aH
	DB	029H
	DB	04aH
	DB	049H
	DB	04aH
	DB	049H
	DB	04aH
	DB	029H
	DB	04aH
	DB	049H
	DB	042H
	DB	048H
	DB	04aH
	DB	049H
	DB	04aH
	DB	049H
	DB	04aH
	DB	049H
	DB	04aH
	DB	049H
	DB	042H
	DB	029H
	DB	04aH
	DB	049H
	DB	04aH
	DB	049H
	DB	04aH
	DB	029H
	DB	04aH
	DB	049H
	DB	04aH
	DB	029H
	DB	04aH
	DB	049H
	DB	042H
	DB	048H
	DB	04aH
	DB	049H
	DB	04aH
	DB	049H
	DB	04aH
	DB	049H
	DB	04aH
	DB	049H
	DB	04aH
	DB	049H
	DB	04aH
	DB	049H
	DB	04aH
	DB	029H
	DB	04aH
	DB	049H
	DB	04aH
	DB	049H
	DB	04aH
	DB	049H
	DB	04aH
	DB	029H
	DB	04aH
	DB	049H
	DB	04aH
	DB	049H
	DB	042H
	DB	029H
	DB	04aH
	DB	049H
	DB	04aH
	DB	049H
	DB	042H
	DB	049H
	DB	04aH
	DB	049H
	DB	04aH
	DB	049H
	DB	042H
	DB	049H
	DB	04aH
	DB	029H
	DB	04aH
	DB	049H
	DB	042H
	DB	029H
	DB	04aH
	DB	049H
	DB	04aH
	DB	049H
	DB	042H
	DB	049H
	DB	04aH
	DB	048H
	DB	04aH
	DB	049H
	DB	042H
	DB	029H
	DB	04aH
	DB	049H
	DB	04aH
	DB	049H
	DB	04aH
	DB	028H
	DB	04aH
	DB	049H
	DB	04aH
	DB	049H
	DB	04aH
	DB	0efH
	DB	07bH
	DB	0cfH
	DB	07bH
	DB	049H
	DB	04aH
	DB	049H
	DB	04aH
	DB	049H
	DB	04aH
	DB	049H
	DB	04aH
	DB	049H
	DB	04aH
	DB	029H
	DB	04aH
	DB	049H
	DB	04aH
	DB	049H
	DB	04aH
	DB	049H
	DB	04aH
	DB	049H
	DB	04aH
	DB	029H
	DB	04aH
	DB	049H
	DB	04aH
	DB	049H
	DB	04aH
	DB	049H
	DB	04aH
	DB	049H
	DB	042H
	DB	049H
	DB	04aH
	DB	049H
	DB	04aH
	DB	028H
	DB	04aH
	DB	049H
	DB	04aH
	DB	049H
	DB	042H
	DB	029H
	DB	04aH
	DB	029H
	DB	04aH
	DB	049H
	DB	042H
	DB	029H
	DB	04aH
	DB	029H
	DB	04aH
	DB	049H
	DB	04aH
	DB	049H
	DB	04aH
	DB	029H
	DB	04aH
	DB	049H
	DB	04aH
	DB	049H
	DB	04aH
	DB	049H
	DB	04aH
	DB	049H
	DB	04aH
	DB	048H
	DB	04aH
	DB	049H
	DB	042H
	DB	029H
	DB	04aH
	DB	048H
	DB	04aH
	DB	049H
	DB	042H
	DB	049H
	DB	04aH
	DB	048H
	DB	04aH
	DB	049H
	DB	04aH
	DB	049H
	DB	04aH
	DB	048H
	DB	04aH
	DB	049H
	DB	04aH
	DB	049H
	DB	04aH
	DB	049H
	DB	04aH
	DB	049H
	DB	042H
	DB	029H
	DB	04aH
	DB	049H
	DB	04aH
	DB	049H
	DB	04aH
	DB	049H
	DB	04aH
	DB	049H
	DB	04aH
	DB	049H
	DB	04aH
	DB	049H
	DB	04aH
	DB	029H
	DB	04aH
	DB	049H
	DB	042H
	DB	048H
	DB	04aH
	DB	029H
	DB	04aH
	DB	049H
	DB	042H
	DB	048H
	DB	04aH
	DB	049H
	DB	04aH
	DB	049H
	DB	04aH
	DB	049H
	DB	04aH
	DB	029H
	DB	04aH
	DB	049H
	DB	04aH
	DB	028H
	DB	04aH
	DB	029H
	DB	04aH
	DB	049H
	DB	04aH
	DB	028H
	DB	04aH
	DB	049H
	DB	04aH
	DB	029H
	DB	04aH
	DB	048H
	DB	04aH
	DB	049H
	DB	042H
	DB	049H
	DB	04aH
	DB	029H
	DB	04aH
	DB	049H
	DB	04aH
	DB	049H
	DB	04aH
	DB	049H
	DB	04aH
	DB	049H
	DB	04aH
	DB	028H
	DB	042H
	DB	049H
	DB	04aH
	DB	049H
	DB	04aH
	DB	029H
	DB	04aH
	DB	049H
	DB	04aH
	DB	049H
	DB	04aH
	DB	029H
	DB	04aH
	DB	049H
	DB	04aH
	DB	049H
	DB	042H
	DB	049H
	DB	04aH
	DB	029H
	DB	04aH
	DB	049H
	DB	042H
	DB	049H
	DB	04aH
	DB	049H
	DB	04aH
	DB	049H
	DB	04aH
	DB	049H
	DB	04aH
	DB	049H
	DB	04aH
	DB	049H
	DB	04aH
	DB	049H
	DB	04aH
	DB	029H
	DB	04aH
	DB	049H
	DB	04aH
	DB	029H
	DB	04aH
	DB	049H
	DB	04aH
	DB	029H
	DB	042H
	DB	049H
	DB	04aH
	DB	029H
	DB	04aH
	DB	049H
	DB	042H
	DB	049H
	DB	04aH
	DB	029H
	DB	04aH
	DB	049H
	DB	042H
	DB	049H
	DB	04aH
	DB	049H
	DB	04aH
	DB	049H
	DB	04aH
	DB	049H
	DB	04aH
	DB	048H
	DB	04aH
	DB	049H
	DB	04aH
	DB	029H
	DB	04aH
	DB	049H
	DB	04aH
	DB	029H
	DB	04aH
	DB	029H
	DB	042H
	DB	049H
	DB	04aH
	DB	048H
	DB	04aH
	DB	049H
	DB	04aH
	DB	049H
	DB	04aH
	DB	049H
	DB	04aH
	DB	049H
	DB	042H
	DB	049H
	DB	04aH
	DB	048H
	DB	04aH
	DB	049H
	DB	04aH
	DB	029H
	DB	04aH
	DB	049H
	DB	04aH
	DB	029H
	DB	042H
	DB	049H
	DB	04aH
	DB	029H
	DB	04aH
	DB	049H
	DB	04aH
	DB	049H
	DB	04aH
	DB	049H
	DB	042H
	DB	048H
	DB	04aH
	DB	049H
	DB	04aH
	DB	049H
	DB	04aH
	DB	049H
	DB	04aH
	DB	049H
	DB	04aH
	DB	048H
	DB	04aH
	DB	049H
	DB	04aH
	DB	029H
	DB	04aH
	DB	048H
	DB	04aH
	DB	049H
	DB	04aH
	DB	029H
	DB	04aH
	DB	049H
	DB	04aH
	DB	048H
	DB	04aH
	DB	049H
	DB	04aH
	DB	049H
	DB	04aH
	DB	048H
	DB	04aH
	DB	029H
	DB	04aH
	DB	049H
	DB	04aH
	DB	048H
	DB	04aH
	DB	029H
	DB	04aH
	DB	049H
	DB	04aH
	DB	049H
	DB	04aH
	DB	049H
	DB	04aH
	DB	028H
	DB	04aH
	DB	049H
	DB	04aH
	DB	049H
	DB	04aH
	DB	029H
	DB	04aH
	DB	049H
	DB	04aH
	DB	0efH
	DB	07bH
	DB	0efH
	DB	07bH
	DB	049H
	DB	04aH
	DB	049H
	DB	04aH
	DB	029H
	DB	04aH
	DB	049H
	DB	04aH
	DB	049H
	DB	04aH
	DB	049H
	DB	04aH
	DB	028H
	DB	042H
	DB	049H
	DB	04aH
	DB	029H
	DB	04aH
	DB	049H
	DB	042H
	DB	049H
	DB	04aH
	DB	029H
	DB	04aH
	DB	048H
	DB	04aH
	DB	029H
	DB	04aH
	DB	049H
	DB	04aH
	DB	049H
	DB	04aH
	DB	029H
	DB	04aH
	DB	049H
	DB	042H
	DB	049H
	DB	04aH
	DB	049H
	DB	04aH
	DB	049H
	DB	04aH
	DB	049H
	DB	04aH
	DB	049H
	DB	04aH
	DB	049H
	DB	04aH
	DB	049H
	DB	04aH
	DB	049H
	DB	042H
	DB	049H
	DB	04aH
	DB	048H
	DB	04aH
	DB	029H
	DB	04aH
	DB	049H
	DB	042H
	DB	029H
	DB	04aH
	DB	049H
	DB	04aH
	DB	049H
	DB	04aH
	DB	029H
	DB	04aH
	DB	049H
	DB	04aH
	DB	049H
	DB	04aH
	DB	029H
	DB	04aH
	DB	049H
	DB	04aH
	DB	049H
	DB	04aH
	DB	029H
	DB	04aH
	DB	049H
	DB	04aH
	DB	049H
	DB	04aH
	DB	049H
	DB	04aH
	DB	048H
	DB	04aH
	DB	049H
	DB	04aH
	DB	049H
	DB	04aH
	DB	048H
	DB	04aH
	DB	029H
	DB	04aH
	DB	049H
	DB	04aH
	DB	048H
	DB	042H
	DB	029H
	DB	04aH
	DB	049H
	DB	04aH
	DB	049H
	DB	042H
	DB	049H
	DB	04aH
	DB	049H
	DB	04aH
	DB	049H
	DB	04aH
	DB	029H
	DB	04aH
	DB	049H
	DB	04aH
	DB	049H
	DB	04aH
	DB	029H
	DB	04aH
	DB	049H
	DB	04aH
	DB	048H
	DB	042H
	DB	049H
	DB	04aH
	DB	049H
	DB	04aH
	DB	049H
	DB	042H
	DB	049H
	DB	04aH
	DB	049H
	DB	04aH
	DB	049H
	DB	042H
	DB	029H
	DB	04aH
	DB	049H
	DB	04aH
	DB	049H
	DB	04aH
	DB	029H
	DB	04aH
	DB	049H
	DB	04aH
	DB	048H
	DB	04aH
	DB	049H
	DB	042H
	DB	029H
	DB	04aH
	DB	049H
	DB	04aH
	DB	049H
	DB	04aH
	DB	049H
	DB	04aH
	DB	049H
	DB	04aH
	DB	049H
	DB	04aH
	DB	049H
	DB	042H
	DB	049H
	DB	04aH
	DB	049H
	DB	04aH
	DB	029H
	DB	042H
	DB	049H
	DB	04aH
	DB	048H
	DB	04aH
	DB	049H
	DB	04aH
	DB	049H
	DB	04aH
	DB	049H
	DB	04aH
	DB	029H
	DB	04aH
	DB	049H
	DB	04aH
	DB	028H
	DB	042H
	DB	049H
	DB	04aH
	DB	049H
	DB	04aH
	DB	048H
	DB	04aH
	DB	049H
	DB	042H
	DB	049H
	DB	04aH
	DB	029H
	DB	04aH
	DB	049H
	DB	04aH
	DB	048H
	DB	04aH
	DB	049H
	DB	04aH
	DB	029H
	DB	04aH
	DB	049H
	DB	04aH
	DB	049H
	DB	04aH
	DB	029H
	DB	04aH
	DB	048H
	DB	04aH
	DB	049H
	DB	04aH
	DB	029H
	DB	04aH
	DB	049H
	DB	04aH
	DB	029H
	DB	042H
	DB	049H
	DB	04aH
	DB	049H
	DB	04aH
	DB	029H
	DB	042H
	DB	049H
	DB	04aH
	DB	049H
	DB	04aH
	DB	049H
	DB	04aH
	DB	049H
	DB	04aH
	DB	029H
	DB	04aH
	DB	049H
	DB	04aH
	DB	029H
	DB	04aH
	DB	049H
	DB	04aH
	DB	048H
	DB	04aH
	DB	029H
	DB	04aH
	DB	049H
	DB	04aH
	DB	049H
	DB	04aH
	DB	049H
	DB	04aH
	DB	049H
	DB	04aH
	DB	029H
	DB	04aH
	DB	049H
	DB	04aH
	DB	048H
	DB	04aH
	DB	049H
	DB	042H
	DB	029H
	DB	04aH
	DB	028H
	DB	04aH
	DB	049H
	DB	04aH
	DB	049H
	DB	04aH
	DB	029H
	DB	04aH
	DB	029H
	DB	042H
	DB	049H
	DB	04aH
	DB	049H
	DB	04aH
	DB	029H
	DB	042H
	DB	049H
	DB	04aH
	DB	049H
	DB	04aH
	DB	049H
	DB	04aH
	DB	049H
	DB	04aH
	DB	029H
	DB	04aH
	DB	049H
	DB	04aH
	DB	029H
	DB	04aH
	DB	029H
	DB	04aH
	DB	049H
	DB	04aH
	DB	049H
	DB	04aH
	DB	049H
	DB	04aH
	DB	049H
	DB	04aH
	DB	029H
	DB	04aH
	DB	049H
	DB	04aH
	DB	029H
	DB	04aH
	DB	049H
	DB	04aH
	DB	049H
	DB	042H
	DB	049H
	DB	04aH
	DB	049H
	DB	04aH
	DB	049H
	DB	042H
	DB	049H
	DB	04aH
	DB	049H
	DB	04aH
	DB	0efH
	DB	07bH
	DB	0efH
	DB	07bH
	DB	049H
	DB	04aH
	DB	049H
	DB	04aH
	DB	049H
	DB	04aH
	DB	029H
	DB	04aH
	DB	049H
	DB	04aH
	DB	049H
	DB	04aH
	DB	049H
	DB	04aH
	DB	049H
	DB	04aH
	DB	049H
	DB	04aH
	DB	048H
	DB	04aH
	DB	049H
	DB	04aH
	DB	049H
	DB	042H
	DB	049H
	DB	04aH
	DB	029H
	DB	04aH
	DB	049H
	DB	04aH
	DB	048H
	DB	04aH
	DB	029H
	DB	04aH
	DB	049H
	DB	04aH
	DB	049H
	DB	04aH
	DB	028H
	DB	04aH
	DB	049H
	DB	04aH
	DB	049H
	DB	04aH
	DB	028H
	DB	04aH
	DB	049H
	DB	04aH
	DB	049H
	DB	04aH
	DB	028H
	DB	04aH
	DB	049H
	DB	04aH
	DB	049H
	DB	04aH
	DB	049H
	DB	04aH
	DB	049H
	DB	04aH
	DB	048H
	DB	04aH
	DB	029H
	DB	04aH
	DB	049H
	DB	042H
	DB	049H
	DB	04aH
	DB	049H
	DB	04aH
	DB	049H
	DB	04aH
	DB	029H
	DB	04aH
	DB	049H
	DB	042H
	DB	049H
	DB	04aH
	DB	028H
	DB	04aH
	DB	049H
	DB	042H
	DB	029H
	DB	04aH
	DB	029H
	DB	04aH
	DB	049H
	DB	042H
	DB	029H
	DB	04aH
	DB	049H
	DB	04aH
	DB	049H
	DB	04aH
	DB	049H
	DB	04aH
	DB	029H
	DB	04aH
	DB	049H
	DB	04aH
	DB	049H
	DB	04aH
	DB	028H
	DB	04aH
	DB	049H
	DB	04aH
	DB	049H
	DB	04aH
	DB	028H
	DB	04aH
	DB	049H
	DB	04aH
	DB	049H
	DB	04aH
	DB	049H
	DB	04aH
	DB	049H
	DB	04aH
	DB	029H
	DB	04aH
	DB	049H
	DB	04aH
	DB	049H
	DB	04aH
	DB	029H
	DB	04aH
	DB	049H
	DB	04aH
	DB	049H
	DB	04aH
	DB	029H
	DB	04aH
	DB	048H
	DB	04aH
	DB	049H
	DB	04aH
	DB	049H
	DB	04aH
	DB	049H
	DB	04aH
	DB	049H
	DB	042H
	DB	029H
	DB	04aH
	DB	049H
	DB	04aH
	DB	049H
	DB	04aH
	DB	029H
	DB	04aH
	DB	049H
	DB	04aH
	DB	048H
	DB	04aH
	DB	029H
	DB	04aH
	DB	049H
	DB	04aH
	DB	029H
	DB	04aH
	DB	048H
	DB	04aH
	DB	029H
	DB	04aH
	DB	049H
	DB	04aH
	DB	048H
	DB	04aH
	DB	049H
	DB	04aH
	DB	029H
	DB	04aH
	DB	049H
	DB	04aH
	DB	029H
	DB	04aH
	DB	048H
	DB	04aH
	DB	049H
	DB	04aH
	DB	049H
	DB	04aH
	DB	049H
	DB	04aH
	DB	049H
	DB	04aH
	DB	029H
	DB	04aH
	DB	029H
	DB	04aH
	DB	049H
	DB	04aH
	DB	029H
	DB	04aH
	DB	049H
	DB	04aH
	DB	049H
	DB	042H
	DB	049H
	DB	04aH
	DB	049H
	DB	04aH
	DB	049H
	DB	04aH
	DB	049H
	DB	04aH
	DB	048H
	DB	042H
	DB	049H
	DB	04aH
	DB	049H
	DB	04aH
	DB	049H
	DB	04aH
	DB	049H
	DB	04aH
	DB	048H
	DB	04aH
	DB	029H
	DB	04aH
	DB	049H
	DB	04aH
	DB	048H
	DB	04aH
	DB	029H
	DB	04aH
	DB	049H
	DB	04aH
	DB	048H
	DB	04aH
	DB	049H
	DB	04aH
	DB	049H
	DB	04aH
	DB	048H
	DB	04aH
	DB	049H
	DB	04aH
	DB	049H
	DB	042H
	DB	029H
	DB	04aH
	DB	049H
	DB	04aH
	DB	049H
	DB	042H
	DB	029H
	DB	04aH
	DB	049H
	DB	04aH
	DB	029H
	DB	042H
	DB	049H
	DB	04aH
	DB	048H
	DB	04aH
	DB	049H
	DB	04aH
	DB	049H
	DB	04aH
	DB	049H
	DB	04aH
	DB	049H
	DB	04aH
	DB	049H
	DB	04aH
	DB	049H
	DB	04aH
	DB	049H
	DB	04aH
	DB	029H
	DB	04aH
	DB	049H
	DB	04aH
	DB	048H
	DB	04aH
	DB	049H
	DB	04aH
	DB	029H
	DB	04aH
	DB	049H
	DB	04aH
	DB	049H
	DB	04aH
	DB	029H
	DB	04aH
	DB	049H
	DB	042H
	DB	048H
	DB	04aH
	DB	049H
	DB	04aH
	DB	049H
	DB	042H
	DB	049H
	DB	04aH
	DB	049H
	DB	04aH
	DB	048H
	DB	042H
	DB	029H
	DB	04aH
	DB	049H
	DB	04aH
	DB	049H
	DB	042H
	DB	049H
	DB	04aH
	DB	049H
	DB	04aH
	DB	048H
	DB	042H
	DB	029H
	DB	04aH
	DB	049H
	DB	04aH
	DB	029H
	DB	04aH
	DB	049H
	DB	04aH
	DB	029H
	DB	04aH
	DB	049H
	DB	04aH
	DB	049H
	DB	04aH
	DB	0cfH
	DB	07bH
	DB	0efH
	DB	07bH
	DB	049H
	DB	04aH
	DB	029H
	DB	04aH
	DB	049H
	DB	04aH
	DB	049H
	DB	04aH
	DB	028H
	DB	042H
	DB	049H
	DB	04aH
	DB	049H
	DB	04aH
	DB	029H
	DB	04aH
	DB	049H
	DB	04aH
	DB	029H
	DB	04aH
	DB	049H
	DB	04aH
	DB	049H
	DB	04aH
	DB	049H
	DB	04aH
	DB	049H
	DB	04aH
	DB	049H
	DB	042H
	DB	049H
	DB	04aH
	DB	049H
	DB	04aH
	DB	049H
	DB	04aH
	DB	029H
	DB	04aH
	DB	049H
	DB	042H
	DB	049H
	DB	04aH
	DB	029H
	DB	04aH
	DB	049H
	DB	042H
	DB	049H
	DB	04aH
	DB	029H
	DB	04aH
	DB	049H
	DB	04aH
	DB	029H
	DB	042H
	DB	049H
	DB	04aH
	DB	049H
	DB	04aH
	DB	029H
	DB	04aH
	DB	049H
	DB	04aH
	DB	049H
	DB	04aH
	DB	049H
	DB	04aH
	DB	028H
	DB	04aH
	DB	049H
	DB	04aH
	DB	049H
	DB	042H
	DB	048H
	DB	04aH
	DB	049H
	DB	04aH
	DB	049H
	DB	04aH
	DB	049H
	DB	04aH
	DB	049H
	DB	04aH
	DB	049H
	DB	04aH
	DB	049H
	DB	04aH
	DB	049H
	DB	04aH
	DB	029H
	DB	04aH
	DB	049H
	DB	04aH
	DB	049H
	DB	042H
	DB	028H
	DB	04aH
	DB	049H
	DB	04aH
	DB	049H
	DB	04aH
	DB	049H
	DB	04aH
	DB	029H
	DB	04aH
	DB	049H
	DB	04aH
	DB	049H
	DB	04aH
	DB	029H
	DB	042H
	DB	049H
	DB	04aH
	DB	049H
	DB	04aH
	DB	028H
	DB	042H
	DB	049H
	DB	04aH
	DB	049H
	DB	04aH
	DB	048H
	DB	042H
	DB	029H
	DB	04aH
	DB	049H
	DB	04aH
	DB	048H
	DB	04aH
	DB	029H
	DB	04aH
	DB	049H
	DB	04aH
	DB	049H
	DB	04aH
	DB	029H
	DB	04aH
	DB	049H
	DB	04aH
	DB	048H
	DB	04aH
	DB	029H
	DB	04aH
	DB	049H
	DB	04aH
	DB	048H
	DB	04aH
	DB	049H
	DB	04aH
	DB	049H
	DB	04aH
	DB	049H
	DB	042H
	DB	049H
	DB	04aH
	DB	029H
	DB	04aH
	DB	049H
	DB	042H
	DB	049H
	DB	04aH
	DB	029H
	DB	04aH
	DB	049H
	DB	04aH
	DB	049H
	DB	04aH
	DB	029H
	DB	04aH
	DB	049H
	DB	04aH
	DB	049H
	DB	04aH
	DB	049H
	DB	042H
	DB	049H
	DB	04aH
	DB	029H
	DB	04aH
	DB	049H
	DB	042H
	DB	029H
	DB	04aH
	DB	048H
	DB	04aH
	DB	049H
	DB	04aH
	DB	049H
	DB	04aH
	DB	049H
	DB	042H
	DB	049H
	DB	04aH
	DB	048H
	DB	04aH
	DB	029H
	DB	04aH
	DB	049H
	DB	04aH
	DB	048H
	DB	04aH
	DB	029H
	DB	04aH
	DB	029H
	DB	042H
	DB	049H
	DB	04aH
	DB	049H
	DB	04aH
	DB	029H
	DB	04aH
	DB	049H
	DB	04aH
	DB	029H
	DB	042H
	DB	049H
	DB	04aH
	DB	049H
	DB	04aH
	DB	049H
	DB	042H
	DB	049H
	DB	04aH
	DB	049H
	DB	04aH
	DB	049H
	DB	04aH
	DB	049H
	DB	04aH
	DB	029H
	DB	042H
	DB	049H
	DB	04aH
	DB	029H
	DB	04aH
	DB	049H
	DB	042H
	DB	049H
	DB	04aH
	DB	048H
	DB	04aH
	DB	049H
	DB	04aH
	DB	049H
	DB	04aH
	DB	049H
	DB	04aH
	DB	048H
	DB	04aH
	DB	049H
	DB	04aH
	DB	049H
	DB	04aH
	DB	029H
	DB	04aH
	DB	049H
	DB	042H
	DB	029H
	DB	04aH
	DB	049H
	DB	04aH
	DB	029H
	DB	04aH
	DB	049H
	DB	04aH
	DB	049H
	DB	04aH
	DB	049H
	DB	042H
	DB	029H
	DB	04aH
	DB	049H
	DB	04aH
	DB	049H
	DB	042H
	DB	049H
	DB	04aH
	DB	049H
	DB	04aH
	DB	048H
	DB	04aH
	DB	049H
	DB	04aH
	DB	049H
	DB	04aH
	DB	028H
	DB	04aH
	DB	049H
	DB	04aH
	DB	049H
	DB	04aH
	DB	029H
	DB	04aH
	DB	049H
	DB	04aH
	DB	048H
	DB	04aH
	DB	049H
	DB	04aH
	DB	029H
	DB	04aH
	DB	049H
	DB	04aH
	DB	049H
	DB	04aH
	DB	028H
	DB	04aH
	DB	049H
	DB	04aH
	DB	049H
	DB	04aH
	DB	049H
	DB	04aH
	DB	049H
	DB	04aH
	DB	049H
	DB	04aH
	DB	048H
	DB	04aH
	DB	029H
	DB	04aH
	DB	049H
	DB	04aH
	DB	049H
	DB	04aH
	DB	049H
	DB	04aH
	DB	0efH
	DB	07bH
	DB	0efH
	DB	07bH
	DB	049H
	DB	04aH
	DB	049H
	DB	04aH
	DB	049H
	DB	04aH
	DB	049H
	DB	04aH
	DB	049H
	DB	04aH
	DB	029H
	DB	04aH
	DB	049H
	DB	04aH
	DB	048H
	DB	042H
	DB	029H
	DB	04aH
	DB	049H
	DB	04aH
	DB	029H
	DB	042H
	DB	048H
	DB	04aH
	DB	029H
	DB	04aH
	DB	049H
	DB	04aH
	DB	028H
	DB	04aH
	DB	049H
	DB	04aH
	DB	049H
	DB	042H
	DB	028H
	DB	04aH
	DB	049H
	DB	04aH
	DB	049H
	DB	04aH
	DB	049H
	DB	04aH
	DB	049H
	DB	04aH
	DB	049H
	DB	04aH
	DB	048H
	DB	04aH
	DB	049H
	DB	04aH
	DB	049H
	DB	04aH
	DB	049H
	DB	04aH
	DB	029H
	DB	04aH
	DB	048H
	DB	042H
	DB	049H
	DB	04aH
	DB	029H
	DB	04aH
	DB	049H
	DB	042H
	DB	049H
	DB	04aH
	DB	049H
	DB	04aH
	DB	029H
	DB	04aH
	DB	049H
	DB	04aH
	DB	049H
	DB	04aH
	DB	029H
	DB	04aH
	DB	049H
	DB	04aH
	DB	049H
	DB	04aH
	DB	029H
	DB	04aH
	DB	048H
	DB	042H
	DB	049H
	DB	04aH
	DB	049H
	DB	04aH
	DB	048H
	DB	04aH
	DB	049H
	DB	04aH
	DB	049H
	DB	04aH
	DB	049H
	DB	04aH
	DB	049H
	DB	042H
	DB	049H
	DB	04aH
	DB	029H
	DB	04aH
	DB	049H
	DB	042H
	DB	049H
	DB	04aH
	DB	049H
	DB	04aH
	DB	049H
	DB	04aH
	DB	049H
	DB	04aH
	DB	029H
	DB	04aH
	DB	049H
	DB	04aH
	DB	049H
	DB	04aH
	DB	049H
	DB	04aH
	DB	029H
	DB	04aH
	DB	049H
	DB	04aH
	DB	049H
	DB	04aH
	DB	049H
	DB	042H
	DB	049H
	DB	04aH
	DB	049H
	DB	04aH
	DB	049H
	DB	042H
	DB	029H
	DB	04aH
	DB	049H
	DB	04aH
	DB	049H
	DB	042H
	DB	049H
	DB	04aH
	DB	049H
	DB	04aH
	DB	029H
	DB	042H
	DB	049H
	DB	04aH
	DB	049H
	DB	04aH
	DB	029H
	DB	04aH
	DB	049H
	DB	04aH
	DB	048H
	DB	04aH
	DB	049H
	DB	04aH
	DB	049H
	DB	04aH
	DB	049H
	DB	042H
	DB	049H
	DB	04aH
	DB	049H
	DB	04aH
	DB	049H
	DB	042H
	DB	028H
	DB	04aH
	DB	049H
	DB	04aH
	DB	049H
	DB	04aH
	DB	049H
	DB	04aH
	DB	049H
	DB	04aH
	DB	049H
	DB	04aH
	DB	029H
	DB	04aH
	DB	049H
	DB	042H
	DB	049H
	DB	04aH
	DB	029H
	DB	04aH
	DB	048H
	DB	04aH
	DB	049H
	DB	04aH
	DB	049H
	DB	04aH
	DB	049H
	DB	04aH
	DB	029H
	DB	04aH
	DB	049H
	DB	04aH
	DB	049H
	DB	04aH
	DB	049H
	DB	04aH
	DB	048H
	DB	04aH
	DB	029H
	DB	04aH
	DB	049H
	DB	04aH
	DB	048H
	DB	04aH
	DB	029H
	DB	04aH
	DB	049H
	DB	04aH
	DB	049H
	DB	04aH
	DB	029H
	DB	04aH
	DB	049H
	DB	04aH
	DB	029H
	DB	04aH
	DB	049H
	DB	042H
	DB	049H
	DB	04aH
	DB	049H
	DB	04aH
	DB	029H
	DB	04aH
	DB	049H
	DB	04aH
	DB	049H
	DB	04aH
	DB	029H
	DB	04aH
	DB	029H
	DB	04aH
	DB	049H
	DB	04aH
	DB	029H
	DB	04aH
	DB	049H
	DB	04aH
	DB	029H
	DB	04aH
	DB	049H
	DB	04aH
	DB	049H
	DB	04aH
	DB	048H
	DB	04aH
	DB	049H
	DB	04aH
	DB	049H
	DB	04aH
	DB	028H
	DB	042H
	DB	049H
	DB	04aH
	DB	029H
	DB	04aH
	DB	048H
	DB	04aH
	DB	049H
	DB	04aH
	DB	049H
	DB	04aH
	DB	048H
	DB	04aH
	DB	029H
	DB	04aH
	DB	049H
	DB	04aH
	DB	029H
	DB	04aH
	DB	049H
	DB	042H
	DB	049H
	DB	04aH
	DB	029H
	DB	04aH
	DB	049H
	DB	042H
	DB	049H
	DB	04aH
	DB	029H
	DB	04aH
	DB	049H
	DB	04aH
	DB	049H
	DB	04aH
	DB	029H
	DB	042H
	DB	049H
	DB	04aH
	DB	049H
	DB	04aH
	DB	049H
	DB	04aH
	DB	049H
	DB	04aH
	DB	029H
	DB	04aH
	DB	049H
	DB	042H
	DB	029H
	DB	04aH
	DB	029H
	DB	04aH
	DB	049H
	DB	04aH
	DB	049H
	DB	04aH
	DB	049H
	DB	042H
	DB	049H
	DB	04aH
	DB	049H
	DB	04aH
	DB	029H
	DB	04aH
	DB	049H
	DB	04aH
	DB	0efH
	DB	07bH
	DB	0efH
	DB	07bH
	DB	049H
	DB	04aH
	DB	029H
	DB	04aH
	DB	049H
	DB	04aH
	DB	049H
	DB	04aH
	DB	029H
	DB	04aH
	DB	049H
	DB	04aH
	DB	049H
	DB	04aH
	DB	049H
	DB	04aH
	DB	049H
	DB	04aH
	DB	049H
	DB	04aH
	DB	049H
	DB	04aH
	DB	049H
	DB	04aH
	DB	049H
	DB	04aH
	DB	029H
	DB	04aH
	DB	049H
	DB	04aH
	DB	049H
	DB	04aH
	DB	029H
	DB	04aH
	DB	049H
	DB	04aH
	DB	049H
	DB	04aH
	DB	029H
	DB	04aH
	DB	048H
	DB	04aH
	DB	029H
	DB	04aH
	DB	049H
	DB	04aH
	DB	029H
	DB	042H
	DB	049H
	DB	04aH
	DB	049H
	DB	04aH
	DB	049H
	DB	04aH
	DB	049H
	DB	04aH
	DB	049H
	DB	04aH
	DB	049H
	DB	04aH
	DB	049H
	DB	04aH
	DB	028H
	DB	04aH
	DB	049H
	DB	04aH
	DB	049H
	DB	04aH
	DB	049H
	DB	04aH
	DB	028H
	DB	04aH
	DB	049H
	DB	04aH
	DB	049H
	DB	042H
	DB	028H
	DB	04aH
	DB	049H
	DB	04aH
	DB	049H
	DB	04aH
	DB	029H
	DB	04aH
	DB	049H
	DB	04aH
	DB	029H
	DB	04aH
	DB	049H
	DB	042H
	DB	029H
	DB	04aH
	DB	049H
	DB	04aH
	DB	029H
	DB	04aH
	DB	049H
	DB	04aH
	DB	048H
	DB	04aH
	DB	049H
	DB	04aH
	DB	049H
	DB	04aH
	DB	028H
	DB	04aH
	DB	049H
	DB	04aH
	DB	049H
	DB	04aH
	DB	028H
	DB	04aH
	DB	049H
	DB	04aH
	DB	049H
	DB	04aH
	DB	049H
	DB	04aH
	DB	029H
	DB	04aH
	DB	049H
	DB	04aH
	DB	049H
	DB	04aH
	DB	029H
	DB	04aH
	DB	049H
	DB	04aH
	DB	029H
	DB	04aH
	DB	048H
	DB	04aH
	DB	049H
	DB	04aH
	DB	049H
	DB	04aH
	DB	028H
	DB	04aH
	DB	049H
	DB	04aH
	DB	049H
	DB	04aH
	DB	029H
	DB	04aH
	DB	049H
	DB	04aH
	DB	048H
	DB	04aH
	DB	029H
	DB	04aH
	DB	049H
	DB	04aH
	DB	049H
	DB	04aH
	DB	029H
	DB	04aH
	DB	049H
	DB	04aH
	DB	048H
	DB	04aH
	DB	029H
	DB	04aH
	DB	049H
	DB	04aH
	DB	048H
	DB	04aH
	DB	029H
	DB	04aH
	DB	049H
	DB	04aH
	DB	049H
	DB	04aH
	DB	029H
	DB	04aH
	DB	028H
	DB	04aH
	DB	049H
	DB	04aH
	DB	049H
	DB	04aH
	DB	048H
	DB	04aH
	DB	049H
	DB	04aH
	DB	029H
	DB	04aH
	DB	049H
	DB	04aH
	DB	049H
	DB	04aH
	DB	029H
	DB	04aH
	DB	049H
	DB	042H
	DB	049H
	DB	04aH
	DB	049H
	DB	04aH
	DB	049H
	DB	042H
	DB	049H
	DB	04aH
	DB	049H
	DB	04aH
	DB	029H
	DB	04aH
	DB	049H
	DB	04aH
	DB	049H
	DB	042H
	DB	049H
	DB	04aH
	DB	049H
	DB	04aH
	DB	049H
	DB	04aH
	DB	028H
	DB	04aH
	DB	049H
	DB	04aH
	DB	049H
	DB	04aH
	DB	048H
	DB	04aH
	DB	029H
	DB	04aH
	DB	049H
	DB	04aH
	DB	048H
	DB	04aH
	DB	049H
	DB	04aH
	DB	049H
	DB	04aH
	DB	048H
	DB	04aH
	DB	049H
	DB	04aH
	DB	049H
	DB	042H
	DB	049H
	DB	04aH
	DB	048H
	DB	04aH
	DB	029H
	DB	042H
	DB	049H
	DB	04aH
	DB	049H
	DB	04aH
	DB	029H
	DB	042H
	DB	049H
	DB	04aH
	DB	049H
	DB	04aH
	DB	049H
	DB	04aH
	DB	049H
	DB	04aH
	DB	049H
	DB	04aH
	DB	049H
	DB	04aH
	DB	029H
	DB	042H
	DB	049H
	DB	04aH
	DB	049H
	DB	04aH
	DB	029H
	DB	04aH
	DB	049H
	DB	04aH
	DB	049H
	DB	04aH
	DB	049H
	DB	04aH
	DB	029H
	DB	04aH
	DB	049H
	DB	04aH
	DB	049H
	DB	04aH
	DB	049H
	DB	04aH
	DB	049H
	DB	04aH
	DB	048H
	DB	04aH
	DB	049H
	DB	042H
	DB	049H
	DB	04aH
	DB	029H
	DB	04aH
	DB	049H
	DB	04aH
	DB	049H
	DB	04aH
	DB	028H
	DB	042H
	DB	049H
	DB	04aH
	DB	049H
	DB	04aH
	DB	049H
	DB	04aH
	DB	048H
	DB	04aH
	DB	049H
	DB	04aH
	DB	029H
	DB	04aH
	DB	048H
	DB	04aH
	DB	029H
	DB	04aH
	DB	049H
	DB	04aH
	DB	048H
	DB	04aH
	DB	049H
	DB	04aH
	DB	049H
	DB	04aH
	DB	0efH
	DB	07bH
	DB	0efH
	DB	07bH
	DB	049H
	DB	04aH
	DB	029H
	DB	04aH
	DB	049H
	DB	04aH
	DB	049H
	DB	04aH
	DB	048H
	DB	042H
	DB	049H
	DB	04aH
	DB	029H
	DB	04aH
	DB	049H
	DB	04aH
	DB	049H
	DB	04aH
	DB	028H
	DB	04aH
	DB	049H
	DB	04aH
	DB	049H
	DB	04aH
	DB	049H
	DB	042H
	DB	049H
	DB	04aH
	DB	049H
	DB	04aH
	DB	049H
	DB	04aH
	DB	049H
	DB	04aH
	DB	049H
	DB	04aH
	DB	049H
	DB	042H
	DB	049H
	DB	04aH
	DB	029H
	DB	04aH
	DB	049H
	DB	042H
	DB	049H
	DB	04aH
	DB	049H
	DB	04aH
	DB	029H
	DB	04aH
	DB	028H
	DB	04aH
	DB	049H
	DB	042H
	DB	029H
	DB	04aH
	DB	049H
	DB	04aH
	DB	049H
	DB	04aH
	DB	049H
	DB	04aH
	DB	049H
	DB	04aH
	DB	029H
	DB	04aH
	DB	049H
	DB	042H
	DB	049H
	DB	04aH
	DB	049H
	DB	04aH
	DB	049H
	DB	04aH
	DB	049H
	DB	04aH
	DB	029H
	DB	04aH
	DB	049H
	DB	04aH
	DB	049H
	DB	042H
	DB	049H
	DB	04aH
	DB	049H
	DB	04aH
	DB	049H
	DB	04aH
	DB	029H
	DB	04aH
	DB	048H
	DB	04aH
	DB	049H
	DB	04aH
	DB	029H
	DB	04aH
	DB	049H
	DB	04aH
	DB	029H
	DB	04aH
	DB	049H
	DB	04aH
	DB	049H
	DB	04aH
	DB	029H
	DB	042H
	DB	049H
	DB	04aH
	DB	049H
	DB	04aH
	DB	049H
	DB	042H
	DB	049H
	DB	04aH
	DB	028H
	DB	04aH
	DB	049H
	DB	042H
	DB	049H
	DB	04aH
	DB	048H
	DB	04aH
	DB	049H
	DB	042H
	DB	049H
	DB	04aH
	DB	048H
	DB	04aH
	DB	029H
	DB	04aH
	DB	049H
	DB	04aH
	DB	049H
	DB	04aH
	DB	029H
	DB	04aH
	DB	049H
	DB	04aH
	DB	049H
	DB	04aH
	DB	029H
	DB	04aH
	DB	048H
	DB	04aH
	DB	049H
	DB	04aH
	DB	049H
	DB	04aH
	DB	049H
	DB	042H
	DB	049H
	DB	04aH
	DB	048H
	DB	04aH
	DB	029H
	DB	042H
	DB	049H
	DB	04aH
	DB	049H
	DB	04aH
	DB	029H
	DB	04aH
	DB	049H
	DB	04aH
	DB	049H
	DB	04aH
	DB	049H
	DB	04aH
	DB	049H
	DB	042H
	DB	049H
	DB	04aH
	DB	049H
	DB	04aH
	DB	049H
	DB	042H
	DB	029H
	DB	04aH
	DB	049H
	DB	04aH
	DB	049H
	DB	04aH
	DB	029H
	DB	04aH
	DB	049H
	DB	04aH
	DB	049H
	DB	042H
	DB	049H
	DB	04aH
	DB	029H
	DB	04aH
	DB	048H
	DB	04aH
	DB	049H
	DB	04aH
	DB	029H
	DB	04aH
	DB	028H
	DB	04aH
	DB	049H
	DB	04aH
	DB	049H
	DB	04aH
	DB	049H
	DB	04aH
	DB	049H
	DB	04aH
	DB	029H
	DB	04aH
	DB	049H
	DB	04aH
	DB	049H
	DB	04aH
	DB	029H
	DB	042H
	DB	049H
	DB	04aH
	DB	049H
	DB	04aH
	DB	049H
	DB	042H
	DB	049H
	DB	04aH
	DB	029H
	DB	04aH
	DB	049H
	DB	04aH
	DB	049H
	DB	04aH
	DB	029H
	DB	042H
	DB	049H
	DB	04aH
	DB	029H
	DB	04aH
	DB	049H
	DB	04aH
	DB	049H
	DB	04aH
	DB	049H
	DB	04aH
	DB	049H
	DB	04aH
	DB	049H
	DB	04aH
	DB	049H
	DB	04aH
	DB	048H
	DB	04aH
	DB	029H
	DB	04aH
	DB	049H
	DB	04aH
	DB	029H
	DB	04aH
	DB	029H
	DB	04aH
	DB	049H
	DB	04aH
	DB	049H
	DB	04aH
	DB	049H
	DB	04aH
	DB	029H
	DB	04aH
	DB	048H
	DB	04aH
	DB	049H
	DB	04aH
	DB	049H
	DB	042H
	DB	049H
	DB	04aH
	DB	048H
	DB	04aH
	DB	049H
	DB	042H
	DB	029H
	DB	04aH
	DB	048H
	DB	04aH
	DB	049H
	DB	04aH
	DB	029H
	DB	04aH
	DB	049H
	DB	04aH
	DB	029H
	DB	04aH
	DB	049H
	DB	04aH
	DB	049H
	DB	04aH
	DB	048H
	DB	04aH
	DB	049H
	DB	04aH
	DB	029H
	DB	04aH
	DB	049H
	DB	04aH
	DB	049H
	DB	04aH
	DB	049H
	DB	04aH
	DB	029H
	DB	04aH
	DB	049H
	DB	04aH
	DB	049H
	DB	042H
	DB	049H
	DB	04aH
	DB	049H
	DB	04aH
	DB	049H
	DB	04aH
	DB	029H
	DB	042H
	DB	049H
	DB	04aH
	DB	049H
	DB	04aH
	DB	049H
	DB	04aH
	DB	0cfH
	DB	07bH
	DB	0efH
	DB	07bH
	DB	049H
	DB	04aH
	DB	049H
	DB	04aH
	DB	049H
	DB	04aH
	DB	029H
	DB	04aH
	DB	049H
	DB	04aH
	DB	049H
	DB	04aH
	DB	029H
	DB	042H
	DB	048H
	DB	04aH
	DB	049H
	DB	04aH
	DB	029H
	DB	042H
	DB	049H
	DB	04aH
	DB	029H
	DB	04aH
	DB	028H
	DB	04aH
	DB	049H
	DB	04aH
	DB	029H
	DB	042H
	DB	048H
	DB	04aH
	DB	029H
	DB	04aH
	DB	049H
	DB	04aH
	DB	048H
	DB	04aH
	DB	049H
	DB	04aH
	DB	049H
	DB	04aH
	DB	049H
	DB	04aH
	DB	048H
	DB	04aH
	DB	049H
	DB	04aH
	DB	049H
	DB	04aH
	DB	049H
	DB	04aH
	DB	049H
	DB	04aH
	DB	048H
	DB	04aH
	DB	029H
	DB	04aH
	DB	029H
	DB	042H
	DB	048H
	DB	04aH
	DB	049H
	DB	04aH
	DB	049H
	DB	04aH
	DB	028H
	DB	04aH
	DB	049H
	DB	04aH
	DB	029H
	DB	04aH
	DB	049H
	DB	042H
	DB	049H
	DB	04aH
	DB	049H
	DB	04aH
	DB	049H
	DB	04aH
	DB	028H
	DB	04aH
	DB	049H
	DB	04aH
	DB	049H
	DB	04aH
	DB	048H
	DB	04aH
	DB	049H
	DB	04aH
	DB	049H
	DB	042H
	DB	049H
	DB	04aH
	DB	049H
	DB	04aH
	DB	048H
	DB	042H
	DB	049H
	DB	04aH
	DB	029H
	DB	04aH
	DB	049H
	DB	04aH
	DB	049H
	DB	04aH
	DB	048H
	DB	04aH
	DB	029H
	DB	04aH
	DB	049H
	DB	04aH
	DB	049H
	DB	04aH
	DB	029H
	DB	04aH
	DB	049H
	DB	04aH
	DB	049H
	DB	04aH
	DB	029H
	DB	04aH
	DB	049H
	DB	04aH
	DB	049H
	DB	04aH
	DB	049H
	DB	04aH
	DB	049H
	DB	042H
	DB	049H
	DB	04aH
	DB	049H
	DB	04aH
	DB	049H
	DB	042H
	DB	049H
	DB	04aH
	DB	049H
	DB	04aH
	DB	049H
	DB	042H
	DB	049H
	DB	04aH
	DB	029H
	DB	04aH
	DB	049H
	DB	04aH
	DB	029H
	DB	04aH
	DB	049H
	DB	04aH
	DB	049H
	DB	04aH
	DB	049H
	DB	04aH
	DB	049H
	DB	04aH
	DB	049H
	DB	042H
	DB	049H
	DB	04aH
	DB	029H
	DB	04aH
	DB	049H
	DB	042H
	DB	049H
	DB	04aH
	DB	028H
	DB	04aH
	DB	049H
	DB	04aH
	DB	049H
	DB	04aH
	DB	049H
	DB	04aH
	DB	049H
	DB	04aH
	DB	049H
	DB	042H
	DB	029H
	DB	04aH
	DB	048H
	DB	04aH
	DB	049H
	DB	04aH
	DB	049H
	DB	04aH
	DB	028H
	DB	04aH
	DB	049H
	DB	04aH
	DB	049H
	DB	04aH
	DB	049H
	DB	04aH
	DB	049H
	DB	04aH
	DB	049H
	DB	04aH
	DB	029H
	DB	042H
	DB	049H
	DB	04aH
	DB	048H
	DB	04aH
	DB	029H
	DB	042H
	DB	049H
	DB	04aH
	DB	048H
	DB	04aH
	DB	029H
	DB	04aH
	DB	049H
	DB	04aH
	DB	049H
	DB	04aH
	DB	029H
	DB	04aH
	DB	048H
	DB	04aH
	DB	049H
	DB	04aH
	DB	049H
	DB	04aH
	DB	049H
	DB	04aH
	DB	029H
	DB	04aH
	DB	048H
	DB	04aH
	DB	049H
	DB	04aH
	DB	049H
	DB	04aH
	DB	029H
	DB	042H
	DB	028H
	DB	04aH
	DB	049H
	DB	04aH
	DB	029H
	DB	04aH
	DB	049H
	DB	04aH
	DB	049H
	DB	04aH
	DB	029H
	DB	04aH
	DB	049H
	DB	04aH
	DB	049H
	DB	04aH
	DB	048H
	DB	042H
	DB	049H
	DB	04aH
	DB	049H
	DB	04aH
	DB	028H
	DB	042H
	DB	049H
	DB	04aH
	DB	049H
	DB	04aH
	DB	029H
	DB	04aH
	DB	049H
	DB	04aH
	DB	029H
	DB	04aH
	DB	029H
	DB	04aH
	DB	049H
	DB	04aH
	DB	049H
	DB	04aH
	DB	049H
	DB	04aH
	DB	049H
	DB	04aH
	DB	029H
	DB	042H
	DB	048H
	DB	04aH
	DB	049H
	DB	04aH
	DB	049H
	DB	042H
	DB	029H
	DB	04aH
	DB	049H
	DB	04aH
	DB	049H
	DB	04aH
	DB	029H
	DB	042H
	DB	049H
	DB	04aH
	DB	049H
	DB	04aH
	DB	049H
	DB	04aH
	DB	028H
	DB	042H
	DB	049H
	DB	04aH
	DB	049H
	DB	04aH
	DB	029H
	DB	04aH
	DB	049H
	DB	04aH
	DB	049H
	DB	04aH
	DB	049H
	DB	04aH
	DB	029H
	DB	04aH
	DB	049H
	DB	04aH
	DB	049H
	DB	04aH
	DB	049H
	DB	04aH
	DB	0efH
	DB	07bH
	DB	0efH
	DB	07bH
	DB	049H
	DB	04aH
	DB	049H
	DB	04aH
	DB	049H
	DB	04aH
	DB	029H
	DB	04aH
	DB	049H
	DB	04aH
	DB	049H
	DB	04aH
	DB	049H
	DB	04aH
	DB	049H
	DB	04aH
	DB	049H
	DB	04aH
	DB	049H
	DB	04aH
	DB	049H
	DB	04aH
	DB	049H
	DB	04aH
	DB	049H
	DB	04aH
	DB	049H
	DB	04aH
	DB	049H
	DB	04aH
	DB	049H
	DB	04aH
	DB	029H
	DB	04aH
	DB	049H
	DB	042H
	DB	029H
	DB	04aH
	DB	029H
	DB	04aH
	DB	049H
	DB	04aH
	DB	029H
	DB	04aH
	DB	029H
	DB	04aH
	DB	049H
	DB	042H
	DB	049H
	DB	04aH
	DB	029H
	DB	04aH
	DB	049H
	DB	04aH
	DB	049H
	DB	04aH
	DB	049H
	DB	04aH
	DB	049H
	DB	04aH
	DB	029H
	DB	04aH
	DB	049H
	DB	042H
	DB	049H
	DB	04aH
	DB	049H
	DB	04aH
	DB	049H
	DB	04aH
	DB	029H
	DB	04aH
	DB	048H
	DB	04aH
	DB	049H
	DB	04aH
	DB	029H
	DB	04aH
	DB	049H
	DB	04aH
	DB	049H
	DB	04aH
	DB	029H
	DB	04aH
	DB	049H
	DB	042H
	DB	029H
	DB	04aH
	DB	049H
	DB	04aH
	DB	049H
	DB	04aH
	DB	029H
	DB	04aH
	DB	049H
	DB	04aH
	DB	049H
	DB	04aH
	DB	049H
	DB	04aH
	DB	049H
	DB	042H
	DB	028H
	DB	04aH
	DB	049H
	DB	04aH
	DB	049H
	DB	04aH
	DB	029H
	DB	04aH
	DB	049H
	DB	04aH
	DB	049H
	DB	04aH
	DB	049H
	DB	042H
	DB	049H
	DB	04aH
	DB	029H
	DB	04aH
	DB	049H
	DB	04aH
	DB	029H
	DB	04aH
	DB	049H
	DB	04aH
	DB	029H
	DB	04aH
	DB	049H
	DB	04aH
	DB	028H
	DB	04aH
	DB	029H
	DB	04aH
	DB	049H
	DB	04aH
	DB	028H
	DB	04aH
	DB	049H
	DB	04aH
	DB	049H
	DB	04aH
	DB	029H
	DB	04aH
	DB	049H
	DB	04aH
	DB	048H
	DB	042H
	DB	049H
	DB	04aH
	DB	029H
	DB	04aH
	DB	049H
	DB	04aH
	DB	029H
	DB	04aH
	DB	049H
	DB	04aH
	DB	048H
	DB	04aH
	DB	029H
	DB	04aH
	DB	049H
	DB	04aH
	DB	048H
	DB	04aH
	DB	029H
	DB	04aH
	DB	049H
	DB	04aH
	DB	029H
	DB	04aH
	DB	049H
	DB	04aH
	DB	028H
	DB	04aH
	DB	049H
	DB	04aH
	DB	049H
	DB	04aH
	DB	049H
	DB	04aH
	DB	049H
	DB	042H
	DB	049H
	DB	04aH
	DB	029H
	DB	04aH
	DB	049H
	DB	04aH
	DB	049H
	DB	042H
	DB	029H
	DB	04aH
	DB	049H
	DB	04aH
	DB	049H
	DB	042H
	DB	049H
	DB	04aH
	DB	049H
	DB	04aH
	DB	029H
	DB	04aH
	DB	049H
	DB	04aH
	DB	049H
	DB	04aH
	DB	049H
	DB	04aH
	DB	049H
