; Listing generated by Microsoft (R) Optimizing Compiler Version 19.28.29914.0 

	TITLE	D:\Oscilloscope\Project\Oscilloscope\Graphic\build\Debug\obj\counterbox.obj
	.686P
	.XMM
	include listing.inc
	.model	flat

INCLUDELIB MSVCRTD
INCLUDELIB OLDNAMES

PUBLIC	?_counterbox@@3QBEB				; _counterbox
PUBLIC	?_counterbox_alpha_channel@@3QBEB		; _counterbox_alpha_channel
CONST	SEGMENT
?_counterbox@@3QBEB DB 00H				; _counterbox
	DB	00H
	DB	00H
	DB	00H
	DB	0cfH
	DB	07bH
	DB	0cfH
	DB	07bH
	DB	0cfH
	DB	07bH
	DB	0cfH
	DB	07bH
	DB	0cfH
	DB	07bH
	DB	0cfH
	DB	07bH
	DB	0cfH
	DB	07bH
	DB	0cfH
	DB	07bH
	DB	0cfH
	DB	07bH
	DB	0cfH
	DB	07bH
	DB	0cfH
	DB	07bH
	DB	0cfH
	DB	07bH
	DB	0cfH
	DB	07bH
	DB	0cfH
	DB	07bH
	DB	0cfH
	DB	07bH
	DB	0cfH
	DB	07bH
	DB	0cfH
	DB	07bH
	DB	0cfH
	DB	07bH
	DB	0cfH
	DB	07bH
	DB	0cfH
	DB	07bH
	DB	0cfH
	DB	07bH
	DB	0cfH
	DB	07bH
	DB	0cfH
	DB	07bH
	DB	0cfH
	DB	07bH
	DB	0cfH
	DB	07bH
	DB	0cfH
	DB	07bH
	DB	0cfH
	DB	07bH
	DB	0cfH
	DB	07bH
	DB	0cfH
	DB	07bH
	DB	0cfH
	DB	07bH
	DB	0cfH
	DB	07bH
	DB	0cfH
	DB	07bH
	DB	0cfH
	DB	07bH
	DB	0cfH
	DB	07bH
	DB	0cfH
	DB	07bH
	DB	0cfH
	DB	07bH
	DB	0cfH
	DB	07bH
	DB	0cfH
	DB	07bH
	DB	0cfH
	DB	07bH
	DB	0cfH
	DB	07bH
	DB	0cfH
	DB	07bH
	DB	0cfH
	DB	07bH
	DB	0cfH
	DB	07bH
	DB	0cfH
	DB	07bH
	DB	0cfH
	DB	07bH
	DB	0cfH
	DB	07bH
	DB	0cfH
	DB	07bH
	DB	0cfH
	DB	07bH
	DB	0cfH
	DB	07bH
	DB	0cfH
	DB	07bH
	DB	0cfH
	DB	07bH
	DB	00H
	DB	00H
	DB	00H
	DB	00H
	DB	00H
	DB	00H
	DB	0cfH
	DB	07bH
	DB	0afH
	DB	07bH
	DB	0cfH
	DB	07bH
	DB	0afH
	DB	07bH
	DB	0cfH
	DB	07bH
	DB	0afH
	DB	07bH
	DB	0cfH
	DB	07bH
	DB	0afH
	DB	07bH
	DB	0cfH
	DB	07bH
	DB	0afH
	DB	07bH
	DB	0cfH
	DB	07bH
	DB	0afH
	DB	07bH
	DB	0cfH
	DB	07bH
	DB	0afH
	DB	07bH
	DB	0cfH
	DB	07bH
	DB	0afH
	DB	07bH
	DB	0cfH
	DB	07bH
	DB	0afH
	DB	07bH
	DB	0cfH
	DB	07bH
	DB	0afH
	DB	07bH
	DB	0cfH
	DB	07bH
	DB	0afH
	DB	07bH
	DB	0cfH
	DB	07bH
	DB	0afH
	DB	07bH
	DB	0cfH
	DB	07bH
	DB	0afH
	DB	07bH
	DB	0cfH
	DB	07bH
	DB	0afH
	DB	07bH
	DB	0cfH
	DB	07bH
	DB	0afH
	DB	07bH
	DB	0cfH
	DB	07bH
	DB	0afH
	DB	07bH
	DB	0cfH
	DB	07bH
	DB	0afH
	DB	07bH
	DB	0cfH
	DB	07bH
	DB	0afH
	DB	07bH
	DB	0cfH
	DB	07bH
	DB	0afH
	DB	07bH
	DB	0cfH
	DB	07bH
	DB	0afH
	DB	07bH
	DB	0cfH
	DB	07bH
	DB	0afH
	DB	07bH
	DB	0cfH
	DB	07bH
	DB	0afH
	DB	07bH
	DB	0cfH
	DB	07bH
	DB	0afH
	DB	07bH
	DB	0cfH
	DB	07bH
	DB	0afH
	DB	07bH
	DB	0cfH
	DB	07bH
	DB	0afH
	DB	07bH
	DB	0cfH
	DB	07bH
	DB	0cfH
	DB	07bH
	DB	0afH
	DB	07bH
	DB	00H
	DB	00H
	DB	0cfH
	DB	07bH
	DB	0cfH
	DB	07bH
	DB	0cfH
	DB	07bH
	DB	0b8H
	DB	01bH
	DB	0b8H
	DB	01bH
	DB	0b9H
	DB	01bH
	DB	0b8H
	DB	01bH
	DB	0b8H
	DB	01bH
	DB	0b9H
	DB	01bH
	DB	0b8H
	DB	01bH
	DB	0b8H
	DB	01bH
	DB	0b9H
	DB	01bH
	DB	0b8H
	DB	01bH
	DB	0b8H
	DB	01bH
	DB	0b8H
	DB	01bH
	DB	0b9H
	DB	01bH
	DB	0b8H
	DB	01bH
	DB	0b8H
	DB	01bH
	DB	0b9H
	DB	01bH
	DB	0b8H
	DB	01bH
	DB	0b8H
	DB	01bH
	DB	0b8H
	DB	01bH
	DB	0b9H
	DB	01bH
	DB	0b8H
	DB	01bH
	DB	0b8H
	DB	01bH
	DB	0b9H
	DB	01bH
	DB	0b8H
	DB	01bH
	DB	0b8H
	DB	01bH
	DB	0b8H
	DB	01bH
	DB	0b9H
	DB	01bH
	DB	0b8H
	DB	01bH
	DB	0b8H
	DB	01bH
	DB	0b9H
	DB	01bH
	DB	0b8H
	DB	01bH
	DB	0b8H
	DB	01bH
	DB	0b8H
	DB	01bH
	DB	0b9H
	DB	01bH
	DB	0b8H
	DB	01bH
	DB	0b8H
	DB	01bH
	DB	0b9H
	DB	01bH
	DB	0b8H
	DB	01bH
	DB	0b8H
	DB	01bH
	DB	0b8H
	DB	01bH
	DB	0b9H
	DB	01bH
	DB	0b8H
	DB	01bH
	DB	0b8H
	DB	01bH
	DB	0b9H
	DB	01bH
	DB	0b8H
	DB	01bH
	DB	0b8H
	DB	01bH
	DB	0b9H
	DB	01bH
	DB	0b8H
	DB	01bH
	DB	0b8H
	DB	01bH
	DB	0cfH
	DB	07bH
	DB	0cfH
	DB	07bH
	DB	0cfH
	DB	07bH
	DB	0cfH
	DB	07bH
	DB	0afH
	DB	07bH
	DB	0b8H
	DB	01bH
	DB	0b9H
	DB	01bH
	DB	0b9H
	DB	01bH
	DB	0b8H
	DB	01bH
	DB	0b9H
	DB	01bH
	DB	0b9H
	DB	01bH
	DB	0b8H
	DB	01bH
	DB	0b9H
	DB	01bH
	DB	0b9H
	DB	01bH
	DB	0b8H
	DB	01bH
	DB	0b9H
	DB	01bH
	DB	0b9H
	DB	01bH
	DB	0b9H
	DB	01bH
	DB	0b9H
	DB	01bH
	DB	0b8H
	DB	01bH
	DB	0b9H
	DB	01bH
	DB	0b9H
	DB	01bH
	DB	0b9H
	DB	01bH
	DB	0b9H
	DB	01bH
	DB	0b9H
	DB	01bH
	DB	0b8H
	DB	01bH
	DB	0b9H
	DB	01bH
	DB	0b9H
	DB	01bH
	DB	0b8H
	DB	01bH
	DB	0b9H
	DB	01bH
	DB	0b9H
	DB	01bH
	DB	0b9H
	DB	01bH
	DB	0b9H
	DB	01bH
	DB	0b8H
	DB	01bH
	DB	0b9H
	DB	01bH
	DB	0b9H
	DB	01bH
	DB	0b9H
	DB	01bH
	DB	0b9H
	DB	01bH
	DB	0b9H
	DB	01bH
	DB	0b8H
	DB	01bH
	DB	0b9H
	DB	01bH
	DB	0b9H
	DB	01bH
	DB	0b8H
	DB	01bH
	DB	0b9H
	DB	01bH
	DB	0b9H
	DB	01bH
	DB	0b9H
	DB	01bH
	DB	0b9H
	DB	01bH
	DB	0b8H
	DB	01bH
	DB	0b9H
	DB	01bH
	DB	0b9H
	DB	01bH
	DB	0b8H
	DB	01bH
	DB	0b9H
	DB	01bH
	DB	0b9H
	DB	01bH
	DB	0b8H
	DB	01bH
	DB	0b9H
	DB	01bH
	DB	0b9H
	DB	01bH
	DB	0cfH
	DB	07bH
	DB	0cfH
	DB	07bH
	DB	0cfH
	DB	07bH
	DB	0cfH
	DB	07bH
	DB	0b8H
	DB	01bH
	DB	0b9H
	DB	01bH
	DB	0b9H
	DB	01bH
	DB	0d8H
	DB	01bH
	DB	0b9H
	DB	01bH
	DB	0d9H
	DB	01bH
	DB	0b8H
	DB	01bH
	DB	0d9H
	DB	01bH
	DB	0b9H
	DB	01bH
	DB	0d8H
	DB	01bH
	DB	0b9H
	DB	01bH
	DB	0d9H
	DB	01bH
	DB	0b8H
	DB	01bH
	DB	0d9H
	DB	01bH
	DB	0b9H
	DB	01bH
	DB	0d8H
	DB	01bH
	DB	0b9H
	DB	01bH
	DB	0d8H
	DB	01bH
	DB	0b9H
	DB	01bH
	DB	0d9H
	DB	01bH
	DB	0b8H
	DB	01bH
	DB	0d9H
	DB	01bH
	DB	0b9H
	DB	01bH
	DB	0d8H
	DB	01bH
	DB	0b9H
	DB	01bH
	DB	0d9H
	DB	01bH
	DB	0b8H
	DB	01bH
	DB	0d9H
	DB	01bH
	DB	0b9H
	DB	01bH
	DB	0d8H
	DB	01bH
	DB	0b9H
	DB	01bH
	DB	0d8H
	DB	01bH
	DB	0b9H
	DB	01bH
	DB	0d9H
	DB	01bH
	DB	0b8H
	DB	01bH
	DB	0d9H
	DB	01bH
	DB	0b9H
	DB	01bH
	DB	0d8H
	DB	01bH
	DB	0b9H
	DB	01bH
	DB	0d9H
	DB	01bH
	DB	0b8H
	DB	01bH
	DB	0d9H
	DB	01bH
	DB	0b9H
	DB	01bH
	DB	0d8H
	DB	01bH
	DB	0b9H
	DB	01bH
	DB	0d9H
	DB	01bH
	DB	0b9H
	DB	01bH
	DB	0d8H
	DB	01bH
	DB	0b9H
	DB	01bH
	DB	0b9H
	DB	01bH
	DB	0b8H
	DB	01bH
	DB	0cfH
	DB	07bH
	DB	0cfH
	DB	07bH
	DB	0cfH
	DB	07bH
	DB	0cfH
	DB	07bH
	DB	0b9H
	DB	01bH
	DB	0b8H
	DB	01bH
	DB	0d9H
	DB	01bH
	DB	0b9H
	DB	01bH
	DB	0b8H
	DB	01bH
	DB	0b9H
	DB	01bH
	DB	0d9H
	DB	01bH
	DB	0b8H
	DB	01bH
	DB	0b9H
	DB	01bH
	DB	0b9H
	DB	01bH
	DB	0d8H
	DB	01bH
	DB	0b8H
	DB	01bH
	DB	0b9H
	DB	01bH
	DB	0b8H
	DB	01bH
	DB	0d9H
	DB	01bH
	DB	0b9H
	DB	01bH
	DB	0b8H
	DB	01bH
	DB	0b8H
	DB	01bH
	DB	0d9H
	DB	01bH
	DB	0b8H
	DB	01bH
	DB	0b9H
	DB	01bH
	DB	0b9H
	DB	01bH
	DB	0d8H
	DB	01bH
	DB	0b9H
	DB	01bH
	DB	0b9H
	DB	01bH
	DB	0b8H
	DB	01bH
	DB	0d8H
	DB	01bH
	DB	0b9H
	DB	01bH
	DB	0b9H
	DB	01bH
	DB	0b8H
	DB	01bH
	DB	0d8H
	DB	01bH
	DB	0b9H
	DB	01bH
	DB	0b8H
	DB	01bH
	DB	0b9H
	DB	01bH
	DB	0d9H
	DB	01bH
	DB	0b8H
	DB	01bH
	DB	0b9H
	DB	01bH
	DB	0b9H
	DB	01bH
	DB	0d8H
	DB	01bH
	DB	0b8H
	DB	01bH
	DB	0b9H
	DB	01bH
	DB	0b8H
	DB	01bH
	DB	0d9H
	DB	01bH
	DB	0b9H
	DB	01bH
	DB	0b8H
	DB	01bH
	DB	0b9H
	DB	01bH
	DB	0b8H
	DB	01bH
	DB	0b9H
	DB	01bH
	DB	0d9H
	DB	01bH
	DB	0b8H
	DB	01bH
	DB	0b8H
	DB	01bH
	DB	0cfH
	DB	07bH
	DB	0cfH
	DB	07bH
	DB	0cfH
	DB	07bH
	DB	0cfH
	DB	07bH
	DB	0b8H
	DB	01bH
	DB	0b9H
	DB	01bH
	DB	0b9H
	DB	01bH
	DB	0b8H
	DB	01bH
	DB	0b9H
	DB	01bH
	DB	0b9H
	DB	01bH
	DB	0b8H
	DB	01bH
	DB	0b9H
	DB	01bH
	DB	0b8H
	DB	01bH
	DB	0b9H
	DB	01bH
	DB	0b9H
	DB	01bH
	DB	0b9H
	DB	01bH
	DB	0b9H
	DB	01bH
	DB	0b8H
	DB	01bH
	DB	0b9H
	DB	01bH
	DB	0b9H
	DB	01bH
	DB	0b8H
	DB	01bH
	DB	0b9H
	DB	01bH
	DB	0b9H
	DB	01bH
	DB	0b8H
	DB	01bH
	DB	0b9H
	DB	01bH
	DB	0b9H
	DB	01bH
	DB	0b8H
	DB	01bH
	DB	0b9H
	DB	01bH
	DB	0b9H
	DB	01bH
	DB	0b8H
	DB	01bH
	DB	0b9H
	DB	01bH
	DB	0b9H
	DB	01bH
	DB	0b8H
	DB	01bH
	DB	0b9H
	DB	01bH
	DB	0b9H
	DB	01bH
	DB	0b9H
	DB	01bH
	DB	0b8H
	DB	01bH
	DB	0b9H
	DB	01bH
	DB	0b8H
	DB	01bH
	DB	0b9H
	DB	01bH
	DB	0b8H
	DB	01bH
	DB	0b9H
	DB	01bH
	DB	0b9H
	DB	01bH
	DB	0b9H
	DB	01bH
	DB	0b9H
	DB	01bH
	DB	0b8H
	DB	01bH
	DB	0b9H
	DB	01bH
	DB	0b9H
	DB	01bH
	DB	0d8H
	DB	01bH
	DB	0b9H
	DB	01bH
	DB	0b8H
	DB	01bH
	DB	0b9H
	DB	01bH
	DB	0b9H
	DB	01bH
	DB	0b8H
	DB	01bH
	DB	0b9H
	DB	01bH
	DB	0cfH
	DB	07bH
	DB	0cfH
	DB	07bH
	DB	0cfH
	DB	07bH
	DB	0cfH
	DB	07bH
	DB	0b8H
	DB	01bH
	DB	0b9H
	DB	01bH
	DB	0d8H
	DB	01bH
	DB	0b9H
	DB	01bH
	DB	0d8H
	DB	01bH
	DB	0d9H
	DB	01bH
	DB	0b9H
	DB	01bH
	DB	0d8H
	DB	01bH
	DB	0b9H
	DB	01bH
	DB	0d8H
	DB	01bH
	DB	0b9H
	DB	01bH
	DB	0d9H
	DB	01bH
	DB	0d8H
	DB	01bH
	DB	0b9H
	DB	01bH
	DB	0b8H
	DB	01bH
	DB	0d9H
	DB	01bH
	DB	0d9H
	DB	01bH
	DB	0b9H
	DB	01bH
	DB	0b8H
	DB	01bH
	DB	0d9H
	DB	01bH
	DB	0d8H
	DB	01bH
	DB	0b9H
	DB	01bH
	DB	0b8H
	DB	01bH
	DB	0d9H
	DB	01bH
	DB	0d8H
	DB	01bH
	DB	0b9H
	DB	01bH
	DB	0b9H
	DB	01bH
	DB	0d8H
	DB	01bH
	DB	0d9H
	DB	01bH
	DB	0b9H
	DB	01bH
	DB	0b8H
	DB	01bH
	DB	0d9H
	DB	01bH
	DB	0d9H
	DB	01bH
	DB	0b8H
	DB	01bH
	DB	0b9H
	DB	01bH
	DB	0d9H
	DB	01bH
	DB	0d8H
	DB	01bH
	DB	0b9H
	DB	01bH
	DB	0b8H
	DB	01bH
	DB	0d9H
	DB	01bH
	DB	0d8H
	DB	01bH
	DB	0b9H
	DB	01bH
	DB	0b8H
	DB	01bH
	DB	0d9H
	DB	01bH
	DB	0b9H
	DB	01bH
	DB	0b8H
	DB	01bH
	DB	0d9H
	DB	01bH
	DB	0d8H
	DB	01bH
	DB	0b9H
	DB	01bH
	DB	0b9H
	DB	01bH
	DB	0b9H
	DB	01bH
	DB	0cfH
	DB	073H
	DB	0cfH
	DB	07bH
	DB	0cfH
	DB	07bH
	DB	0cfH
	DB	07bH
	DB	0b9H
	DB	01bH
	DB	0b8H
	DB	01bH
	DB	0b9H
	DB	01bH
	DB	0b9H
	DB	01bH
	DB	0b8H
	DB	01bH
	DB	0b9H
	DB	01bH
	DB	0b9H
	DB	01bH
	DB	0b8H
	DB	01bH
	DB	0b9H
	DB	01bH
	DB	0b9H
	DB	01bH
	DB	0b8H
	DB	01bH
	DB	0b8H
	DB	01bH
	DB	0b9H
	DB	01bH
	DB	0b9H
	DB	01bH
	DB	0b8H
	DB	01bH
	DB	0b8H
	DB	01bH
	DB	0b9H
	DB	01bH
	DB	0d8H
	DB	01bH
	DB	0b9H
	DB	01bH
	DB	0b9H
	DB	01bH
	DB	0b9H
	DB	01bH
	DB	0b8H
	DB	01bH
	DB	0b9H
	DB	01bH
	DB	0b9H
	DB	01bH
	DB	0b8H
	DB	01bH
	DB	0d9H
	DB	01bH
	DB	0b9H
	DB	01bH
	DB	0b8H
	DB	01bH
	DB	0b9H
	DB	01bH
	DB	0b8H
	DB	01bH
	DB	0b9H
	DB	01bH
	DB	0b8H
	DB	01bH
	DB	0b9H
	DB	01bH
	DB	0d9H
	DB	01bH
	DB	0b8H
	DB	01bH
	DB	0b9H
	DB	01bH
	DB	0b9H
	DB	01bH
	DB	0b8H
	DB	01bH
	DB	0b9H
	DB	01bH
	DB	0b8H
	DB	01bH
	DB	0b9H
	DB	01bH
	DB	0b9H
	DB	01bH
	DB	0d8H
	DB	01bH
	DB	0b9H
	DB	01bH
	DB	0b9H
	DB	01bH
	DB	0b8H
	DB	01bH
	DB	0b9H
	DB	01bH
	DB	0b9H
	DB	01bH
	DB	0d8H
	DB	01bH
	DB	0b8H
	DB	01bH
	DB	0b9H
	DB	01bH
	DB	0cfH
	DB	07bH
	DB	0cfH
	DB	07bH
	DB	0afH
	DB	07bH
	DB	0cfH
	DB	07bH
	DB	0b8H
	DB	01bH
	DB	0b9H
	DB	01bH
	DB	0b9H
	DB	01bH
	DB	0d8H
	DB	01bH
	DB	0b9H
	DB	01bH
	DB	0b8H
	DB	01bH
	DB	0d9H
	DB	01bH
	DB	0b9H
	DB	01bH
	DB	0b8H
	DB	01bH
	DB	0d9H
	DB	01bH
	DB	0b9H
	DB	01bH
	DB	0b8H
	DB	01bH
	DB	0d9H
	DB	01bH
	DB	0b9H
	DB	01bH
	DB	0d9H
	DB	01bH
	DB	0b9H
	DB	01bH
	DB	0b8H
	DB	01bH
	DB	0b9H
	DB	01bH
	DB	0b9H
	DB	01bH
	DB	0b8H
	DB	01bH
	DB	0d9H
	DB	01bH
	DB	0b9H
	DB	01bH
	DB	0d8H
	DB	01bH
	DB	0b9H
	DB	01bH
	DB	0b9H
	DB	01bH
	DB	0b8H
	DB	01bH
	DB	0b9H
	DB	01bH
	DB	0b9H
	DB	01bH
	DB	0d8H
	DB	01bH
	DB	0b9H
	DB	01bH
	DB	0d9H
	DB	01bH
	DB	0b8H
	DB	01bH
	DB	0b9H
	DB	01bH
	DB	0b9H
	DB	01bH
	DB	0b8H
	DB	01bH
	DB	0b9H
	DB	01bH
	DB	0d9H
	DB	01bH
	DB	0b8H
	DB	01bH
	DB	0d9H
	DB	01bH
	DB	0b9H
	DB	01bH
	DB	0b8H
	DB	01bH
	DB	0b9H
	DB	01bH
	DB	0b9H
	DB	01bH
	DB	0b8H
	DB	01bH
	DB	0d9H
	DB	01bH
	DB	0b9H
	DB	01bH
	DB	0b8H
	DB	01bH
	DB	0b9H
	DB	01bH
	DB	0b9H
	DB	01bH
	DB	0d8H
	DB	01bH
	DB	0b8H
	DB	01bH
	DB	0cfH
	DB	07bH
	DB	0cfH
	DB	07bH
	DB	0cfH
	DB	07bH
	DB	0cfH
	DB	07bH
	DB	0b8H
	DB	01bH
	DB	0b9H
	DB	01bH
	DB	0d9H
	DB	01bH
	DB	0b8H
	DB	01bH
	DB	0b9H
	DB	01bH
	DB	0d9H
	DB	01bH
	DB	0b8H
	DB	01bH
	DB	0b9H
	DB	01bH
	DB	0d8H
	DB	01bH
	DB	0b9H
	DB	01bH
	DB	0b9H
	DB	01bH
	DB	0d8H
	DB	01bH
	DB	0b9H
	DB	01bH
	DB	0b8H
	DB	01bH
	DB	0b9H
	DB	01bH
	DB	0d9H
	DB	01bH
	DB	0b8H
	DB	01bH
	DB	0b9H
	DB	01bH
	DB	0d8H
	DB	01bH
	DB	0b8H
	DB	01bH
	DB	0b9H
	DB	01bH
	DB	0d9H
	DB	01bH
	DB	0b8H
	DB	01bH
	DB	0b9H
	DB	01bH
	DB	0d8H
	DB	01bH
	DB	0b9H
	DB	01bH
	DB	0b8H
	DB	01bH
	DB	0d9H
	DB	01bH
	DB	0b9H
	DB	01bH
	DB	0b8H
	DB	01bH
	DB	0d9H
	DB	01bH
	DB	0b9H
	DB	01bH
	DB	0b8H
	DB	01bH
	DB	0d9H
	DB	01bH
	DB	0b8H
	DB	01bH
	DB	0b9H
	DB	01bH
	DB	0d9H
	DB	01bH
	DB	0b8H
	DB	01bH
	DB	0b9H
	DB	01bH
	DB	0d9H
	DB	01bH
	DB	0d8H
	DB	01bH
	DB	0b9H
	DB	01bH
	DB	0b9H
	DB	01bH
	DB	0d8H
	DB	01bH
	DB	0b8H
	DB	01bH
	DB	0b9H
	DB	01bH
	DB	0d8H
	DB	01bH
	DB	0b9H
	DB	01bH
	DB	0b9H
	DB	01bH
	DB	0b9H
	DB	01bH
	DB	0b9H
	DB	01bH
	DB	0cfH
	DB	07bH
	DB	0cfH
	DB	07bH
	DB	0cfH
	DB	07bH
	DB	0cfH
	DB	07bH
	DB	0b9H
	DB	01bH
	DB	0b8H
	DB	01bH
	DB	0b9H
	DB	01bH
	DB	0b9H
	DB	01bH
	DB	0b8H
	DB	01bH
	DB	0b9H
	DB	01bH
	DB	0b9H
	DB	01bH
	DB	0b8H
	DB	01bH
	DB	0b9H
	DB	01bH
	DB	0b9H
	DB	01bH
	DB	0b8H
	DB	01bH
	DB	0b9H
	DB	01bH
	DB	0b9H
	DB	01bH
	DB	0b8H
	DB	01bH
	DB	0b8H
	DB	01bH
	DB	0d9H
	DB	01bH
	DB	0b9H
	DB	01bH
	DB	0b9H
	DB	01bH
	DB	0d9H
	DB	01bH
	DB	0b8H
	DB	01bH
	DB	0b9H
	DB	01bH
	DB	0b8H
	DB	01bH
	DB	0b9H
	DB	01bH
	DB	0b9H
	DB	01bH
	DB	0d8H
	DB	01bH
	DB	0b9H
	DB	01bH
	DB	0b9H
	DB	01bH
	DB	0d8H
	DB	01bH
	DB	0b9H
	DB	01bH
	DB	0b8H
	DB	01bH
	DB	0b9H
	DB	01bH
	DB	0b9H
	DB	01bH
	DB	0d8H
	DB	01bH
	DB	0b9H
	DB	01bH
	DB	0b9H
	DB	01bH
	DB	0b8H
	DB	01bH
	DB	0b9H
	DB	01bH
	DB	0b8H
	DB	01bH
	DB	0b9H
	DB	01bH
	DB	0b9H
	DB	01bH
	DB	0b8H
	DB	01bH
	DB	0b9H
	DB	01bH
	DB	0d9H
	DB	01bH
	DB	0b8H
	DB	01bH
	DB	0b9H
	DB	01bH
	DB	0b9H
	DB	01bH
	DB	0d9H
	DB	01bH
	DB	0b8H
	DB	01bH
	DB	0b8H
	DB	01bH
	DB	0d9H
	DB	01bH
	DB	0b8H
	DB	01bH
	DB	0cfH
	DB	07bH
	DB	0cfH
	DB	07bH
	DB	0cfH
	DB	07bH
	DB	0cfH
	DB	07bH
	DB	0b8H
	DB	01bH
	DB	0b9H
	DB	01bH
	DB	0d8H
	DB	01bH
	DB	0b9H
	DB	01bH
	DB	0d8H
	DB	01bH
	DB	0b9H
	DB	01bH
	DB	0d9H
	DB	01bH
	DB	0b8H
	DB	01bH
	DB	0d9H
	DB	01bH
	DB	0d8H
	DB	01bH
	DB	0b9H
	DB	01bH
	DB	0d9H
	DB	01bH
	DB	0d8H
	DB	01bH
	DB	0b9H
	DB	01bH
	DB	0b9H
	DB	01bH
	DB	0b8H
	DB	01bH
	DB	0b8H
	DB	01bH
	DB	0b9H
	DB	01bH
	DB	0b9H
	DB	01bH
	DB	0d9H
	DB	01bH
	DB	0b8H
	DB	01bH
	DB	0b9H
	DB	01bH
	DB	0d9H
	DB	01bH
	DB	0b8H
	DB	01bH
	DB	0b9H
	DB	01bH
	DB	0b9H
	DB	01bH
	DB	0b8H
	DB	01bH
	DB	0b9H
	DB	01bH
	DB	0b9H
	DB	01bH
	DB	0d8H
	DB	01bH
	DB	0b9H
	DB	01bH
	DB	0b8H
	DB	01bH
	DB	0b9H
	DB	01bH
	DB	0d9H
	DB	01bH
	DB	0b8H
	DB	01bH
	DB	0d9H
	DB	01bH
	DB	0b9H
	DB	01bH
	DB	0d8H
	DB	01bH
	DB	0b9H
	DB	01bH
	DB	0b8H
	DB	01bH
	DB	0b9H
	DB	01bH
	DB	0d8H
	DB	01bH
	DB	0b9H
	DB	01bH
	DB	0b9H
	DB	01bH
	DB	0b8H
	DB	01bH
	DB	0d9H
	DB	01bH
	DB	0b9H
	DB	01bH
	DB	0b8H
	DB	01bH
	DB	0d9H
	DB	01bH
	DB	0b9H
	DB	01bH
	DB	0b8H
	DB	01bH
	DB	0cfH
	DB	07bH
	DB	0cfH
	DB	07bH
	DB	0cfH
	DB	07bH
	DB	0cfH
	DB	07bH
	DB	0b9H
	DB	01bH
	DB	0b8H
	DB	01bH
	DB	0b9H
	DB	01bH
	DB	0b9H
	DB	01bH
	DB	0b8H
	DB	01bH
	DB	0d9H
	DB	01bH
	DB	0b8H
	DB	01bH
	DB	0b9H
	DB	01bH
	DB	0b9H
	DB	01bH
	DB	0b8H
	DB	01bH
	DB	0b9H
	DB	01bH
	DB	0b8H
	DB	01bH
	DB	0b9H
	DB	01bH
	DB	0d9H
	DB	01bH
	DB	0b9H
	DB	01bH
	DB	0d8H
	DB	01bH
	DB	0b9H
	DB	01bH
	DB	0b8H
	DB	01bH
	DB	0d8H
	DB	01bH
	DB	0b9H
	DB	01bH
	DB	0b9H
	DB	01bH
	DB	0d8H
	DB	01bH
	DB	0b9H
	DB	01bH
	DB	0b8H
	DB	01bH
	DB	0d9H
	DB	01bH
	DB	0b8H
	DB	01bH
	DB	0d9H
	DB	01bH
	DB	0b9H
	DB	01bH
	DB	0b8H
	DB	01bH
	DB	0b9H
	DB	01bH
	DB	0d9H
	DB	01bH
	DB	0b8H
	DB	01bH
	DB	0b9H
	DB	01bH
	DB	0b8H
	DB	01bH
	DB	0b8H
	DB	01bH
	DB	0b9H
	DB	01bH
	DB	0d9H
	DB	01bH
	DB	0b8H
	DB	01bH
	DB	0b9H
	DB	01bH
	DB	0d9H
	DB	01bH
	DB	0b8H
	DB	01bH
	DB	0b9H
	DB	01bH
	DB	0b8H
	DB	01bH
	DB	0b9H
	DB	01bH
	DB	0d8H
	DB	01bH
	DB	0b9H
	DB	01bH
	DB	0b8H
	DB	01bH
	DB	0b9H
	DB	01bH
	DB	0b9H
	DB	01bH
	DB	0b8H
	DB	01bH
	DB	0b9H
	DB	01bH
	DB	0cfH
	DB	07bH
	DB	0cfH
	DB	07bH
	DB	0cfH
	DB	07bH
	DB	0cfH
	DB	07bH
	DB	0b8H
	DB	01bH
	DB	0b9H
	DB	01bH
	DB	0b9H
	DB	01bH
	DB	0d8H
	DB	01bH
	DB	0b9H
	DB	01bH
	DB	0b9H
	DB	01bH
	DB	0b8H
	DB	01bH
	DB	0b9H
	DB	01bH
	DB	0b9H
	DB	01bH
	DB	0b8H
	DB	01bH
	DB	0d9H
	DB	01bH
	DB	0b9H
	DB	01bH
	DB	0b8H
	DB	01bH
	DB	0b9H
	DB	01bH
	DB	0b8H
	DB	01bH
	DB	0d9H
	DB	01bH
	DB	0b9H
	DB	01bH
	DB	0b9H
	DB	01bH
	DB	0b8H
	DB	01bH
	DB	0b9H
	DB	01bH
	DB	0b9H
	DB	01bH
	DB	0b8H
	DB	01bH
	DB	0b9H
	DB	01bH
	DB	0b9H
	DB	01bH
	DB	0b8H
	DB	01bH
	DB	0b9H
	DB	01bH
	DB	0d9H
	DB	01bH
	DB	0b8H
	DB	01bH
	DB	0b8H
	DB	01bH
	DB	0b9H
	DB	01bH
	DB	0b9H
	DB	01bH
	DB	0d8H
	DB	01bH
	DB	0b9H
	DB	01bH
	DB	0b9H
	DB	01bH
	DB	0d9H
	DB	01bH
	DB	0b8H
	DB	01bH
	DB	0b9H
	DB	01bH
	DB	0b9H
	DB	01bH
	DB	0b8H
	DB	01bH
	DB	0d9H
	DB	01bH
	DB	0b9H
	DB	01bH
	DB	0b8H
	DB	01bH
	DB	0d9H
	DB	01bH
	DB	0b9H
	DB	01bH
	DB	0b9H
	DB	01bH
	DB	0b8H
	DB	01bH
	DB	0d9H
	DB	01bH
	DB	0b9H
	DB	01bH
	DB	0b8H
	DB	01bH
	DB	0d9H
	DB	01bH
	DB	0b9H
	DB	01bH
	DB	0cfH
	DB	07bH
	DB	0cfH
	DB	07bH
	DB	0cfH
	DB	07bH
	DB	0cfH
	DB	07bH
	DB	0b8H
	DB	01bH
	DB	0b9H
	DB	01bH
	DB	0d9H
	DB	01bH
	DB	0b8H
	DB	01bH
	DB	0b9H
	DB	01bH
	DB	0b9H
	DB	01bH
	DB	0d8H
	DB	01bH
	DB	0d9H
	DB	01bH
	DB	0b8H
	DB	01bH
	DB	0b9H
	DB	01bH
	DB	0d9H
	DB	01bH
	DB	0b8H
	DB	01bH
	DB	0b9H
	DB	01bH
	DB	0b8H
	DB	01bH
	DB	0b9H
	DB	01bH
	DB	0b9H
	DB	01bH
	DB	0d8H
	DB	01bH
	DB	0b9H
	DB	01bH
	DB	0b9H
	DB	01bH
	DB	0d8H
	DB	01bH
	DB	0b9H
	DB	01bH
	DB	0d9H
	DB	01bH
	DB	0b8H
	DB	01bH
	DB	0d9H
	DB	01bH
	DB	0b9H
	DB	01bH
	DB	0b8H
	DB	01bH
	DB	0b9H
	DB	01bH
	DB	0d9H
	DB	01bH
	DB	0b9H
	DB	01bH
	DB	0d8H
	DB	01bH
	DB	0b9H
	DB	01bH
	DB	0b9H
	DB	01bH
	DB	0d8H
	DB	01bH
	DB	0b9H
	DB	01bH
	DB	0b9H
	DB	01bH
	DB	0d8H
	DB	01bH
	DB	0b9H
	DB	01bH
	DB	0b9H
	DB	01bH
	DB	0b8H
	DB	01bH
	DB	0b9H
	DB	01bH
	DB	0b9H
	DB	01bH
	DB	0d8H
	DB	01bH
	DB	0b9H
	DB	01bH
	DB	0b9H
	DB	01bH
	DB	0b8H
	DB	01bH
	DB	0d9H
	DB	01bH
	DB	0b9H
	DB	01bH
	DB	0b8H
	DB	01bH
	DB	0d9H
	DB	01bH
	DB	0b8H
	DB	01bH
	DB	0b8H
	DB	01bH
	DB	0cfH
	DB	073H
	DB	0cfH
	DB	07bH
	DB	0afH
	DB	07bH
	DB	0cfH
	DB	07bH
	DB	0b9H
	DB	01bH
	DB	0b8H
	DB	01bH
	DB	0b9H
	DB	01bH
	DB	0b8H
	DB	01bH
	DB	0b9H
	DB	01bH
	DB	0d8H
	DB	01bH
	DB	0b9H
	DB	01bH
	DB	0b9H
	DB	01bH
	DB	0b8H
	DB	01bH
	DB	0b9H
	DB	01bH
	DB	0b8H
	DB	01bH
	DB	0d9H
	DB	01bH
	DB	0b9H
	DB	01bH
	DB	0d8H
	DB	01bH
	DB	0b9H
	DB	01bH
	DB	0b9H
	DB	01bH
	DB	0b8H
	DB	01bH
	DB	0d9H
	DB	01bH
	DB	0b9H
	DB	01bH
	DB	0b8H
	DB	01bH
	DB	0d9H
	DB	01bH
	DB	0b8H
	DB	01bH
	DB	0b9H
	DB	01bH
	DB	0b9H
	DB	01bH
	DB	0d8H
	DB	01bH
	DB	0b9H
	DB	01bH
	DB	0b8H
	DB	01bH
	DB	0b9H
	DB	01bH
	DB	0b9H
	DB	01bH
	DB	0b8H
	DB	01bH
	DB	0b9H
	DB	01bH
	DB	0b9H
	DB	01bH
	DB	0b8H
	DB	01bH
	DB	0b8H
	DB	01bH
	DB	0b9H
	DB	01bH
	DB	0b8H
	DB	01bH
	DB	0d9H
	DB	01bH
	DB	0b8H
	DB	01bH
	DB	0d9H
	DB	01bH
	DB	0b8H
	DB	01bH
	DB	0b9H
	DB	01bH
	DB	0b9H
	DB	01bH
	DB	0d8H
	DB	01bH
	DB	0b8H
	DB	01bH
	DB	0b9H
	DB	01bH
	DB	0b9H
	DB	01bH
	DB	0b8H
	DB	01bH
	DB	0b9H
	DB	01bH
	DB	0b9H
	DB	01bH
	DB	0b9H
	DB	01bH
	DB	0b8H
	DB	01bH
	DB	0cfH
	DB	07bH
	DB	0cfH
	DB	07bH
	DB	0cfH
	DB	07bH
	DB	0cfH
	DB	07bH
	DB	0b8H
	DB	01bH
	DB	0b9H
	DB	01bH
	DB	0d9H
	DB	01bH
	DB	0b9H
	DB	01bH
	DB	0b8H
	DB	01bH
	DB	0b9H
	DB	01bH
	DB	0b9H
	DB	01bH
	DB	0b8H
	DB	01bH
	DB	0d9H
	DB	01bH
	DB	0b9H
	DB	01bH
	DB	0b8H
	DB	01bH
	DB	0b9H
	DB	01bH
	DB	0b9H
	DB	01bH
	DB	0d8H
	DB	01bH
	DB	0b9H
	DB	01bH
	DB	0b8H
	DB	01bH
	DB	0d9H
	DB	01bH
	DB	0b8H
	DB	01bH
	DB	0b9H
	DB	01bH
	DB	0b9H
	DB	01bH
	DB	0b8H
	DB	01bH
	DB	0b9H
	DB	01bH
	DB	0b9H
	DB	01bH
	DB	0b8H
	DB	01bH
	DB	0b9H
	DB	01bH
	DB	0d9H
	DB	01bH
	DB	0b8H
	DB	01bH
	DB	0b8H
	DB	01bH
	DB	0d9H
	DB	01bH
	DB	0b8H
	DB	01bH
	DB	0d9H
	DB	01bH
	DB	0b9H
	DB	01bH
	DB	0d8H
	DB	01bH
	DB	0b9H
	DB	01bH
	DB	0b9H
	DB	01bH
	DB	0d9H
	DB	01bH
	DB	0b8H
	DB	01bH
	DB	0b9H
	DB	01bH
	DB	0b9H
	DB	01bH
	DB	0d8H
	DB	01bH
	DB	0b9H
	DB	01bH
	DB	0b9H
	DB	01bH
	DB	0b8H
	DB	01bH
	DB	0d9H
	DB	01bH
	DB	0b9H
	DB	01bH
	DB	0d8H
	DB	01bH
	DB	0b8H
	DB	01bH
	DB	0d9H
	DB	01bH
	DB	0b9H
	DB	01bH
	DB	0b8H
	DB	01bH
	DB	0b9H
	DB	01bH
	DB	0cfH
	DB	07bH
	DB	0cfH
	DB	07bH
	DB	0cfH
	DB	07bH
	DB	0cfH
	DB	07bH
	DB	0b8H
	DB	01bH
	DB	0b9H
	DB	01bH
	DB	0b8H
	DB	01bH
	DB	0d9H
	DB	01bH
	DB	0b9H
	DB	01bH
	DB	0d8H
	DB	01bH
	DB	0b9H
	DB	01bH
	DB	0b8H
	DB	01bH
	DB	0d9H
	DB	01bH
	DB	0b9H
	DB	01bH
	DB	0b8H
	DB	01bH
	DB	0d9H
	DB	01bH
	DB	0b8H
	DB	01bH
	DB	0b9H
	DB	01bH
	DB	0b9H
	DB	01bH
	DB	0b8H
	DB	01bH
	DB	0b9H
	DB	01bH
	DB	0b9H
	DB	01bH
	DB	0d8H
	DB	01bH
	DB	0b9H
	DB	01bH
	DB	0b8H
	DB	01bH
	DB	0d9H
	DB	01bH
	DB	0d8H
	DB	01bH
	DB	0b8H
	DB	01bH
	DB	0b9H
	DB	01bH
	DB	0b9H
	DB	01bH
	DB	0d9H
	DB	01bH
	DB	0b9H
	DB	01bH
	DB	0b8H
	DB	01bH
	DB	0d9H
	DB	01bH
	DB	0b8H
	DB	01bH
	DB	0b9H
	DB	01bH
	DB	0b9H
	DB	01bH
	DB	0d8H
	DB	01bH
	DB	0b9H
	DB	01bH
	DB	0b9H
	DB	01bH
	DB	0b8H
	DB	01bH
	DB	0b9H
	DB	01bH
	DB	0b9H
	DB	01bH
	DB	0d8H
	DB	01bH
	DB	0b9H
	DB	01bH
	DB	0b8H
	DB	01bH
	DB	0b9H
	DB	01bH
	DB	0b9H
	DB	01bH
	DB	0b8H
	DB	01bH
	DB	0b9H
	DB	01bH
	DB	0d9H
	DB	01bH
	DB	0b8H
	DB	01bH
	DB	0b9H
	DB	01bH
	DB	0d8H
	DB	01bH
	DB	0b9H
	DB	01bH
	DB	0cfH
	DB	07bH
	DB	0cfH
	DB	07bH
	DB	0cfH
	DB	07bH
	DB	0cfH
	DB	07bH
	DB	0b9H
	DB	01bH
	DB	0b8H
	DB	01bH
	DB	0b9H
	DB	01bH
	DB	0b8H
	DB	01bH
	DB	0b9H
	DB	01bH
	DB	0d9H
	DB	01bH
	DB	0b8H
	DB	01bH
	DB	0b9H
	DB	01bH
	DB	0b9H
	DB	01bH
	DB	0b8H
	DB	01bH
	DB	0d9H
	DB	01bH
	DB	0b9H
	DB	01bH
	DB	0b8H
	DB	01bH
	DB	0d9H
	DB	01bH
	DB	0b9H
	DB	01bH
	DB	0d8H
	DB	01bH
	DB	0b9H
	DB	01bH
	DB	0b9H
	DB	01bH
	DB	0d8H
	DB	01bH
	DB	0b9H
	DB	01bH
	DB	0b9H
	DB	01bH
	DB	0b9H
	DB	01bH
	DB	0b9H
	DB	01bH
	DB	0d8H
	DB	01bH
	DB	0b9H
	DB	01bH
	DB	0b8H
	DB	01bH
	DB	0b9H
	DB	01bH
	DB	0b9H
	DB	01bH
	DB	0b9H
	DB	01bH
	DB	0b8H
	DB	01bH
	DB	0b9H
	DB	01bH
	DB	0b9H
	DB	01bH
	DB	0b8H
	DB	01bH
	DB	0b9H
	DB	01bH
	DB	0d8H
	DB	01bH
	DB	0b9H
	DB	01bH
	DB	0d8H
	DB	01bH
	DB	0b9H
	DB	01bH
	DB	0b8H
	DB	01bH
	DB	0b9H
	DB	01bH
	DB	0d9H
	DB	01bH
	DB	0b8H
	DB	01bH
	DB	0d9H
	DB	01bH
	DB	0b9H
	DB	01bH
	DB	0b8H
	DB	01bH
	DB	0b9H
	DB	01bH
	DB	0b9H
	DB	01bH
	DB	0b8H
	DB	01bH
	DB	0b9H
	DB	01bH
	DB	0b9H
	DB	01bH
	DB	0b8H
	DB	01bH
	DB	0cfH
	DB	07bH
	DB	0cfH
	DB	07bH
	DB	0cfH
	DB	07bH
	DB	0cfH
	DB	07bH
	DB	0b8H
	DB	01bH
	DB	0b9H
	DB	01bH
	DB	0d9H
	DB	01bH
	DB	0b8H
	DB	01bH
	DB	0b9H
	DB	01bH
	DB	0b9H
	DB	01bH
	DB	0d8H
	DB	01bH
	DB	0b9H
	DB	01bH
	DB	0b8H
	DB	01bH
	DB	0d9H
	DB	01bH
	DB	0b9H
	DB	01bH
	DB	0b8H
	DB	01bH
	DB	0b9H
	DB	01bH
	DB	0b9H
	DB	01bH
	DB	0d8H
	DB	01bH
	DB	0b9H
	DB	01bH
	DB	0b8H
	DB	01bH
	DB	0b9H
	DB	01bH
	DB	0b8H
	DB	01bH
	DB	0d9H
	DB	01bH
	DB	0b8H
	DB	01bH
	DB	0b8H
	DB	01bH
	DB	0b9H
	DB	01bH
	DB	0b9H
	DB	01bH
	DB	0d8H
	DB	01bH
	DB	0b9H
	DB	01bH
	DB	0d8H
	DB	01bH
	DB	0b8H
	DB	01bH
	DB	0d9H
	DB	01bH
	DB	0b9H
	DB	01bH
	DB	0d8H
	DB	01bH
	DB	0d9H
	DB	01bH
	DB	0b9H
	DB	01bH
	DB	0b8H
	DB	01bH
	DB	0b9H
	DB	01bH
	DB	0b9H
	DB	01bH
	DB	0b9H
	DB	01bH
	DB	0d8H
	DB	01bH
	DB	0b9H
	DB	01bH
	DB	0b9H
	DB	01bH
	DB	0b8H
	DB	01bH
	DB	0b9H
	DB	01bH
	DB	0d8H
	DB	01bH
	DB	0b9H
	DB	01bH
	DB	0d9H
	DB	01bH
	DB	0d8H
	DB	01bH
	DB	0b9H
	DB	01bH
	DB	0d9H
	DB	01bH
	DB	0b8H
	DB	01bH
	DB	0b9H
	DB	01bH
	DB	0b9H
	DB	01bH
	DB	0cfH
	DB	07bH
	DB	0cfH
	DB	07bH
	DB	0cfH
	DB	07bH
	DB	0cfH
	DB	07bH
	DB	0b8H
	DB	01bH
	DB	0b9H
	DB	01bH
	DB	0b9H
	DB	01bH
	DB	0d8H
	DB	01bH
	DB	0b9H
	DB	01bH
	DB	0b8H
	DB	01bH
	DB	0b9H
	DB	01bH
	DB	0d9H
	DB	01bH
	DB	0b8H
	DB	01bH
	DB	0b9H
	DB	01bH
	DB	0b8H
	DB	01bH
	DB	0d9H
	DB	01bH
	DB	0b8H
	DB	01bH
	DB	0b9H
	DB	01bH
	DB	0b9H
	DB	01bH
	DB	0b8H
	DB	01bH
	DB	0d9H
	DB	01bH
	DB	0b9H
	DB	01bH
	DB	0b9H
	DB	01bH
	DB	0b8H
	DB	01bH
	DB	0d9H
	DB	01bH
	DB	0b9H
	DB	01bH
	DB	0b8H
	DB	01bH
	DB	0d9H
	DB	01bH
	DB	0b9H
	DB	01bH
	DB	0b9H
	DB	01bH
	DB	0b9H
	DB	01bH
	DB	0d8H
	DB	01bH
	DB	0b9H
	DB	01bH
	DB	0b9H
	DB	01bH
	DB	0b8H
	DB	01bH
	DB	0b9H
	DB	01bH
	DB	0d9H
	DB	01bH
	DB	0b8H
	DB	01bH
	DB	0b9H
	DB	01bH
	DB	0d8H
	DB	01bH
	DB	0b9H
	DB	01bH
	DB	0b9H
	DB	01bH
	DB	0d8H
	DB	01bH
	DB	0b9H
	DB	01bH
	DB	0b9H
	DB	01bH
	DB	0b8H
	DB	01bH
	DB	0b9H
	DB	01bH
	DB	0b8H
	DB	01bH
	DB	0b9H
	DB	01bH
	DB	0b8H
	DB	01bH
	DB	0b9H
	DB	01bH
	DB	0b9H
	DB	01bH
	DB	0d8H
	DB	01bH
	DB	0b8H
	DB	01bH
	DB	0b9H
	DB	01bH
	DB	0cfH
	DB	07bH
	DB	0cfH
	DB	07bH
	DB	0cfH
	DB	07bH
	DB	0cfH
	DB	07bH
	DB	0b9H
	DB	01bH
	DB	0b8H
	DB	01bH
	DB	0b9H
	DB	01bH
	DB	0b9H
	DB	01bH
	DB	0d8H
	DB	01bH
	DB	0b9H
	DB	01bH
	DB	0b9H
	DB	01bH
	DB	0b8H
	DB	01bH
	DB	0b9H
	DB	01bH
	DB	0b9H
	DB	01bH
	DB	0d8H
	DB	01bH
	DB	0b9H
	DB	01bH
	DB	0b9H
	DB	01bH
	DB	0d8H
	DB	01bH
	DB	0b9H
	DB	01bH
	DB	0b8H
	DB	01bH
	DB	0d9H
	DB	01bH
	DB	0b9H
	DB	01bH
	DB	0b8H
	DB	01bH
	DB	0d9H
	DB	01bH
	DB	0b9H
	DB	01bH
	DB	0b9H
	DB	01bH
	DB	0d8H
	DB	01bH
	DB	0b9H
	DB	01bH
	DB	0b8H
	DB	01bH
	DB	0b8H
	DB	01bH
	DB	0b9H
	DB	01bH
	DB	0b9H
	DB	01bH
	DB	0b8H
	DB	01bH
	DB	0b9H
	DB	01bH
	DB	0b8H
	DB	01bH
	DB	0b9H
	DB	01bH
	DB	0b8H
	DB	01bH
	DB	0d9H
	DB	01bH
	DB	0b9H
	DB	01bH
	DB	0b8H
	DB	01bH
	DB	0b8H
	DB	01bH
	DB	0b9H
	DB	01bH
	DB	0b8H
	DB	01bH
	DB	0d9H
	DB	01bH
	DB	0d9H
	DB	01bH
	DB	0b8H
	DB	01bH
	DB	0b9H
	DB	01bH
	DB	0d9H
	DB	01bH
	DB	0b8H
	DB	01bH
	DB	0b9H
	DB	01bH
	DB	0b8H
	DB	01bH
	DB	0b9H
	DB	01bH
	DB	0d9H
	DB	01bH
	DB	0b8H
	DB	01bH
	DB	0b9H
	DB	01bH
	DB	0cfH
	DB	07bH
	DB	0cfH
	DB	07bH
	DB	0afH
	DB	07bH
	DB	0cfH
	DB	07bH
	DB	0b8H
	DB	01bH
	DB	0b9H
	DB	01bH
	DB	0b9H
	DB	01bH
	DB	0b8H
	DB	01bH
	DB	0b9H
	DB	01bH
	DB	0d9H
	DB	01bH
	DB	0b8H
	DB	01bH
	DB	0b9H
	DB	01bH
	DB	0d9H
	DB	01bH
	DB	0b8H
	DB	01bH
	DB	0b9H
	DB	01bH
	DB	0b9H
	DB	01bH
	DB	0b8H
	DB	01bH
	DB	0d9H
	DB	01bH
	DB	0b9H
	DB	01bH
	DB	0b8H
	DB	01bH
	DB	0b9H
	DB	01bH
	DB	0b8H
	DB	01bH
	DB	0d8H
	DB	01bH
	DB	0b9H
	DB	01bH
	DB	0b8H
	DB	01bH
	DB	0b8H
	DB	01bH
	DB	0b9H
	DB	01bH
	DB	0b9H
	DB	01bH
	DB	0d9H
	DB	01bH
	DB	0b8H
	DB	01bH
	DB	0d9H
	DB	01bH
	DB	0b9H
	DB	01bH
	DB	0d8H
	DB	01bH
	DB	0d9H
	DB	01bH
	DB	0b9H
	DB	01bH
	DB	0b8H
	DB	01bH
	DB	0b9H
	DB	01bH
	DB	0b9H
	DB	01bH
	DB	0d8H
	DB	01bH
	DB	0b9H
	DB	01bH
	DB	0d9H
	DB	01bH
	DB	0b9H
	DB	01bH
	DB	0b8H
	DB	01bH
	DB	0b9H
	DB	01bH
	DB	0b8H
	DB	01bH
	DB	0b9H
	DB	01bH
	DB	0d9H
	DB	01bH
	DB	0b8H
	DB	01bH
	DB	0b9H
	DB	01bH
	DB	0d9H
	DB	01bH
	DB	0d8H
	DB	01bH
	DB	0b9H
	DB	01bH
	DB	0b9H
	DB	01bH
	DB	0b8H
	DB	01bH
	DB	0b9H
	DB	01bH
	DB	0cfH
	DB	073H
	DB	0cfH
	DB	07bH
	DB	0cfH
	DB	07bH
	DB	0cfH
	DB	07bH
	DB	0b8H
	DB	01bH
	DB	0b9H
	DB	01bH
	DB	0d8H
	DB	01bH
	DB	0b9H
	DB	01bH
	DB	0b8H
	DB	01bH
	DB	0d9H
	DB	01bH
	DB	0b8H
	DB	01bH
	DB	0b9H
	DB	01bH
	DB	0d8H
	DB	01bH
	DB	0b9H
	DB	01bH
	DB	0b9H
	DB	01bH
	DB	0d8H
	DB	01bH
	DB	0b8H
	DB	01bH
	DB	0b9H
	DB	01bH
	DB	0b9H
	DB	01bH
	DB	0d8H
	DB	01bH
	DB	0b9H
	DB	01bH
	DB	0b9H
	DB	01bH
	DB	0b9H
	DB	01bH
	DB	0b9H
	DB	01bH
	DB	0d9H
	DB	01bH
	DB	0b8H
	DB	01bH
	DB	0b9H
	DB	01bH
	DB	0d9H
	DB	01bH
	DB	0b8H
	DB	01bH
	DB	0b9H
	DB	01bH
	DB	0b9H
	DB	01bH
	DB	0b8H
	DB	01bH
	DB	0b9H
	DB	01bH
	DB	0b9H
	DB	01bH
	DB	0d8H
	DB	01bH
	DB	0b9H
	DB	01bH
	DB	0d9H
	DB	01bH
	DB	0b8H
	DB	01bH
	DB	0b9H
	DB	01bH
	DB	0b9H
	DB	01bH
	DB	0b8H
	DB	01bH
	DB	0d9H
	DB	01bH
	DB	0b9H
	DB	01bH
	DB	0b8H
	DB	01bH
	DB	0b9H
	DB	01bH
	DB	0d9H
	DB	01bH
	DB	0b8H
	DB	01bH
	DB	0b9H
	DB	01bH
	DB	0b9H
	DB	01bH
	DB	0b8H
	DB	01bH
	DB	0b9H
	DB	01bH
	DB	0b9H
	DB	01bH
	DB	0d8H
	DB	01bH
	DB	0b9H
	DB	01bH
	DB	0b8H
	DB	01bH
	DB	0cfH
	DB	07bH
	DB	0cfH
	DB	07bH
	DB	0cfH
	DB	07bH
	DB	0cfH
	DB	07bH
	DB	0b9H
	DB	01bH
	DB	0b8H
	DB	01bH
	DB	0d9H
	DB	01bH
	DB	0b9H
	DB	01bH
	DB	0b9H
	DB	01bH
	DB	0b8H
	DB	01bH
	DB	0b9H
	DB	01bH
	DB	0b9H
	DB	01bH
	DB	0b8H
	DB	01bH
	DB	0b9H
	DB	01bH
	DB	0d9H
	DB	01bH
	DB	0b8H
	DB	01bH
	DB	0b9H
	DB	01bH
	DB	0b9H
	DB	01bH
	DB	0d8H
	DB	01bH
	DB	0b9H
	DB	01bH
	DB	0b9H
	DB	01bH
	DB	0d8H
	DB	01bH
	DB	0b8H
	DB	01bH
	DB	0b9H
	DB	01bH
	DB	0d9H
	DB	01bH
	DB	0b8H
	DB	01bH
	DB	0b9H
	DB	01bH
	DB	0b8H
	DB	01bH
	DB	0b9H
	DB	01bH
	DB	0d9H
	DB	01bH
	DB	0b8H
	DB	01bH
	DB	0b8H
	DB	01bH
	DB	0b9H
	DB	01bH
	DB	0b8H
	DB	01bH
	DB	0b9H
	DB	01bH
	DB	0b9H
	DB	01bH
	DB	0b8H
	DB	01bH
	DB	0d8H
	DB	01bH
	DB	0b9H
	DB	01bH
	DB	0b9H
	DB	01bH
	DB	0b8H
	DB	01bH
	DB	0d9H
	DB	01bH
	DB	0b9H
	DB	01bH
	DB	0b8H
	DB	01bH
	DB	0d9H
	DB	01bH
	DB	0b8H
	DB	01bH
	DB	0b9H
	DB	01bH
	DB	0d9H
	DB	01bH
	DB	0b8H
	DB	01bH
	DB	0b9H
	DB	01bH
	DB	0b9H
	DB	01bH
	DB	0d8H
	DB	01bH
	DB	0b9H
	DB	01bH
	DB	0b9H
	DB	01bH
	DB	0b8H
	DB	01bH
	DB	0cfH
	DB	07bH
	DB	0cfH
	DB	07bH
	DB	0cfH
	DB	07bH
	DB	0cfH
	DB	07bH
	DB	0b8H
	DB	01bH
	DB	0b9H
	DB	01bH
	DB	0b9H
	DB	01bH
	DB	0d8H
	DB	01bH
	DB	0b9H
	DB	01bH
	DB	0b9H
	DB	01bH
	DB	0d8H
	DB	01bH
	DB	0d9H
	DB	01bH
	DB	0b9H
	DB	01bH
	DB	0b8H
	DB	01bH
	DB	0b9H
	DB	01bH
	DB	0b9H
	DB	01bH
	DB	0d8H
	DB	01bH
	DB	0b9H
	DB	01bH
	DB	0b8H
	DB	01bH
	DB	0b9H
	DB	01bH
	DB	0b9H
	DB	01bH
	DB	0d8H
	DB	01bH
	DB	0b9H
	DB	01bH
	DB	0b9H
	DB	01bH
	DB	0b8H
	DB	01bH
	DB	0d9H
	DB	01bH
	DB	0b9H
	DB	01bH
	DB	0b8H
	DB	01bH
	DB	0d9H
	DB	01bH
	DB	0b9H
	DB	01bH
	DB	0b8H
	DB	01bH
	DB	0d9H
	DB	01bH
	DB	0d9H
	DB	01bH
	DB	0b8H
	DB	01bH
	DB	0b9H
	DB	01bH
	DB	0d9H
	DB	01bH
	DB	0b8H
	DB	01bH
	DB	0b9H
	DB	01bH
	DB	0d9H
	DB	01bH
	DB	0b8H
	DB	01bH
	DB	0b9H
	DB	01bH
	DB	0b8H
	DB	01bH
	DB	0b9H
	DB	01bH
	DB	0d9H
	DB	01bH
	DB	0b8H
	DB	01bH
	DB	0b9H
	DB	01bH
	DB	0b9H
	DB	01bH
	DB	0b8H
	DB	01bH
	DB	0d8H
	DB	01bH
	DB	0b9H
	DB	01bH
	DB	0b8H
	DB	01bH
	DB	0d9H
	DB	01bH
	DB	0b9H
	DB	01bH
	DB	0b8H
	DB	01bH
	DB	0d9H
	DB	01bH
	DB	0cfH
	DB	07bH
	DB	0cfH
	DB	07bH
	DB	0cfH
	DB	07bH
	DB	0cfH
	DB	07bH
	DB	0b8H
	DB	01bH
	DB	0b9H
	DB	01bH
	DB	0b8H
	DB	01bH
	DB	0b8H
	DB	01bH
	DB	0d9H
	DB	01bH
	DB	0b9H
	DB	01bH
	DB	0b8H
	DB	01bH
	DB	0b9H
	DB	01bH
	DB	0d8H
	DB	01bH
	DB	0b8H
	DB	01bH
	DB	0b9H
	DB	01bH
	DB	0d9H
	DB	01bH
	DB	0b8H
	DB	01bH
	DB	0b9H
	DB	01bH
	DB	0d9H
	DB	01bH
	DB	0b8H
	DB	01bH
	DB	0b9H
	DB	01bH
	DB	0b9H
	DB	01bH
	DB	0d8H
	DB	01bH
	DB	0b9H
	DB	01bH
	DB	0b8H
	DB	01bH
	DB	0b9H
	DB	01bH
	DB	0d9H
	DB	01bH
	DB	0b8H
	DB	01bH
	DB	0b9H
	DB	01bH
	DB	0b8H
	DB	01bH
	DB	0b9H
	DB	01bH
	DB	0b9H
	DB	01bH
	DB	0b9H
	DB	01bH
	DB	0d8H
	DB	01bH
	DB	0b9H
	DB	01bH
	DB	0b9H
	DB	01bH
	DB	0b8H
	DB	01bH
	DB	0b9H
	DB	01bH
	DB	0b9H
	DB	01bH
	DB	0d8H
	DB	01bH
	DB	0b9H
	DB	01bH
	DB	0b9H
	DB	01bH
	DB	0d8H
	DB	01bH
	DB	0b9H
	DB	01bH
	DB	0b9H
	DB	01bH
	DB	0d8H
	DB	01bH
	DB	0b9H
	DB	01bH
	DB	0b9H
	DB	01bH
	DB	0d9H
	DB	01bH
	DB	0b8H
	DB	01bH
	DB	0b9H
	DB	01bH
	DB	0b9H
	DB	01bH
	DB	0b8H
	DB	01bH
	DB	0b9H
	DB	01bH
	DB	0b8H
	DB	01bH
	DB	0cfH
	DB	07bH
	DB	0cfH
	DB	07bH
	DB	0cfH
	DB	07bH
	DB	0cfH
	DB	07bH
	DB	0b9H
	DB	01bH
	DB	0b9H
	DB	01bH
	DB	0b9H
	DB	01bH
	DB	0b9H
	DB	01bH
	DB	0b8H
	DB	01bH
	DB	0b9H
	DB	01bH
	DB	0b9H
	DB	01bH
	DB	0b8H
	DB	01bH
	DB	0b9H
	DB	01bH
	DB	0d9H
	DB	01bH
	DB	0b8H
	DB	01bH
	DB	0b9H
	DB	01bH
	DB	0b9H
	DB	01bH
	DB	0b8H
	DB	01bH
	DB	0d9H
	DB	01bH
	DB	0b8H
	DB	01bH
	DB	0b9H
	DB	01bH
	DB	0b9H
	DB	01bH
	DB	0b8H
	DB	01bH
	DB	0d9H
	DB	01bH
	DB	0b9H
	DB	01bH
	DB	0b8H
	DB	01bH
	DB	0b9H
	DB	01bH
	DB	0b9H
	DB	01bH
	DB	0d8H
	DB	01bH
	DB	0b9H
	DB	01bH
	DB	0d8H
	DB	01bH
	DB	0b9H
	DB	01bH
	DB	0b8H
	DB	01bH
	DB	0b9H
	DB	01bH
	DB	0d8H
	DB	01bH
	DB	0b9H
	DB	01bH
	DB	0d8H
	DB	01bH
	DB	0b9H
	DB	01bH
	DB	0b8H
	DB	01bH
	DB	0b9H
	DB	01bH
	DB	0d9H
	DB	01bH
	DB	0b8H
	DB	01bH
	DB	0b8H
	DB	01bH
	DB	0b9H
	DB	01bH
	DB	0b9H
	DB	01bH
	DB	0b8H
	DB	01bH
	DB	0d8H
	DB	01bH
	DB	0b9H
	DB	01bH
	DB	0b9H
	DB	01bH
	DB	0b8H
	DB	01bH
	DB	0d9H
	DB	01bH
	DB	0b8H
	DB	01bH
	DB	0d9H
	DB	01bH
	DB	0b9H
	DB	01bH
	DB	0b8H
	DB	01bH
	DB	0cfH
	DB	07bH
	DB	0cfH
	DB	07bH
	DB	0cfH
	DB	07bH
	DB	0cfH
	DB	07bH
	DB	0b8H
	DB	01bH
	DB	0b8H
	DB	01bH
	DB	0d9H
	DB	01bH
	DB	0d9H
	DB	01bH
	DB	0b8H
	DB	01bH
	DB	0d9H
	DB	01bH
	DB	0d9H
	DB	01bH
	DB	0b8H
	DB	01bH
	DB	0b9H
	DB	01bH
	DB	0b9H
	DB	01bH
	DB	0b8H
	DB	01bH
	DB	0d9H
	DB	01bH
	DB	0b9H
	DB	01bH
	DB	0b8H
	DB	01bH
	DB	0b9H
	DB	01bH
	DB	0d9H
	DB	01bH
	DB	0b8H
	DB	01bH
	DB	0b9H
	DB	01bH
	DB	0d8H
	DB	01bH
	DB	0b9H
	DB	01bH
	DB	0b9H
	DB	01bH
	DB	0d8H
	DB	01bH
	DB	0b9H
	DB	01bH
	DB	0b9H
	DB	01bH
	DB	0b8H
	DB	01bH
	DB	0d9H
	DB	01bH
	DB	0b9H
	DB	01bH
	DB	0b8H
	DB	01bH
	DB	0b9H
	DB	01bH
	DB	0b9H
	DB	01bH
	DB	0b8H
	DB	01bH
	DB	0b9H
	DB	01bH
	DB	0b9H
	DB	01bH
	DB	0d8H
	DB	01bH
	DB	0b9H
	DB	01bH
	DB	0b9H
	DB	01bH
	DB	0b8H
	DB	01bH
	DB	0d9H
	DB	01bH
	DB	0b9H
	DB	01bH
	DB	0b8H
	DB	01bH
	DB	0d9H
	DB	01bH
	DB	0b9H
	DB	01bH
	DB	0b8H
	DB	01bH
	DB	0b9H
	DB	01bH
	DB	0b9H
	DB	01bH
	DB	0d8H
	DB	01bH
	DB	0b9H
	DB	01bH
	DB	0b9H
	DB	01bH
	DB	0b8H
	DB	01bH
	DB	0d9H
	DB	01bH
	DB	0b9H
	DB	01bH
	DB	0cfH
	DB	07bH
	DB	0cfH
	DB	07bH
	DB	0afH
	DB	07bH
	DB	0cfH
	DB	07bH
	DB	0b8H
	DB	01bH
	DB	0b9H
	DB	01bH
	DB	0b9H
	DB	01bH
	DB	0b8H
	DB	01bH
	DB	0b8H
	DB	01bH
	DB	0b9H
	DB	01bH
	DB	0b8H
	DB	01bH
	DB	0b9H
	DB	01bH
	DB	0d9H
	DB	01bH
	DB	0b8H
	DB	01bH
	DB	0b9H
	DB	01bH
	DB	0d8H
	DB	01bH
	DB	0b9H
	DB	01bH
	DB	0b9H
	DB	01bH
	DB	0b8H
	DB	01bH
	DB	0d9H
	DB	01bH
	DB	0b9H
	DB	01bH
	DB	0b8H
	DB	01bH
	DB	0b9H
	DB	01bH
	DB	0b8H
	DB	01bH
	DB	0b9H
	DB	01bH
	DB	0d8H
	DB	01bH
	DB	0b9H
	DB	01bH
	DB	0b8H
	DB	01bH
	DB	0b9H
	DB	01bH
	DB	0b9H
	DB	01bH
	DB	0b8H
	DB	01bH
	DB	0d9H
	DB	01bH
	DB	0d9H
	DB	01bH
	DB	0b8H
	DB	01bH
	DB	0b9H
	DB	01bH
	DB	0d9H
	DB	01bH
	DB	0b8H
	DB	01bH
	DB	0b9H
	DB	01bH
	DB	0d9H
	DB	01bH
	DB	0b8H
	DB	01bH
	DB	0b9H
	DB	01bH
	DB	0b9H
	DB	01bH
	DB	0d8H
	DB	01bH
	DB	0b9H
	DB	01bH
	DB	0b9H
	DB	01bH
	DB	0d8H
	DB	01bH
	DB	0b9H
	DB	01bH
	DB	0b9H
	DB	01bH
	DB	0d8H
	DB	01bH
	DB	0b9H
	DB	01bH
	DB	0b9H
	DB	01bH
	DB	0b8H
	DB	01bH
	DB	0b9H
	DB	01bH
	DB	0b8H
	DB	01bH
	DB	0b9H
	DB	01bH
	DB	0cfH
	DB	07bH
	DB	0cfH
	DB	07bH
	DB	0cfH
	DB	07bH
	DB	0cfH
	DB	07bH
	DB	0cfH
	DB	073H
	DB	0b9H
	DB	01bH
	DB	0b9H
	DB	01bH
	DB	0b8H
	DB	01bH
	DB	0d9H
	DB	01bH
	DB	0b9H
	DB	01bH
	DB	0b8H
	DB	01bH
	DB	0b9H
	DB	01bH
	DB	0d9H
	DB	01bH
	DB	0b8H
	DB	01bH
	DB	0b9H
	DB	01bH
	DB	0b9H
	DB	01bH
	DB	0d8H
	DB	01bH
	DB	0b9H
	DB	01bH
	DB	0b8H
	DB	01bH
	DB	0b9H
	DB	01bH
	DB	0d9H
	DB	01bH
	DB	0b8H
	DB	01bH
	DB	0b9H
	DB	01bH
	DB	0d9H
	DB	01bH
	DB	0b8H
	DB	01bH
	DB	0b9H
	DB	01bH
	DB	0d9H
	DB	01bH
	DB	0b8H
	DB	01bH
	DB	0d9H
	DB	01bH
	DB	0b9H
	DB	01bH
	DB	0b8H
	DB	01bH
	DB	0b9H
	DB	01bH
	DB	0b9H
	DB	01bH
	DB	0b8H
	DB	01bH
	DB	0d9H
	DB	01bH
	DB	0b9H
	DB	01bH
	DB	0b8H
	DB	01bH
	DB	0b9H
	DB	01bH
	DB	0b8H
	DB	01bH
	DB	0d9H
	DB	01bH
	DB	0b9H
	DB	01bH
	DB	0b8H
	DB	01bH
	DB	0b9H
	DB	01bH
	DB	0b9H
	DB	01bH
	DB	0b8H
	DB	01bH
	DB	0b9H
	DB	01bH
	DB	0b9H
	DB	01bH
	DB	0d8H
	DB	01bH
	DB	0b8H
	DB	01bH
	DB	0b9H
	DB	01bH
	DB	0d9H
	DB	01bH
	DB	0b8H
	DB	01bH
	DB	0d9H
	DB	01bH
	DB	0b9H
	DB	01bH
	DB	0cfH
	DB	07bH
	DB	0cfH
	DB	073H
	DB	0cfH
	DB	07bH
	DB	00H
	DB	00H
	DB	0cfH
	DB	07bH
	DB	0cfH
	DB	07bH
	DB	0cfH
	DB	07bH
	DB	0cfH
	DB	07bH
	DB	0cfH
	DB	073H
	DB	0cfH
	DB	07bH
	DB	0cfH
	DB	07bH
	DB	0cfH
	DB	073H
	DB	0cfH
	DB	07bH
	DB	0cfH
	DB	07bH
	DB	0cfH
	DB	073H
	DB	0cfH
	DB	07bH
	DB	0cfH
	DB	07bH
	DB	0cfH
	DB	07bH
	DB	0cfH
	DB	07bH
	DB	0cfH
	DB	07bH
	DB	0cfH
	DB	07bH
	DB	0cfH
	DB	07bH
	DB	0cfH
	DB	07bH
	DB	0cfH
	DB	07bH
	DB	0cfH
	DB	07bH
	DB	0cfH
	DB	07bH
	DB	0cfH
	DB	07bH
	DB	0cfH
	DB	07bH
	DB	0cfH
	DB	07bH
	DB	0cfH
	DB	07bH
	DB	0cfH
	DB	07bH
	DB	0cfH
	DB	07bH
	DB	0cfH
	DB	07bH
	DB	0cfH
	DB	07bH
	DB	0cfH
	DB	07bH
	DB	0cfH
	DB	07bH
	DB	0cfH
	DB	07bH
	DB	0cfH
	DB	07bH
	DB	0cfH
	DB	07bH
	DB	0cfH
	DB	07bH
	DB	0cfH
	DB	07bH
	DB	0cfH
	DB	07bH
	DB	0cfH
	DB	07bH
	DB	0cfH
	DB	07bH
	DB	0cfH
	DB	07bH
	DB	0cfH
	DB	07bH
	DB	0cfH
	DB	07bH
	DB	0cfH
	DB	07bH
	DB	0cfH
	DB	07bH
	DB	0cfH
	DB	07bH
	DB	0cfH
	DB	07bH
	DB	0cfH
	DB	07bH
	DB	0cfH
	DB	07bH
	DB	0cfH
	DB	07bH
	DB	0cfH
	DB	07bH
	DB	0cfH
	DB	07bH
	DB	0cfH
	DB	07bH
	DB	00H
	DB	00H
	DB	00H
	DB	00H
	DB	00H
	DB	00H
	DB	0cfH
	DB	07bH
	DB	0cfH
	DB	07bH
	DB	0cfH
	DB	07bH
	DB	0cfH
	DB	07bH
	DB	0cfH
	DB	07bH
	DB	0cfH
	DB	07bH
	DB	0cfH
	DB	07bH
	DB	0cfH
	DB	07bH
	DB	0cfH
	DB	07bH
	DB	0cfH
	DB	07bH
	DB	0cfH
	DB	07bH
	DB	0cfH
	DB	07bH
	DB	0cfH
	DB	073H
	DB	0cfH
	DB	07bH
	DB	0cfH
	DB	07bH
	DB	0cfH
	DB	073H
	DB	0cfH
	DB	07bH
	DB	0cfH
	DB	07bH
	DB	0cfH
	DB	073H
	DB	0cfH
	DB	07bH
	DB	0cfH
	DB	07bH
	DB	0cfH
	DB	073H
	DB	0cfH
	DB	07bH
	DB	0cfH
	DB	07bH
	DB	0cfH
	DB	073H
	DB	0cfH
	DB	07bH
	DB	0cfH
	DB	07bH
	DB	0cfH
	DB	073H
	DB	0cfH
	DB	07bH
	DB	0cfH
	DB	07bH
	DB	0cfH
	DB	073H
	DB	0cfH
	DB	07bH
	DB	0cfH
	DB	07bH
	DB	0cfH
	DB	073H
	DB	0cfH
	DB	07bH
	DB	0cfH
	DB	07bH
	DB	0cfH
	DB	073H
	DB	0cfH
	DB	07bH
	DB	0cfH
	DB	07bH
	DB	0cfH
	DB	073H
	DB	0cfH
	DB	07bH
	DB	0cfH
	DB	07bH
	DB	0cfH
	DB	073H
	DB	0cfH
	DB	07bH
	DB	0cfH
	DB	07bH
	DB	0cfH
	DB	073H
	DB	0cfH
	DB	07bH
	DB	0cfH
	DB	07bH
	DB	0cfH
	DB	073H
	DB	0ceH
	DB	07bH
	DB	0afH
	DB	07bH
	DB	00H
	DB	00H
	DB	00H
	DB	00H
	DB	00H
	DB	00H
	DB	00H
	DB	00H
	DB	00H
	DB	00H
	DB	00H
	DB	00H
	DB	00H
	DB	00H
	DB	00H
	DB	00H
	DB	00H
	DB	00H
	DB	00H
	DB	00H
	DB	00H
	DB	00H
	DB	00H
	DB	00H
	DB	00H
	DB	00H
	DB	00H
	DB	00H
	DB	00H
	DB	00H
	DB	00H
	DB	00H
	DB	00H
	DB	00H
	DB	00H
	DB	00H
	DB	00H
	DB	00H
	DB	00H
	DB	00H
	DB	00H
	DB	00H
	DB	00H
	DB	00H
	DB	00H
	DB	00H
	DB	00H
	DB	00H
	DB	00H
	DB	00H
	DB	00H
	DB	00H
	DB	00H
	DB	00H
	DB	00H
	DB	00H
	DB	00H
	DB	00H
	DB	00H
	DB	00H
	DB	00H
	DB	00H
	DB	00H
	DB	00H
	DB	00H
	DB	00H
	DB	00H
	DB	00H
	DB	00H
	DB	00H
	DB	00H
	DB	00H
	DB	00H
	DB	00H
	DB	00H
	DB	00H
	DB	00H
	DB	00H
	DB	00H
	DB	00H
	DB	00H
	DB	00H
	DB	00H
	DB	00H
	DB	00H
	DB	00H
	DB	00H
	DB	00H
	DB	00H
	DB	00H
	DB	00H
	DB	00H
	DB	00H
	DB	00H
	DB	00H
	DB	00H
	DB	00H
	DB	00H
	DB	00H
	DB	00H
	DB	00H
	DB	00H
	DB	00H
	DB	00H
	DB	00H
	DB	00H
	DB	00H
	DB	00H
	DB	00H
	DB	00H
	DB	00H
	DB	00H
	DB	00H
	DB	00H
	ORG $+6
?_counterbox_alpha_channel@@3QBEB DB 00H		; _counterbox_alpha_channel
	DB	00H
	DB	0ffH
	DB	0ffH
	DB	0ffH
	DB	0ffH
	DB	0ffH
	DB	0ffH
	DB	0ffH
	DB	0ffH
	DB	0ffH
	DB	0ffH
	DB	0ffH
	DB	0ffH
	DB	0ffH
	DB	0ffH
	DB	0ffH
	DB	0ffH
	DB	0ffH
	DB	0ffH
	DB	0ffH
	DB	0ffH
	DB	0ffH
	DB	0ffH
	DB	0ffH
	DB	0ffH
	DB	0ffH
	DB	0ffH
	DB	0ffH
	DB	0ffH
	DB	0ffH
	DB	0ffH
	DB	0ffH
	DB	0ffH
	DB	0ffH
	DB	0ffH
	DB	0ffH
	DB	0ffH
	DB	0ffH
	DB	0ffH
	DB	0ffH
	DB	0ffH
	DB	0ffH
	DB	0ffH
	DB	0ffH
	DB	0ffH
	DB	0ffH
	DB	0ffH
	DB	0ffH
	DB	0ffH
	DB	0ffH
	DB	0ffH
	DB	0ffH
	DB	00H
	DB	00H
	DB	00H
	DB	0ffH
	DB	0ffH
	DB	0ffH
	DB	0ffH
	DB	0ffH
	DB	0ffH
	DB	0ffH
	DB	0ffH
	DB	0ffH
	DB	0ffH
	DB	0ffH
	DB	0ffH
	DB	0ffH
	DB	0ffH
	DB	0ffH
	DB	0ffH
	DB	0ffH
	DB	0ffH
	DB	0ffH
	DB	0ffH
	DB	0ffH
	DB	0ffH
	DB	0ffH
	DB	0ffH
	DB	0ffH
	DB	0ffH
	DB	0ffH
	DB	0ffH
	DB	0ffH
	DB	0ffH
	DB	0ffH
	DB	0ffH
	DB	0ffH
	DB	0ffH
	DB	0ffH
	DB	0ffH
	DB	0ffH
	DB	0ffH
	DB	0ffH
	DB	0ffH
	DB	0ffH
	DB	0ffH
	DB	0ffH
	DB	0ffH
	DB	0ffH
	DB	0ffH
	DB	0ffH
	DB	0ffH
	DB	0ffH
	DB	0ffH
	DB	0ffH
	DB	0ffH
	DB	0ffH
	DB	00H
	DB	0ffH
	DB	0ffH
	DB	0ffH
	DB	0ffH
	DB	0ffH
	DB	0ffH
	DB	0ffH
	DB	0ffH
	DB	0ffH
	DB	0ffH
	DB	0ffH
	DB	0ffH
	DB	0ffH
	DB	0ffH
	DB	0ffH
	DB	0ffH
	DB	0ffH
	DB	0ffH
	DB	0ffH
	DB	0ffH
	DB	0ffH
	DB	0ffH
	DB	0ffH
	DB	0ffH
	DB	0ffH
	DB	0ffH
	DB	0ffH
	DB	0ffH
	DB	0ffH
	DB	0ffH
	DB	0ffH
	DB	0ffH
	DB	0ffH
	DB	0ffH
	DB	0ffH
	DB	0ffH
	DB	0ffH
	DB	0ffH
	DB	0ffH
	DB	0ffH
	DB	0ffH
	DB	0ffH
	DB	0ffH
	DB	0ffH
	DB	0ffH
	DB	0ffH
	DB	0ffH
	DB	0ffH
	DB	0ffH
	DB	0ffH
	DB	0ffH
	DB	0ffH
	DB	0ffH
	DB	0ffH
	DB	0ffH
	DB	0ffH
	DB	0ffH
	DB	0ffH
	DB	0ffH
	DB	0ffH
	DB	0ffH
	DB	0ffH
	DB	0ffH
	DB	0ffH
	DB	0ffH
	DB	0ffH
	DB	0ffH
	DB	0ffH
	DB	0ffH
	DB	0ffH
	DB	0ffH
	DB	0ffH
	DB	0ffH
	DB	0ffH
	DB	0ffH
	DB	0ffH
	DB	0ffH
	DB	0ffH
	DB	0ffH
	DB	0ffH
	DB	0ffH
	DB	0ffH
	DB	0ffH
	DB	0ffH
	DB	0ffH
	DB	0ffH
	DB	0ffH
	DB	0ffH
	DB	0ffH
	DB	0ffH
	DB	0ffH
	DB	0ffH
	DB	0ffH
	DB	0ffH
	DB	0ffH
	DB	0ffH
	DB	0ffH
	DB	0ffH
	DB	0ffH
	DB	0ffH
	DB	0ffH
	DB	0ffH
	DB	0ffH
	DB	0ffH
	DB	0ffH
	DB	0ffH
	DB	0ffH
	DB	0ffH
	DB	0ffH
	DB	0ffH
	DB	0ffH
	DB	0ffH
	DB	0ffH
	DB	0ffH
	DB	0ffH
	DB	0ffH
	DB	0ffH
	DB	0ffH
	DB	0ffH
	DB	0ffH
	DB	0ffH
	DB	0ffH
	DB	0ffH
	DB	0ffH
	DB	0ffH
	DB	0ffH
	DB	0ffH
	DB	0ffH
	DB	0ffH
	DB	0ffH
	DB	0ffH
	DB	0ffH
	DB	0ffH
	DB	0ffH
	DB	0ffH
	DB	0ffH
	DB	0ffH
	DB	0ffH
	DB	0ffH
	DB	0ffH
	DB	0ffH
	DB	0ffH
	DB	0ffH
	DB	0ffH
	DB	0ffH
	DB	0ffH
	DB	0ffH
	DB	0ffH
	DB	0ffH
	DB	0ffH
	DB	0ffH
	DB	0ffH
	DB	0ffH
	DB	0ffH
	DB	0ffH
	DB	0ffH
	DB	0ffH
	DB	0ffH
	DB	0ffH
	DB	0ffH
	DB	0ffH
	DB	0ffH
	DB	0ffH
	DB	0ffH
	DB	0ffH
	DB	0ffH
	DB	0ffH
	DB	0ffH
	DB	0ffH
	DB	0ffH
	DB	0ffH
	DB	0ffH
	DB	0ffH
	DB	0ffH
	DB	0ffH
	DB	0ffH
	DB	0ffH
	DB	0ffH
	DB	0ffH
	DB	0ffH
	DB	0ffH
	DB	0ffH
	DB	0ffH
	DB	0ffH
	DB	0ffH
	DB	0ffH
	DB	0ffH
	DB	0ffH
	DB	0ffH
	DB	0ffH
	DB	0ffH
	DB	0ffH
	DB	0ffH
	DB	0ffH
	DB	0ffH
	DB	0ffH
	DB	0ffH
	DB	0ffH
	DB	0ffH
	DB	0ffH
	DB	0ffH
	DB	0ffH
	DB	0ffH
	DB	0ffH
	DB	0ffH
	DB	0ffH
	DB	0ffH
	DB	0ffH
	DB	0ffH
	DB	0ffH
	DB	0ffH
	DB	0ffH
	DB	0ffH
	DB	0ffH
	DB	0ffH
	DB	0ffH
	DB	0ffH
	DB	0ffH
	DB	0ffH
	DB	0ffH
	DB	0ffH
	DB	0ffH
	DB	0ffH
	DB	0ffH
	DB	0ffH
	DB	0ffH
	DB	0ffH
	DB	0ffH
	DB	0ffH
	DB	0ffH
	DB	0ffH
	DB	0ffH
	DB	0ffH
	DB	0ffH
	DB	0ffH
	DB	0ffH
	DB	0ffH
	DB	0ffH
	DB	0ffH
	DB	0ffH
	DB	0ffH
	DB	0ffH
	DB	0ffH
	DB	0ffH
	DB	0ffH
	DB	0ffH
	DB	0ffH
	DB	0ffH
	DB	0ffH
	DB	0ffH
	DB	0ffH
	DB	0ffH
	DB	0ffH
	DB	0ffH
	DB	0ffH
	DB	0ffH
	DB	0ffH
	DB	0ffH
	DB	0ffH
	DB	0ffH
	DB	0ffH
	DB	0ffH
	DB	0ffH
	DB	0ffH
	DB	0ffH
	DB	0ffH
	DB	0ffH
	DB	0ffH
	DB	0ffH
	DB	0ffH
	DB	0ffH
	DB	0ffH
	DB	0ffH
	DB	0ffH
	DB	0ffH
	DB	0ffH
	DB	0ffH
	DB	0ffH
	DB	0ffH
	DB	0ffH
	DB	0ffH
	DB	0ffH
	DB	0ffH
	DB	0ffH
	DB	0ffH
	DB	0ffH
	DB	0ffH
	DB	0ffH
	DB	0ffH
	DB	0ffH
	DB	0ffH
	DB	0ffH
	DB	0ffH
	DB	0ffH
	DB	0ffH
	DB	0ffH
	DB	0ffH
	DB	0ffH
	DB	0ffH
	DB	0ffH
	DB	0ffH
	DB	0ffH
	DB	0ffH
	DB	0ffH
	DB	0ffH
	DB	0ffH
	DB	0ffH
	DB	0ffH
	DB	0ffH
	DB	0ffH
	DB	0ffH
	DB	0ffH
	DB	0ffH
	DB	0ffH
	DB	0ffH
	DB	0ffH
	DB	0ffH
	DB	0ffH
	DB	0ffH
	DB	0ffH
	DB	0ffH
	DB	0ffH
	DB	0ffH
	DB	0ffH
	DB	0ffH
	DB	0ffH
	DB	0ffH
	DB	0ffH
	DB	0ffH
	DB	0ffH
	DB	0ffH
	DB	0ffH
	DB	0ffH
	DB	0ffH
	DB	0ffH
	DB	0ffH
	DB	0ffH
	DB	0ffH
	DB	0ffH
	DB	0ffH
	DB	0ffH
	DB	0ffH
	DB	0ffH
	DB	0ffH
	DB	0ffH
	DB	0ffH
	DB	0ffH
	DB	0ffH
	DB	0ffH
	DB	0ffH
	DB	0ffH
	DB	0ffH
	DB	0ffH
	DB	0ffH
	DB	0ffH
	DB	0ffH
	DB	0ffH
	DB	0ffH
	DB	0ffH
	DB	0ffH
	DB	0ffH
	DB	0ffH
	DB	0ffH
	DB	0ffH
	DB	0ffH
	DB	0ffH
	DB	0ffH
	DB	0ffH
	DB	0ffH
	DB	0ffH
	DB	0ffH
	DB	0ffH
	DB	0ffH
	DB	0ffH
	DB	0ffH
	DB	0ffH
	DB	0ffH
	DB	0ffH
	DB	0ffH
	DB	0ffH
	DB	0ffH
	DB	0ffH
	DB	0ffH
	DB	0ffH
	DB	0ffH
	DB	0ffH
	DB	0ffH
	DB	0ffH
	DB	0ffH
	DB	0ffH
	DB	0ffH
	DB	0ffH
	DB	0ffH
	DB	0ffH
	DB	0ffH
	DB	0ffH
	DB	0ffH
	DB	0ffH
	DB	0ffH
	DB	0ffH
	DB	0ffH
	DB	0ffH
	DB	0ffH
	DB	0ffH
	DB	0ffH
	DB	0ffH
	DB	0ffH
	DB	0ffH
	DB	0ffH
	DB	0ffH
	DB	0ffH
	DB	0ffH
	DB	0ffH
	DB	0ffH
	DB	0ffH
	DB	0ffH
	DB	0ffH
	DB	0ffH
	DB	0ffH
	DB	0ffH
	DB	0ffH
	DB	0ffH
	DB	0ffH
	DB	0ffH
	DB	0ffH
	DB	0ffH
	DB	0ffH
	DB	0ffH
	DB	0ffH
	DB	0ffH
	DB	0ffH
	DB	0ffH
	DB	0ffH
	DB	0ffH
	DB	0ffH
	DB	0ffH
	DB	0ffH
	DB	0ffH
	DB	0ffH
	DB	0ffH
	DB	0ffH
	DB	0ffH
	DB	0ffH
	DB	0ffH
	DB	0ffH
	DB	0ffH
	DB	0ffH
	DB	0ffH
	DB	0ffH
	DB	0ffH
	DB	0ffH
	DB	0ffH
	DB	0ffH
	DB	0ffH
	DB	0ffH
	DB	0ffH
	DB	0ffH
	DB	0ffH
	DB	0ffH
	DB	0ffH
	DB	0ffH
	DB	0ffH
	DB	0ffH
	DB	0ffH
	DB	0ffH
	DB	0ffH
	DB	0ffH
	DB	0ffH
	DB	0ffH
	DB	0ffH
	DB	0ffH
	DB	0ffH
	DB	0ffH
	DB	0ffH
	DB	0ffH
	DB	0ffH
	DB	0ffH
	DB	0ffH
	DB	0ffH
	DB	0ffH
	DB	0ffH
	DB	0ffH
	DB	0ffH
	DB	0ffH
	DB	0ffH
	DB	0ffH
	DB	0ffH
	DB	0ffH
	DB	0ffH
	DB	0ffH
	DB	0ffH
	DB	0ffH
	DB	0ffH
	DB	0ffH
	DB	0ffH
	DB	0ffH
	DB	0ffH
	DB	0ffH
	DB	0ffH
	DB	0ffH
	DB	0ffH
	DB	0ffH
	DB	0ffH
	DB	0ffH
	DB	0ffH
	DB	0ffH
	DB	0ffH
	DB	0ffH
	DB	0ffH
	DB	0ffH
	DB	0ffH
	DB	0ffH
	DB	0ffH
	DB	0ffH
	DB	0ffH
	DB	0ffH
	DB	0ffH
	DB	0ffH
	DB	0ffH
	DB	0ffH
	DB	0ffH
	DB	0ffH
	DB	0ffH
	DB	0ffH
	DB	0ffH
	DB	0ffH
	DB	0ffH
	DB	0ffH
	DB	0ffH
	DB	0ffH
	DB	0ffH
	DB	0ffH
	DB	0ffH
	DB	0ffH
	DB	0ffH
	DB	0ffH
	DB	0ffH
	DB	0ffH
	DB	0ffH
	DB	0ffH
	DB	0ffH
	DB	0ffH
	DB	0ffH
	DB	0ffH
	DB	0ffH
	DB	0ffH
	DB	0ffH
	DB	0ffH
	DB	0ffH
	DB	0ffH
	DB	0ffH
	DB	0ffH
	DB	0ffH
	DB	0ffH
	DB	0ffH
	DB	0ffH
	DB	0ffH
	DB	0ffH
	DB	0ffH
	DB	0ffH
	DB	0ffH
	DB	0ffH
	DB	0ffH
	DB	0ffH
	DB	0ffH
	DB	0ffH
	DB	0ffH
	DB	0ffH
	DB	0ffH
	DB	0ffH
	DB	0ffH
	DB	0ffH
	DB	0ffH
	DB	0ffH
	DB	0ffH
	DB	0ffH
	DB	0ffH
	DB	0ffH
	DB	0ffH
	DB	0ffH
	DB	0ffH
	DB	0ffH
	DB	0ffH
	DB	0ffH
	DB	0ffH
	DB	0ffH
	DB	0ffH
	DB	0ffH
	DB	0ffH
	DB	0ffH
	DB	0ffH
	DB	0ffH
	DB	0ffH
	DB	0ffH
	DB	0ffH
	DB	0ffH
	DB	0ffH
	DB	0ffH
	DB	0ffH
	DB	0ffH
	DB	0ffH
	DB	0ffH
	DB	0ffH
	DB	0ffH
	DB	0ffH
	DB	0ffH
	DB	0ffH
	DB	0ffH
	DB	0ffH
	DB	0ffH
	DB	0ffH
	DB	0ffH
	DB	0ffH
	DB	0ffH
	DB	0ffH
	DB	0ffH
	DB	0ffH
	DB	0ffH
	DB	0ffH
	DB	0ffH
	DB	0ffH
	DB	0ffH
	DB	0ffH
	DB	0ffH
	DB	0ffH
	DB	0ffH
	DB	0ffH
	DB	0ffH
	DB	0ffH
	DB	0ffH
	DB	0ffH
	DB	0ffH
	DB	0ffH
	DB	0ffH
	DB	0ffH
	DB	0ffH
	DB	0ffH
	DB	0ffH
	DB	0ffH
	DB	0ffH
	DB	0ffH
	DB	0ffH
	DB	0ffH
	DB	0ffH
	DB	0ffH
	DB	0ffH
	DB	0ffH
	DB	0ffH
	DB	0ffH
	DB	0ffH
	DB	0ffH
	DB	0ffH
	DB	0ffH
	DB	0ffH
	DB	0ffH
	DB	0ffH
	DB	0ffH
	DB	0ffH
	DB	0ffH
	DB	0ffH
	DB	0ffH
	DB	0ffH
	DB	0ffH
	DB	0ffH
	DB	0ffH
	DB	0ffH
	DB	0ffH
	DB	0ffH
	DB	0ffH
	DB	0ffH
	DB	0ffH
	DB	0ffH
	DB	0ffH
	DB	0ffH
	DB	0ffH
	DB	0ffH
	DB	0ffH
	DB	0ffH
	DB	0ffH
	DB	0ffH
	DB	0ffH
	DB	0ffH
	DB	0ffH
	DB	0ffH
	DB	0ffH
	DB	0ffH
	DB	0ffH
	DB	0ffH
	DB	0ffH
	DB	0ffH
	DB	0ffH
	DB	0ffH
	DB	0ffH
	DB	0ffH
	DB	0ffH
	DB	0ffH
	DB	0ffH
	DB	0ffH
	DB	0ffH
	DB	0ffH
	DB	0ffH
	DB	0ffH
	DB	0ffH
	DB	0ffH
	DB	0ffH
	DB	0ffH
	DB	0ffH
	DB	0ffH
	DB	0ffH
	DB	0ffH
	DB	0ffH
	DB	0ffH
	DB	0ffH
	DB	0ffH
	DB	0ffH
	DB	0ffH
	DB	0ffH
	DB	0ffH
	DB	0ffH
	DB	0ffH
	DB	0ffH
	DB	0ffH
	DB	0ffH
	DB	0ffH
	DB	0ffH
	DB	0ffH
	DB	0ffH
	DB	0ffH
	DB	0ffH
	DB	0ffH
	DB	0ffH
	DB	0ffH
	DB	0ffH
	DB	0ffH
	DB	0ffH
	DB	0ffH
	DB	0ffH
	DB	0ffH
	DB	0ffH
	DB	0ffH
	DB	0ffH
	DB	0ffH
	DB	0ffH
	DB	0ffH
	DB	0ffH
	DB	0ffH
	DB	0ffH
	DB	0ffH
	DB	0ffH
	DB	0ffH
	DB	0ffH
	DB	0ffH
	DB	0ffH
	DB	0ffH
	DB	0ffH
	DB	0ffH
	DB	0ffH
	DB	0ffH
	DB	0ffH
	DB	0ffH
	DB	0ffH
	DB	0ffH
	DB	0ffH
	DB	0ffH
	DB	0ffH
	DB	0ffH
	DB	0ffH
	DB	0ffH
	DB	0ffH
	DB	0ffH
	DB	0ffH
	DB	0ffH
	DB	0ffH
	DB	0ffH
	DB	0ffH
	DB	0ffH
	DB	0ffH
	DB	0ffH
	DB	0ffH
	DB	0ffH
	DB	0ffH
	DB	0ffH
	DB	0ffH
	DB	0ffH
	DB	0ffH
	DB	0ffH
	DB	0ffH
	DB	0ffH
	DB	0ffH
	DB	0ffH
	DB	0ffH
	DB	0ffH
	DB	0ffH
	DB	0ffH
	DB	0ffH
	DB	0ffH
	DB	0ffH
	DB	0ffH
	DB	0ffH
	DB	0ffH
	DB	0ffH
	DB	0ffH
	DB	0ffH
	DB	0ffH
	DB	0ffH
	DB	0ffH
	DB	0ffH
	DB	0ffH
	DB	0ffH
	DB	0ffH
	DB	0ffH
	DB	0ffH
	DB	0ffH
	DB	0ffH
	DB	0ffH
	DB	0ffH
	DB	0ffH
	DB	0ffH
	DB	0ffH
	DB	0ffH
	DB	0ffH
	DB	0ffH
	DB	0ffH
	DB	0ffH
	DB	0ffH
	DB	0ffH
	DB	0ffH
	DB	0ffH
	DB	0ffH
	DB	0ffH
	DB	0ffH
	DB	0ffH
	DB	0ffH
	DB	0ffH
	DB	0ffH
	DB	0ffH
	DB	0ffH
	DB	0ffH
	DB	0ffH
	DB	0ffH
	DB	0ffH
	DB	0ffH
	DB	0ffH
	DB	0ffH
	DB	0ffH
	DB	0ffH
	DB	0ffH
	DB	0ffH
	DB	0ffH
	DB	0ffH
	DB	0ffH
	DB	0ffH
	DB	0ffH
	DB	0ffH
	DB	0ffH
	DB	0ffH
	DB	0ffH
	DB	0ffH
	DB	0ffH
	DB	0ffH
	DB	0ffH
	DB	0ffH
	DB	0ffH
	DB	0ffH
	DB	0ffH
	DB	0ffH
	DB	0ffH
	DB	0ffH
	DB	0ffH
	DB	0ffH
	DB	0ffH
	DB	0ffH
	DB	0ffH
	DB	0ffH
	DB	0ffH
	DB	0ffH
	DB	0ffH
	DB	0ffH
	DB	0ffH
	DB	0ffH
	DB	0ffH
	DB	0ffH
	DB	0ffH
	DB	0ffH
	DB	0ffH
	DB	0ffH
	DB	0ffH
	DB	0ffH
	DB	0ffH
	DB	0ffH
	DB	0ffH
	DB	0ffH
	DB	0ffH
	DB	0ffH
	DB	0ffH
	DB	0ffH
	DB	0ffH
	DB	0ffH
	DB	0ffH
	DB	0ffH
	DB	0ffH
	DB	0ffH
	DB	0ffH
	DB	0ffH
	DB	0ffH
	DB	0ffH
	DB	0ffH
	DB	0ffH
	DB	0ffH
	DB	0ffH
	DB	0ffH
	DB	0ffH
	DB	0ffH
	DB	0ffH
	DB	0ffH
	DB	0ffH
	DB	0ffH
	DB	0ffH
	DB	0ffH
	DB	0ffH
	DB	0ffH
	DB	0ffH
	DB	0ffH
	DB	0ffH
	DB	0ffH
	DB	0ffH
	DB	0ffH
	DB	0ffH
	DB	0ffH
	DB	0ffH
	DB	0ffH
	DB	0ffH
	DB	0ffH
	DB	0ffH
	DB	0ffH
	DB	0ffH
	DB	0ffH
	DB	0ffH
	DB	0ffH
	DB	0ffH
	DB	0ffH
	DB	0ffH
	DB	0ffH
	DB	0ffH
	DB	0ffH
	DB	0ffH
	DB	0ffH
	DB	0ffH
	DB	0ffH
	DB	0ffH
	DB	0ffH
	DB	0ffH
	DB	0ffH
	DB	0ffH
	DB	0ffH
	DB	0ffH
	DB	0ffH
	DB	0ffH
	DB	0ffH
	DB	0ffH
	DB	0ffH
	DB	0ffH
	DB	0ffH
	DB	0ffH
	DB	0ffH
	DB	0ffH
	DB	0ffH
	DB	0ffH
	DB	0ffH
	DB	0ffH
	DB	0ffH
	DB	0ffH
	DB	0ffH
	DB	0ffH
	DB	0ffH
	DB	0ffH
	DB	0ffH
	DB	0ffH
	DB	0ffH
	DB	0ffH
	DB	0ffH
	DB	0ffH
	DB	0ffH
	DB	0ffH
	DB	0ffH
	DB	0ffH
	DB	0ffH
	DB	0ffH
	DB	0ffH
	DB	0ffH
	DB	0ffH
	DB	0ffH
	DB	0ffH
	DB	0ffH
	DB	0ffH
	DB	0ffH
	DB	0ffH
	DB	0ffH
	DB	0ffH
	DB	0ffH
	DB	0ffH
	DB	0ffH
	DB	0ffH
	DB	0ffH
	DB	0ffH
	DB	0ffH
	DB	0ffH
	DB	0ffH
	DB	0ffH
	DB	0ffH
	DB	0ffH
	DB	0ffH
	DB	0ffH
	DB	0ffH
	DB	0ffH
	DB	0ffH
	DB	0ffH
	DB	0ffH
	DB	0ffH
	DB	0ffH
	DB	0ffH
	DB	0ffH
	DB	0ffH
	DB	0ffH
	DB	0ffH
	DB	0ffH
	DB	0ffH
	DB	0ffH
	DB	0ffH
	DB	0ffH
	DB	0ffH
	DB	0ffH
	DB	0ffH
	DB	0ffH
	DB	0ffH
	DB	0ffH
	DB	0ffH
	DB	0ffH
	DB	0ffH
	DB	0ffH
	DB	0ffH
	DB	0ffH
	DB	0ffH
	DB	0ffH
	DB	0ffH
	DB	0ffH
	DB	0ffH
	DB	0ffH
	DB	0ffH
	DB	0ffH
	DB	0ffH
	DB	0ffH
	DB	0ffH
	DB	0ffH
	DB	0ffH
	DB	0ffH
	DB	0ffH
	DB	0ffH
	DB	0ffH
	DB	0ffH
	DB	0ffH
	DB	0ffH
	DB	0ffH
	DB	0ffH
	DB	0ffH
	DB	0ffH
	DB	0ffH
	DB	0ffH
	DB	0ffH
	DB	0ffH
	DB	0ffH
	DB	0ffH
	DB	0ffH
	DB	0ffH
	DB	0ffH
	DB	0ffH
	DB	0ffH
	DB	0ffH
	DB	0ffH
	DB	0ffH
	DB	0ffH
	DB	0ffH
	DB	0ffH
	DB	0ffH
	DB	0ffH
	DB	0ffH
	DB	0ffH
	DB	0ffH
	DB	0ffH
	DB	0ffH
	DB	0ffH
	DB	0ffH
	DB	0ffH
	DB	0ffH
	DB	0ffH
	DB	0ffH
	DB	0ffH
	DB	0ffH
	DB	0ffH
	DB	0ffH
	DB	0ffH
	DB	0ffH
	DB	0ffH
	DB	0ffH
	DB	0ffH
	DB	0ffH
	DB	0ffH
	DB	0ffH
	DB	0ffH
	DB	0ffH
	DB	0ffH
	DB	0ffH
	DB	0ffH
	DB	0ffH
	DB	0ffH
	DB	0ffH
	DB	0ffH
	DB	0ffH
	DB	0ffH
	DB	0ffH
	DB	0ffH
	DB	0ffH
	DB	0ffH
	DB	0ffH
	DB	0ffH
	DB	0ffH
	DB	0ffH
	DB	0ffH
	DB	0ffH
	DB	0ffH
	DB	0ffH
	DB	0ffH
	DB	0ffH
	DB	0ffH
	DB	0ffH
	DB	0ffH
	DB	0ffH
	DB	0ffH
	DB	0ffH
	DB	0ffH
	DB	0ffH
	DB	0ffH
	DB	0ffH
	DB	0ffH
	DB	0ffH
	DB	0ffH
	DB	0ffH
	DB	0ffH
	DB	0ffH
	DB	0ffH
	DB	0ffH
	DB	0ffH
	DB	0ffH
	DB	0ffH
	DB	0ffH
	DB	0ffH
	DB	0ffH
	DB	0ffH
	DB	0ffH
	DB	0ffH
	DB	0ffH
	DB	0ffH
	DB	0ffH
	DB	0ffH
	DB	0ffH
	DB	0ffH
	DB	0ffH
	DB	0ffH
	DB	0ffH
	DB	0ffH
	DB	0ffH
	DB	0ffH
	DB	0ffH
	DB	0ffH
	DB	0ffH
	DB	0ffH
	DB	0ffH
	DB	0ffH
	DB	0ffH
	DB	0ffH
	DB	0ffH
	DB	0ffH
	DB	0ffH
	DB	0ffH
	DB	0ffH
	DB	0ffH
	DB	0ffH
	DB	0ffH
	DB	0ffH
	DB	0ffH
	DB	0ffH
	DB	0ffH
	DB	0ffH
	DB	0ffH
	DB	0ffH
	DB	0ffH
	DB	0ffH
	DB	0ffH
	DB	0ffH
	DB	0ffH
	DB	0ffH
	DB	0ffH
	DB	0ffH
	DB	0ffH
	DB	0ffH
	DB	0ffH
	DB	0ffH
	DB	0ffH
	DB	0ffH
	DB	0ffH
	DB	0ffH
	DB	0ffH
	DB	0ffH
	DB	0ffH
	DB	0ffH
	DB	0ffH
	DB	0ffH
	DB	0ffH
	DB	0ffH
	DB	0ffH
	DB	0ffH
	DB	0ffH
	DB	0ffH
	DB	0ffH
	DB	0ffH
	DB	0ffH
	DB	0ffH
	DB	0ffH
	DB	0ffH
	DB	0ffH
	DB	0ffH
	DB	0ffH
	DB	0ffH
	DB	0ffH
	DB	0ffH
	DB	0ffH
	DB	0ffH
	DB	0ffH
	DB	0ffH
	DB	0ffH
	DB	0ffH
	DB	0ffH
	DB	0ffH
	DB	0ffH
	DB	0ffH
	DB	0ffH
	DB	0ffH
	DB	0ffH
	DB	0ffH
	DB	0ffH
	DB	0ffH
	DB	0ffH
	DB	0ffH
	DB	0ffH
	DB	0ffH
	DB	0ffH
	DB	0ffH
	DB	0ffH
	DB	0ffH
	DB	0ffH
	DB	0ffH
	DB	0ffH
	DB	0ffH
	DB	0ffH
	DB	0ffH
	DB	0ffH
	DB	0ffH
	DB	0ffH
	DB	0ffH
	DB	0ffH
	DB	0ffH
	DB	0ffH
	DB	0ffH
	DB	0ffH
	DB	0ffH
	DB	0ffH
	DB	0ffH
	DB	0ffH
	DB	0ffH
	DB	0ffH
	DB	0ffH
	DB	0ffH
	DB	0ffH
	DB	0ffH
	DB	0ffH
	DB	0ffH
	DB	0ffH
	DB	0ffH
	DB	0ffH
	DB	0ffH
	DB	0ffH
	DB	0ffH
	DB	0ffH
	DB	0ffH
	DB	0ffH
	DB	0ffH
	DB	0ffH
	DB	0ffH
	DB	0ffH
	DB	0ffH
	DB	0ffH
	DB	0ffH
	DB	0ffH
	DB	0ffH
	DB	0ffH
	DB	0ffH
	DB	0ffH
	DB	0ffH
	DB	0ffH
	DB	0ffH
	DB	0ffH
	DB	0ffH
	DB	0ffH
	DB	0ffH
	DB	0ffH
	DB	0ffH
	DB	0ffH
	DB	0ffH
	DB	0ffH
	DB	0ffH
	DB	0ffH
	DB	0ffH
	DB	0ffH
	DB	0ffH
	DB	0ffH
	DB	0ffH
	DB	0ffH
	DB	0ffH
	DB	0ffH
	DB	0ffH
	DB	0ffH
	DB	0ffH
	DB	0ffH
	DB	0ffH
	DB	0ffH
	DB	0ffH
	DB	0ffH
	DB	0ffH
	DB	0ffH
	DB	0ffH
	DB	0ffH
	DB	0ffH
	DB	0ffH
	DB	0ffH
	DB	0ffH
	DB	0ffH
	DB	0ffH
	DB	0ffH
	DB	0ffH
	DB	0ffH
	DB	0ffH
	DB	0ffH
	DB	0ffH
	DB	0ffH
	DB	0ffH
	DB	0ffH
	DB	0ffH
	DB	0ffH
	DB	0ffH
	DB	0ffH
	DB	0ffH
	DB	0ffH
	DB	0ffH
	DB	0ffH
	DB	0ffH
	DB	0ffH
	DB	0ffH
	DB	0ffH
	DB	0ffH
	DB	0ffH
	DB	0ffH
	DB	0ffH
	DB	0ffH
	DB	0ffH
	DB	0ffH
	DB	0ffH
	DB	0ffH
	DB	0ffH
	DB	0ffH
	DB	0ffH
	DB	0ffH
	DB	0ffH
	DB	0ffH
	DB	0ffH
	DB	0ffH
	DB	0ffH
	DB	0ffH
	DB	0ffH
	DB	0ffH
	DB	0ffH
	DB	0ffH
	DB	0ffH
	DB	0ffH
	DB	0ffH
	DB	0ffH
	DB	0ffH
	DB	0ffH
	DB	0ffH
	DB	0ffH
	DB	0ffH
	DB	0ffH
	DB	0ffH
	DB	0ffH
	DB	0ffH
	DB	0ffH
	DB	0ffH
	DB	0ffH
	DB	0ffH
	DB	0ffH
	DB	0ffH
	DB	0ffH
	DB	0ffH
	DB	0ffH
	DB	0ffH
	DB	0ffH
	DB	0ffH
	DB	0ffH
	DB	0ffH
	DB	0ffH
	DB	0ffH
	DB	0ffH
	DB	0ffH
	DB	0ffH
	DB	0ffH
	DB	0ffH
	DB	0ffH
	DB	0ffH
	DB	0ffH
	DB	0ffH
	DB	0ffH
	DB	0ffH
	DB	0ffH
	DB	0ffH
	DB	0ffH
	DB	0ffH
	DB	0ffH
	DB	0ffH
	DB	0ffH
	DB	0ffH
	DB	0ffH
	DB	0ffH
	DB	0ffH
	DB	0ffH
	DB	0ffH
	DB	0ffH
	DB	0ffH
	DB	0ffH
	DB	0ffH
	DB	0ffH
	DB	0ffH
	DB	0ffH
	DB	0ffH
	DB	0ffH
	DB	0ffH
	DB	0ffH
	DB	0ffH
	DB	0ffH
	DB	0ffH
	DB	0ffH
	DB	0ffH
	DB	0ffH
	DB	0ffH
	DB	0ffH
	DB	0ffH
	DB	0ffH
	DB	0ffH
	DB	0ffH
	DB	0ffH
	DB	0ffH
	DB	0ffH
	DB	0ffH
	DB	0ffH
	DB	0ffH
	DB	0ffH
	DB	0ffH
	DB	0ffH
	DB	0ffH
	DB	0ffH
	DB	0ffH
	DB	0ffH
	DB	0ffH
	DB	0ffH
	DB	0ffH
	DB	0ffH
	DB	0ffH
	DB	0ffH
	DB	0ffH
	DB	0ffH
	DB	0ffH
	DB	0ffH
	DB	0ffH
	DB	0ffH
	DB	0ffH
	DB	0ffH
	DB	0ffH
	DB	0ffH
	DB	0ffH
	DB	0ffH
	DB	0ffH
	DB	0ffH
	DB	0ffH
	DB	0ffH
	DB	0ffH
	DB	0ffH
	DB	0ffH
	DB	0ffH
	DB	0ffH
	DB	0ffH
	DB	0ffH
	DB	0ffH
	DB	0ffH
	DB	0ffH
	DB	0ffH
	DB	0ffH
	DB	0ffH
	DB	0ffH
	DB	0ffH
	DB	0ffH
	DB	0ffH
	DB	0ffH
	DB	0ffH
	DB	0ffH
	DB	0ffH
	DB	0ffH
	DB	0ffH
	DB	0ffH
	DB	0ffH
	DB	0ffH
	DB	0ffH
	DB	0ffH
	DB	0ffH
	DB	0ffH
	DB	0ffH
	DB	0ffH
	DB	0ffH
	DB	0ffH
	DB	0ffH
	DB	0ffH
	DB	0ffH
	DB	0ffH
	DB	0ffH
	DB	0ffH
	DB	0ffH
	DB	0ffH
	DB	0ffH
	DB	0ffH
	DB	0ffH
	DB	0ffH
	DB	0ffH
	DB	0ffH
	DB	0ffH
	DB	0ffH
	DB	0ffH
	DB	0ffH
	DB	0ffH
	DB	0ffH
	DB	0ffH
	DB	0ffH
	DB	0ffH
	DB	0ffH
	DB	0ffH
	DB	0ffH
	DB	0ffH
	DB	0ffH
	DB	0ffH
	DB	0ffH
	DB	0ffH
	DB	0ffH
	DB	0ffH
	DB	0ffH
	DB	0ffH
	DB	0ffH
	DB	0ffH
	DB	0ffH
	DB	0ffH
	DB	0ffH
	DB	0ffH
	DB	0ffH
	DB	0ffH
	DB	0ffH
	DB	0ffH
	DB	0ffH
	DB	0ffH
	DB	0ffH
	DB	0ffH
	DB	0ffH
	DB	0ffH
	DB	0ffH
	DB	0ffH
	DB	0ffH
	DB	0ffH
	DB	0ffH
	DB	0ffH
	DB	0ffH
	DB	0ffH
	DB	0ffH
	DB	0ffH
	DB	0ffH
	DB	0ffH
	DB	0ffH
	DB	0ffH
	DB	0ffH
	DB	0ffH
	DB	0ffH
	DB	0ffH
	DB	0ffH
	DB	0ffH
	DB	0ffH
	DB	0ffH
	DB	0ffH
	DB	0ffH
	DB	0ffH
	DB	0ffH
	DB	0ffH
	DB	0ffH
	DB	0ffH
	DB	0ffH
	DB	0ffH
	DB	0ffH
	DB	0ffH
	DB	0ffH
	DB	0ffH
	DB	0ffH
	DB	0ffH
	DB	0ffH
	DB	0ffH
	DB	0ffH
	DB	0ffH
	DB	0ffH
	DB	0ffH
	DB	0ffH
	DB	0ffH
	DB	0ffH
	DB	0ffH
	DB	0ffH
	DB	0ffH
	DB	0ffH
	DB	0ffH
	DB	0ffH
	DB	0ffH
	DB	0ffH
	DB	0ffH
	DB	0ffH
	DB	0ffH
	DB	0ffH
	DB	0ffH
	DB	0ffH
	DB	0ffH
	DB	0ffH
	DB	0ffH
	DB	00H
	DB	0ffH
	DB	0ffH
	DB	0ffH
	DB	0ffH
	DB	0ffH
	DB	0ffH
	DB	0ffH
	DB	0ffH
	DB	0ffH
	DB	0ffH
	DB	0ffH
	DB	0ffH
	DB	0ffH
	DB	0ffH
	DB	0ffH
	DB	0ffH
	DB	0ffH
	DB	0ffH
	DB	0ffH
	DB	0ffH
	DB	0ffH
	DB	0ffH
	DB	0ffH
	DB	0ffH
	DB	0ffH
	DB	0ffH
	DB	0ffH
	DB	0ffH
	DB	0ffH
	DB	0ffH
	DB	0ffH
	DB	0ffH
	DB	0ffH
	DB	0ffH
	DB	0ffH
	DB	0ffH
	DB	0ffH
	DB	0ffH
	DB	0ffH
	DB	0ffH
	DB	0ffH
	DB	0ffH
	DB	0ffH
	DB	0ffH
	DB	0ffH
	DB	0ffH
	DB	0ffH
	DB	0ffH
	DB	0ffH
	DB	0ffH
	DB	0ffH
	DB	0ffH
	DB	0ffH
	DB	00H
	DB	00H
	DB	00H
	DB	0ffH
	DB	0ffH
	DB	0ffH
	DB	0ffH
	DB	0ffH
	DB	0ffH
	DB	0ffH
	DB	0ffH
	DB	0ffH
	DB	0ffH
	DB	0ffH
	DB	0ffH
	DB	0ffH
	DB	0ffH
	DB	0ffH
	DB	0ffH
	DB	0ffH
	DB	0ffH
	DB	0ffH
	DB	0ffH
	DB	0ffH
	DB	0ffH
	DB	0ffH
	DB	0ffH
	DB	0ffH
	DB	0ffH
	DB	0ffH
	DB	0ffH
	DB	0ffH
	DB	0ffH
	DB	0ffH
	DB	0ffH
	DB	0ffH
	DB	0ffH
	DB	0ffH
	DB	0ffH
	DB	0ffH
	DB	0ffH
	DB	0ffH
	DB	0ffH
	DB	0ffH
	DB	0ffH
	DB	0ffH
	DB	0ffH
	DB	0ffH
	DB	0ffH
	DB	0ffH
	DB	0ffH
	DB	0ffH
	DB	0ffH
	DB	0ffH
	DB	00H
	DB	00H
	DB	00H
	DB	00H
	DB	00H
	DB	00H
	DB	00H
	DB	00H
	DB	00H
	DB	00H
	DB	00H
	DB	00H
	DB	00H
	DB	00H
	DB	00H
	DB	00H
	DB	00H
	DB	00H
	DB	00H
	DB	00H
	DB	00H
	DB	00H
	DB	00H
	DB	00H
	DB	00H
	DB	00H
	DB	00H
	DB	00H
	DB	00H
	DB	00H
	DB	00H
	DB	00H
	DB	00H
	DB	00H
	DB	00H
	DB	00H
	DB	00H
	DB	00H
	DB	00H
	DB	00H
	DB	00H
	DB	00H
	DB	00H
	DB	00H
	DB	00H
	DB	00H
	DB	00H
	DB	00H
	DB	00H
	DB	00H
	DB	00H
	DB	00H
	DB	00H
	DB	00H
	DB	00H
	DB	00H
	DB	00H
CONST	ENDS
END
