; Listing generated by Microsoft (R) Optimizing Compiler Version 19.28.29914.0 

	TITLE	D:\Oscilloscope\Project\Oscilloscope\Graphic\build\Debug\obj\EdgeDown.obj
	.686P
	.XMM
	include listing.inc
	.model	flat

INCLUDELIB MSVCRTD
INCLUDELIB OLDNAMES

PUBLIC	?_EdgeDown@@3QBEB				; _EdgeDown
PUBLIC	?_EdgeDown_alpha_channel@@3QBEB			; _EdgeDown_alpha_channel
CONST	SEGMENT
?_EdgeDown@@3QBEB DB 0c7H				; _EdgeDown
	DB	039H
	DB	0c7H
	DB	039H
	DB	0e7H
	DB	031H
	DB	0c7H
	DB	039H
	DB	0c7H
	DB	039H
	DB	0e7H
	DB	031H
	DB	0c7H
	DB	039H
	DB	0c7H
	DB	039H
	DB	0e7H
	DB	031H
	DB	0c7H
	DB	039H
	DB	0c7H
	DB	039H
	DB	0e7H
	DB	031H
	DB	0c7H
	DB	039H
	DB	0c7H
	DB	039H
	DB	0e7H
	DB	031H
	DB	0c7H
	DB	039H
	DB	0c7H
	DB	039H
	DB	0e7H
	DB	031H
	DB	0c7H
	DB	039H
	DB	0c7H
	DB	039H
	DB	0e7H
	DB	031H
	DB	0c7H
	DB	039H
	DB	0c7H
	DB	039H
	DB	0e7H
	DB	031H
	DB	0c7H
	DB	039H
	DB	0c7H
	DB	039H
	DB	0e7H
	DB	031H
	DB	0c7H
	DB	039H
	DB	0c7H
	DB	039H
	DB	0e7H
	DB	031H
	DB	0c7H
	DB	039H
	DB	0c7H
	DB	039H
	DB	0e7H
	DB	031H
	DB	0c7H
	DB	039H
	DB	0c7H
	DB	039H
	DB	0e7H
	DB	031H
	DB	0c7H
	DB	039H
	DB	0c7H
	DB	039H
	DB	0e7H
	DB	031H
	DB	0c7H
	DB	039H
	DB	0c7H
	DB	039H
	DB	0e7H
	DB	031H
	DB	0c7H
	DB	031H
	DB	0e7H
	DB	039H
	DB	0e7H
	DB	039H
	DB	0c7H
	DB	031H
	DB	0e7H
	DB	039H
	DB	0c7H
	DB	039H
	DB	0e7H
	DB	031H
	DB	0c7H
	DB	039H
	DB	0e7H
	DB	039H
	DB	0c7H
	DB	031H
	DB	0e7H
	DB	039H
	DB	0e7H
	DB	039H
	DB	0c7H
	DB	031H
	DB	0e7H
	DB	039H
	DB	0c7H
	DB	039H
	DB	0e7H
	DB	031H
	DB	0c7H
	DB	039H
	DB	0e7H
	DB	039H
	DB	0c7H
	DB	031H
	DB	0e7H
	DB	039H
	DB	0e7H
	DB	039H
	DB	0c7H
	DB	031H
	DB	0e7H
	DB	039H
	DB	0c7H
	DB	039H
	DB	0e7H
	DB	031H
	DB	0c7H
	DB	039H
	DB	0e7H
	DB	039H
	DB	0c7H
	DB	031H
	DB	0e7H
	DB	039H
	DB	0e7H
	DB	039H
	DB	0c7H
	DB	031H
	DB	0e7H
	DB	039H
	DB	0c7H
	DB	039H
	DB	0e7H
	DB	031H
	DB	0c7H
	DB	039H
	DB	0e7H
	DB	039H
	DB	0c7H
	DB	031H
	DB	0e7H
	DB	039H
	DB	0e7H
	DB	039H
	DB	0c7H
	DB	031H
	DB	0c7H
	DB	039H
	DB	0e7H
	DB	039H
	DB	0c7H
	DB	039H
	DB	0e8H
	DB	031H
	DB	0c7H
	DB	039H
	DB	0e8H
	DB	031H
	DB	0c8H
	DB	039H
	DB	0e7H
	DB	039H
	DB	0c8H
	DB	031H
	DB	0e8H
	DB	039H
	DB	0c7H
	DB	039H
	DB	0e8H
	DB	031H
	DB	0c8H
	DB	039H
	DB	0c7H
	DB	039H
	DB	0e8H
	DB	031H
	DB	0c8H
	DB	039H
	DB	0e7H
	DB	039H
	DB	0c8H
	DB	031H
	DB	0e8H
	DB	039H
	DB	0c7H
	DB	039H
	DB	0e8H
	DB	031H
	DB	0c8H
	DB	039H
	DB	0c7H
	DB	039H
	DB	0e8H
	DB	031H
	DB	0c8H
	DB	039H
	DB	0e7H
	DB	039H
	DB	0c8H
	DB	031H
	DB	0e8H
	DB	039H
	DB	0c7H
	DB	039H
	DB	0e8H
	DB	031H
	DB	0c8H
	DB	039H
	DB	0c7H
	DB	039H
	DB	0e8H
	DB	031H
	DB	0c8H
	DB	039H
	DB	0e7H
	DB	039H
	DB	0c8H
	DB	031H
	DB	0e8H
	DB	039H
	DB	0c7H
	DB	039H
	DB	0e8H
	DB	031H
	DB	0c8H
	DB	039H
	DB	0e7H
	DB	039H
	DB	0e8H
	DB	031H
	DB	0c7H
	DB	039H
	DB	0c7H
	DB	039H
	DB	0e7H
	DB	039H
	DB	0c7H
	DB	039H
	DB	0c7H
	DB	031H
	DB	0e7H
	DB	039H
	DB	0e7H
	DB	031H
	DB	0c7H
	DB	039H
	DB	0e7H
	DB	031H
	DB	0c7H
	DB	039H
	DB	0e7H
	DB	031H
	DB	0e7H
	DB	039H
	DB	0c7H
	DB	031H
	DB	0e7H
	DB	039H
	DB	0c7H
	DB	031H
	DB	0e7H
	DB	039H
	DB	0c7H
	DB	031H
	DB	0e7H
	DB	039H
	DB	0c7H
	DB	031H
	DB	0e7H
	DB	039H
	DB	0e7H
	DB	031H
	DB	0c7H
	DB	039H
	DB	0e7H
	DB	031H
	DB	0c7H
	DB	039H
	DB	0e7H
	DB	031H
	DB	0c7H
	DB	039H
	DB	0e7H
	DB	031H
	DB	0c7H
	DB	039H
	DB	0e7H
	DB	031H
	DB	0e7H
	DB	039H
	DB	0c7H
	DB	031H
	DB	0e7H
	DB	039H
	DB	0c7H
	DB	031H
	DB	0e7H
	DB	039H
	DB	0c7H
	DB	031H
	DB	0e7H
	DB	039H
	DB	0c7H
	DB	031H
	DB	0e7H
	DB	039H
	DB	0c7H
	DB	031H
	DB	0c7H
	DB	039H
	DB	0c7H
	DB	031H
	DB	0e8H
	DB	039H
	DB	0e7H
	DB	031H
	DB	0c7H
	DB	031H
	DB	0c7H
	DB	031H
	DB	0e7H
	DB	039H
	DB	0c8H
	DB	039H
	DB	0c7H
	DB	031H
	DB	0e7H
	DB	039H
	DB	0c8H
	DB	039H
	DB	0c7H
	DB	039H
	DB	0e7H
	DB	031H
	DB	0c8H
	DB	039H
	DB	0c7H
	DB	039H
	DB	0e7H
	DB	031H
	DB	0e8H
	DB	039H
	DB	0c7H
	DB	039H
	DB	0e7H
	DB	031H
	DB	0e8H
	DB	039H
	DB	0c7H
	DB	039H
	DB	0c7H
	DB	031H
	DB	0e8H
	DB	039H
	DB	0c7H
	DB	039H
	DB	0e7H
	DB	031H
	DB	0c8H
	DB	039H
	DB	0e7H
	DB	039H
	DB	0c7H
	DB	031H
	DB	0e8H
	DB	039H
	DB	0c7H
	DB	039H
	DB	0e7H
	DB	031H
	DB	0c8H
	DB	039H
	DB	0c7H
	DB	039H
	DB	0e7H
	DB	031H
	DB	0e8H
	DB	039H
	DB	0c7H
	DB	039H
	DB	0e7H
	DB	031H
	DB	0e8H
	DB	039H
	DB	0c7H
	DB	039H
	DB	0e7H
	DB	031H
	DB	0e8H
	DB	039H
	DB	0e7H
	DB	039H
	DB	0c7H
	DB	031H
	DB	0e7H
	DB	039H
	DB	0c7H
	DB	039H
	DB	0e8H
	DB	039H
	DB	0e7H
	DB	039H
	DB	0c7H
	DB	039H
	DB	0e7H
	DB	031H
	DB	0e8H
	DB	039H
	DB	0c7H
	DB	039H
	DB	0e7H
	DB	031H
	DB	0e8H
	DB	039H
	DB	0c7H
	DB	031H
	DB	0e7H
	DB	039H
	DB	0e8H
	DB	039H
	DB	0c7H
	DB	031H
	DB	0c7H
	DB	039H
	DB	0e8H
	DB	039H
	DB	0c7H
	DB	031H
	DB	0c7H
	DB	039H
	DB	0e8H
	DB	039H
	DB	0c7H
	DB	031H
	DB	0e7H
	DB	039H
	DB	0c8H
	DB	039H
	DB	0c7H
	DB	031H
	DB	0e7H
	DB	039H
	DB	0e8H
	DB	039H
	DB	0c7H
	DB	031H
	DB	0e7H
	DB	039H
	DB	0c8H
	DB	039H
	DB	0e7H
	DB	031H
	DB	0e7H
	DB	039H
	DB	0c8H
	DB	039H
	DB	0c7H
	DB	031H
	DB	0e7H
	DB	039H
	DB	0c8H
	DB	039H
	DB	0c7H
	DB	031H
	DB	0e7H
	DB	039H
	DB	0c8H
	DB	039H
	DB	0c7H
	DB	031H
	DB	0c7H
	DB	039H
	DB	0e8H
	DB	039H
	DB	0c7H
	DB	031H
	DB	0e7H
	DB	039H
	DB	0e8H
	DB	039H
	DB	0c7H
	DB	031H
	DB	0c7H
	DB	031H
	DB	0c7H
	DB	039H
	DB	0c7H
	DB	039H
	DB	0e7H
	DB	031H
	DB	0c7H
	DB	039H
	DB	0e7H
	DB	039H
	DB	0c7H
	DB	031H
	DB	0e7H
	DB	039H
	DB	0c7H
	DB	039H
	DB	0c7H
	DB	031H
	DB	0e7H
	DB	039H
	DB	0e7H
	DB	031H
	DB	0c7H
	DB	039H
	DB	0e7H
	DB	031H
	DB	0c7H
	DB	039H
	DB	0e7H
	DB	039H
	DB	0c7H
	DB	031H
	DB	0e7H
	DB	039H
	DB	0e7H
	DB	039H
	DB	0c7H
	DB	031H
	DB	0e7H
	DB	039H
	DB	0c7H
	DB	039H
	DB	0c7H
	DB	031H
	DB	0e7H
	DB	039H
	DB	0c7H
	DB	039H
	DB	0c7H
	DB	031H
	DB	0e7H
	DB	039H
	DB	0c7H
	DB	039H
	DB	0e7H
	DB	031H
	DB	0e7H
	DB	039H
	DB	0c7H
	DB	039H
	DB	0e7H
	DB	031H
	DB	0c7H
	DB	039H
	DB	0e7H
	DB	039H
	DB	0e7H
	DB	031H
	DB	0c7H
	DB	039H
	DB	0e7H
	DB	039H
	DB	0c7H
	DB	031H
	DB	0c7H
	DB	039H
	DB	0e8H
	DB	031H
	DB	0c7H
	DB	039H
	DB	0e7H
	DB	039H
	DB	0e7H
	DB	031H
	DB	0c7H
	DB	039H
	DB	0e7H
	DB	039H
	DB	0c8H
	DB	031H
	DB	0e7H
	DB	039H
	DB	0c7H
	DB	031H
	DB	0c8H
	DB	039H
	DB	0e7H
	DB	039H
	DB	0e8H
	DB	031H
	DB	0c7H
	DB	039H
	DB	0c7H
	DB	039H
	DB	0e8H
	DB	039H
	DB	0c7H
	DB	031H
	DB	0e8H
	DB	039H
	DB	0e7H
	DB	039H
	DB	0c8H
	DB	031H
	DB	0e7H
	DB	031H
	DB	0c8H
	DB	039H
	DB	0c7H
	DB	031H
	DB	0e7H
	DB	039H
	DB	0e8H
	DB	031H
	DB	0c7H
	DB	039H
	DB	0e8H
	DB	031H
	DB	0e7H
	DB	039H
	DB	0c8H
	DB	031H
	DB	0e7H
	DB	031H
	DB	0c8H
	DB	039H
	DB	0c7H
	DB	031H
	DB	0e7H
	DB	039H
	DB	0c8H
	DB	031H
	DB	0e7H
	DB	039H
	DB	0c8H
	DB	031H
	DB	0e7H
	DB	039H
	DB	0c8H
	DB	031H
	DB	0e7H
	DB	031H
	DB	0e8H
	DB	039H
	DB	0c7H
	DB	031H
	DB	0e7H
	DB	039H
	DB	0e8H
	DB	039H
	DB	0c7H
	DB	031H
	DB	0c7H
	DB	039H
	DB	0e8H
	DB	039H
	DB	0c7H
	DB	031H
	DB	0e7H
	DB	039H
	DB	0c7H
	DB	039H
	DB	0e7H
	DB	039H
	DB	0c8H
	DB	031H
	DB	0e7H
	DB	039H
	DB	0e7H
	DB	031H
	DB	0c8H
	DB	039H
	DB	0e7H
	DB	031H
	DB	0e7H
	DB	031H
	DB	0c8H
	DB	039H
	DB	0c7H
	DB	031H
	DB	0e7H
	DB	039H
	DB	0c7H
	DB	039H
	DB	0c7H
	DB	031H
	DB	0e7H
	DB	039H
	DB	0c8H
	DB	039H
	DB	0e7H
	DB	039H
	DB	0c7H
	DB	031H
	DB	0e8H
	DB	039H
	DB	0c7H
	DB	039H
	DB	0c7H
	DB	031H
	DB	0e7H
	DB	039H
	DB	0c7H
	DB	039H
	DB	0e7H
	DB	039H
	DB	0e8H
	DB	039H
	DB	0c7H
	DB	031H
	DB	0e7H
	DB	039H
	DB	0c8H
	DB	039H
	DB	0e7H
	DB	031H
	DB	0c7H
	DB	039H
	DB	0e7H
	DB	039H
	DB	0c7H
	DB	031H
	DB	0c7H
	DB	039H
	DB	0c8H
	DB	039H
	DB	0e7H
	DB	039H
	DB	0c7H
	DB	031H
	DB	0c8H
	DB	039H
	DB	0e7H
	DB	039H
	DB	0c7H
	DB	031H
	DB	0e7H
	DB	039H
	DB	0c8H
	DB	031H
	DB	0c7H
	DB	039H
	DB	0e7H
	DB	039H
	DB	0c7H
	DB	031H
	DB	0e7H
	DB	039H
	DB	0c7H
	DB	039H
	DB	0c7H
	DB	031H
	DB	0e7H
	DB	039H
	DB	0c7H
	DB	039H
	DB	0c7H
	DB	039H
	DB	0e7H
	DB	039H
	DB	0e7H
	DB	031H
	DB	0c7H
	DB	039H
	DB	0e8H
	DB	039H
	DB	0e7H
	DB	031H
	DB	0c7H
	DB	039H
	DB	0e7H
	DB	039H
	DB	0e7H
	DB	031H
	DB	0c7H
	DB	039H
	DB	0e7H
	DB	039H
	DB	0c7H
	DB	031H
	DB	0e7H
	DB	039H
	DB	0e8H
	DB	039H
	DB	0c7H
	DB	031H
	DB	0c7H
	DB	031H
	DB	0e7H
	DB	039H
	DB	0c7H
	DB	039H
	DB	0e7H
	DB	031H
	DB	0e7H
	DB	039H
	DB	0c7H
	DB	039H
	DB	0e7H
	DB	031H
	DB	0c8H
	DB	039H
	DB	0e7H
	DB	039H
	DB	0e7H
	DB	031H
	DB	0c7H
	DB	039H
	DB	0e7H
	DB	039H
	DB	0e7H
	DB	031H
	DB	0c7H
	DB	039H
	DB	0e7H
	DB	031H
	DB	0c7H
	DB	039H
	DB	0e7H
	DB	039H
	DB	0e7H
	DB	031H
	DB	0c7H
	DB	039H
	DB	0e8H
	DB	031H
	DB	0c7H
	DB	039H
	DB	0e7H
	DB	039H
	DB	0c7H
	DB	031H
	DB	0e8H
	DB	039H
	DB	0e7H
	DB	039H
	DB	0c8H
	DB	031H
	DB	0e7H
	DB	039H
	DB	0c8H
	DB	039H
	DB	0c7H
	DB	031H
	DB	0e7H
	DB	039H
	DB	0c8H
	DB	039H
	DB	0c7H
	DB	031H
	DB	0e8H
	DB	031H
	DB	0c7H
	DB	039H
	DB	0c8H
	DB	031H
	DB	0e7H
	DB	031H
	DB	0c8H
	DB	039H
	DB	0e7H
	DB	039H
	DB	0c7H
	DB	031H
	DB	0c8H
	DB	039H
	DB	0e7H
	DB	039H
	DB	0e8H
	DB	031H
	DB	0c7H
	DB	039H
	DB	0c8H
	DB	039H
	DB	0e7H
	DB	031H
	DB	0c8H
	DB	039H
	DB	0c7H
	DB	039H
	DB	0e7H
	DB	031H
	DB	0c8H
	DB	039H
	DB	0e7H
	DB	039H
	DB	0c8H
	DB	031H
	DB	0e7H
	DB	039H
	DB	0c8H
	DB	039H
	DB	0e7H
	DB	031H
	DB	0c8H
	DB	039H
	DB	0e7H
	DB	039H
	DB	0c7H
	DB	031H
	DB	0e8H
	DB	039H
	DB	0c8H
	DB	039H
	DB	0c7H
	DB	031H
	DB	0e7H
	DB	039H
	DB	0e7H
	DB	039H
	DB	0c7H
	DB	031H
	DB	0c7H
	DB	039H
	DB	0c7H
	DB	031H
	DB	0e8H
	DB	039H
	DB	0c7H
	DB	039H
	DB	0e7H
	DB	031H
	DB	0e7H
	DB	031H
	DB	0c7H
	DB	039H
	DB	0e8H
	DB	031H
	DB	0e7H
	DB	039H
	DB	0c7H
	DB	039H
	DB	0e7H
	DB	031H
	DB	0e7H
	DB	039H
	DB	0c7H
	DB	039H
	DB	0e7H
	DB	039H
	DB	0c8H
	DB	039H
	DB	0e7H
	DB	031H
	DB	0c7H
	DB	039H
	DB	0e8H
	DB	031H
	DB	0c7H
	DB	039H
	DB	0e7H
	DB	039H
	DB	0c7H
	DB	031H
	DB	0e7H
	DB	039H
	DB	0e7H
	DB	039H
	DB	0c8H
	DB	031H
	DB	0e7H
	DB	039H
	DB	0c7H
	DB	031H
	DB	0e8H
	DB	039H
	DB	0c7H
	DB	039H
	DB	0c7H
	DB	031H
	DB	0e7H
	DB	031H
	DB	0c7H
	DB	039H
	DB	0e7H
	DB	039H
	DB	0c8H
	DB	031H
	DB	0c7H
	DB	039H
	DB	0e7H
	DB	039H
	DB	0e8H
	DB	031H
	DB	0c7H
	DB	039H
	DB	0e7H
	DB	031H
	DB	0c7H
	DB	039H
	DB	0e8H
	DB	039H
	DB	0c7H
	DB	031H
	DB	0c7H
	DB	039H
	DB	0c7H
	DB	039H
	DB	0e7H
	DB	031H
	DB	0c7H
	DB	039H
	DB	0c7H
	DB	039H
	DB	0e7H
	DB	031H
	DB	0c8H
	DB	039H
	DB	0c7H
	DB	039H
	DB	0e7H
	DB	031H
	DB	04eH
	DB	06bH
	DB	04dH
	DB	06bH
	DB	06dH
	DB	06bH
	DB	04eH
	DB	06bH
	DB	06dH
	DB	06bH
	DB	04dH
	DB	06bH
	DB	06dH
	DB	06bH
	DB	04dH
	DB	06bH
	DB	06dH
	DB	06bH
	DB	06dH
	DB	06bH
	DB	04dH
	DB	06bH
	DB	04dH
	DB	06bH
	DB	0abH
	DB	04aH
	DB	08aH
	DB	052H
	DB	0e7H
	DB	031H
	DB	0c7H
	DB	039H
	DB	0e7H
	DB	039H
	DB	0e7H
	DB	031H
	DB	0c7H
	DB	039H
	DB	0e7H
	DB	039H
	DB	0e7H
	DB	031H
	DB	0c8H
	DB	039H
	DB	0e7H
	DB	039H
	DB	0e7H
	DB	031H
	DB	0c7H
	DB	039H
	DB	0e7H
	DB	031H
	DB	0c7H
	DB	039H
	DB	0c7H
	DB	039H
	DB	0e7H
	DB	031H
	DB	0c7H
	DB	039H
	DB	0e8H
	DB	039H
	DB	0c7H
	DB	031H
	DB	0e7H
	DB	039H
	DB	0e7H
	DB	039H
	DB	0e7H
	DB	039H
	DB	0e8H
	DB	031H
	DB	0c7H
	DB	039H
	DB	0e7H
	DB	039H
	DB	0e8H
	DB	031H
	DB	0c7H
	DB	039H
	DB	0e7H
	DB	039H
	DB	0aaH
	DB	04aH
	DB	0dbH
	DB	0deH
	DB	0fbH
	DB	0deH
	DB	0dcH
	DB	0deH
	DB	0fbH
	DB	0deH
	DB	0dbH
	DB	0deH
	DB	0fcH
	DB	0deH
	DB	0dbH
	DB	0deH
	DB	0dcH
	DB	0deH
	DB	0fbH
	DB	0deH
	DB	0dbH
	DB	0deH
	DB	0fcH
	DB	0deH
	DB	0bbH
	DB	0d6H
	DB	0ffH
	DB	0ffH
	DB	07aH
	DB	0d6H
	DB	0e7H
	DB	031H
	DB	0c8H
	DB	039H
	DB	0c7H
	DB	039H
	DB	0e8H
	DB	031H
	DB	0c7H
	DB	039H
	DB	0e7H
	DB	031H
	DB	0c8H
	DB	039H
	DB	0c7H
	DB	039H
	DB	0e7H
	DB	031H
	DB	0c8H
	DB	039H
	DB	0e7H
	DB	039H
	DB	0e8H
	DB	031H
	DB	0c7H
	DB	039H
	DB	0e7H
	DB	039H
	DB	0c8H
	DB	031H
	DB	0e7H
	DB	039H
	DB	0c7H
	DB	031H
	DB	0e7H
	DB	039H
	DB	0c8H
	DB	031H
	DB	0c7H
	DB	039H
	DB	0c7H
	DB	039H
	DB	0c7H
	DB	031H
	DB	0e8H
	DB	039H
	DB	0c7H
	DB	031H
	DB	0c7H
	DB	039H
	DB	0e7H
	DB	039H
	DB	0c8H
	DB	031H
	DB	08aH
	DB	052H
	DB	09aH
	DB	0d6H
	DB	09aH
	DB	0d6H
	DB	07aH
	DB	0ceH
	DB	07aH
	DB	0d6H
	DB	09aH
	DB	0d6H
	DB	09aH
	DB	0ceH
	DB	07aH
	DB	0d6H
	DB	09aH
	DB	0d6H
	DB	07aH
	DB	0ceH
	DB	09aH
	DB	0d6H
	DB	07aH
	DB	0d6H
	DB	0f4H
	DB	09cH
	DB	0ffH
	DB	0ffH
	DB	09aH
	DB	0d6H
	DB	0c7H
	DB	039H
	DB	0e7H
	DB	031H
	DB	0c7H
	DB	039H
	DB	0e8H
	DB	039H
	DB	0c7H
	DB	031H
	DB	0c7H
	DB	039H
	DB	0e8H
	DB	039H
	DB	0e7H
	DB	031H
	DB	0c7H
	DB	039H
	DB	0c7H
	DB	039H
	DB	0c7H
	DB	031H
	DB	0e8H
	DB	039H
	DB	0c7H
	DB	031H
	DB	0c7H
	DB	031H
	DB	0a7H
	DB	031H
	DB	0a6H
	DB	031H
	DB	066H
	DB	029H
	DB	066H
	DB	029H
	DB	045H
	DB	021H
	DB	024H
	DB	021H
	DB	0c7H
	DB	039H
	DB	0e7H
	DB	039H
	DB	0e7H
	DB	031H
	DB	0c8H
	DB	039H
	DB	0e7H
	DB	039H
	DB	0e7H
	DB	031H
	DB	0c7H
	DB	039H
	DB	0c8H
	DB	039H
	DB	0e7H
	DB	031H
	DB	0c7H
	DB	039H
	DB	0e7H
	DB	039H
	DB	0c7H
	DB	031H
	DB	0e7H
	DB	039H
	DB	0c7H
	DB	031H
	DB	0e7H
	DB	039H
	DB	0e7H
	DB	039H
	DB	0c7H
	DB	031H
	DB	0e7H
	DB	039H
	DB	0e7H
	DB	039H
	DB	0c7H
	DB	031H
	DB	0ffH
	DB	0ffH
	DB	07aH
	DB	0d6H
	DB	0e7H
	DB	031H
	DB	0c7H
	DB	039H
	DB	0e7H
	DB	031H
	DB	0e7H
	DB	039H
	DB	0c7H
	DB	031H
	DB	0c7H
	DB	031H
	DB	0c7H
	DB	031H
	DB	0a7H
	DB	031H
	DB	086H
	DB	029H
	DB	066H
	DB	029H
	DB	045H
	DB	029H
	DB	045H
	DB	021H
	DB	024H
	DB	021H
	DB	04H
	DB	021H
	DB	04H
	DB	019H
	DB	0e4H
	DB	018H
	DB	04H
	DB	019H
	DB	0e4H
	DB	018H
	DB	0e4H
	DB	018H
	DB	04H
	DB	019H
	DB	0c7H
	DB	031H
	DB	0e7H
	DB	039H
	DB	0c7H
	DB	039H
	DB	0c7H
	DB	031H
	DB	0e8H
	DB	039H
	DB	0e7H
	DB	031H
	DB	0c7H
	DB	039H
	DB	0e7H
	DB	031H
	DB	0e7H
	DB	039H
	DB	0c7H
	DB	031H
	DB	0e7H
	DB	039H
	DB	0e7H
	DB	039H
	DB	0c7H
	DB	031H
	DB	0c7H
	DB	039H
	DB	0e7H
	DB	031H
	DB	0c7H
	DB	039H
	DB	0c7H
	DB	031H
	DB	0e7H
	DB	039H
	DB	0c7H
	DB	039H
	DB	0c7H
	DB	031H
	DB	0ffH
	DB	0ffH
	DB	07aH
	DB	0ceH
	DB	0a6H
	DB	031H
	DB	086H
	DB	029H
	DB	066H
	DB	029H
	DB	045H
	DB	021H
	DB	025H
	DB	021H
	DB	024H
	DB	021H
	DB	04H
	DB	021H
	DB	0e4H
	DB	018H
	DB	04H
	DB	019H
	DB	04H
	DB	019H
	DB	04H
	DB	019H
	DB	0e4H
	DB	018H
	DB	0e4H
	DB	018H
	DB	04H
	DB	019H
	DB	0e4H
	DB	018H
	DB	04H
	DB	019H
	DB	04H
	DB	019H
	DB	0e3H
	DB	018H
	DB	0e4H
	DB	018H
	DB	04H
	DB	019H
	DB	0e7H
	DB	039H
	DB	0c8H
	DB	031H
	DB	0e7H
	DB	039H
	DB	0c7H
	DB	039H
	DB	0c7H
	DB	031H
	DB	0e8H
	DB	039H
	DB	0c7H
	DB	039H
	DB	0c7H
	DB	039H
	DB	0e8H
	DB	031H
	DB	0c8H
	DB	039H
	DB	0c7H
	DB	031H
	DB	0e8H
	DB	039H
	DB	0c7H
	DB	031H
	DB	0c7H
	DB	031H
	DB	0a7H
	DB	031H
	DB	0a7H
	DB	031H
	DB	086H
	DB	029H
	DB	066H
	DB	029H
	DB	045H
	DB	021H
	DB	025H
	DB	021H
	DB	0ffH
	DB	0ffH
	DB	059H
	DB	0ceH
	DB	04H
	DB	019H
	DB	0e4H
	DB	018H
	DB	0e4H
	DB	018H
	DB	04H
	DB	019H
	DB	0e4H
	DB	018H
	DB	04H
	DB	019H
	DB	0e4H
	DB	018H
	DB	04H
	DB	019H
	DB	0e4H
	DB	018H
	DB	04H
	DB	019H
	DB	0e4H
	DB	018H
	DB	0e4H
	DB	018H
	DB	04H
	DB	019H
	DB	0e4H
	DB	018H
	DB	0e4H
	DB	020H
	DB	03H
	DB	019H
	DB	0e4H
	DB	020H
	DB	04H
	DB	019H
	DB	04H
	DB	019H
	DB	0e4H
	DB	020H
	DB	0c7H
	DB	039H
	DB	0e7H
	DB	031H
	DB	0e8H
	DB	039H
	DB	0c7H
	DB	039H
	DB	0c7H
	DB	031H
	DB	0c7H
	DB	031H
	DB	0c7H
	DB	031H
	DB	0a7H
	DB	031H
	DB	086H
	DB	029H
	DB	086H
	DB	029H
	DB	045H
	DB	029H
	DB	045H
	DB	021H
	DB	025H
	DB	021H
	DB	04H
	DB	021H
	DB	04H
	DB	019H
	DB	0e4H
	DB	018H
	DB	0c7H
	DB	039H
	DB	0c7H
	DB	039H
	DB	04H
	DB	019H
	DB	0e4H
	DB	018H
	DB	0ffH
	DB	0ffH
	DB	059H
	DB	0ceH
	DB	0e4H
	DB	018H
	DB	04H
	DB	019H
	DB	04H
	DB	021H
	DB	0c7H
	DB	039H
	DB	0c7H
	DB	039H
	DB	04H
	DB	019H
	DB	0e4H
	DB	018H
	DB	0e3H
	DB	020H
	DB	04H
	DB	019H
	DB	0e3H
	DB	020H
	DB	03H
	DB	021H
	DB	04H
	DB	019H
	DB	03H
	DB	019H
	DB	0e4H
	DB	020H
	DB	04H
	DB	019H
	DB	0e3H
	DB	018H
	DB	0e4H
	DB	018H
	DB	04H
	DB	021H
	DB	0e3H
	DB	018H
	DB	0e4H
	DB	018H
	DB	0a6H
	DB	031H
	DB	086H
	DB	029H
	DB	066H
	DB	029H
	DB	045H
	DB	029H
	DB	025H
	DB	021H
	DB	024H
	DB	021H
	DB	04H
	DB	019H
	DB	04H
	DB	019H
	DB	04H
	DB	019H
	DB	0e4H
	DB	018H
	DB	04H
	DB	019H
	DB	0e4H
	DB	018H
	DB	0e4H
	DB	018H
	DB	04H
	DB	019H
	DB	04H
	DB	019H
	DB	0c7H
	DB	039H
	DB	03dH
	DB	0efH
	DB	05dH
	DB	0efH
	DB	0c7H
	DB	039H
	DB	0e4H
	DB	018H
	DB	0ffH
	DB	0ffH
	DB	059H
	DB	0ceH
	DB	0e4H
	DB	018H
	DB	03H
	DB	019H
	DB	0f3H
	DB	0a4H
	DB	0dbH
	DB	0deH
	DB	0f4H
	DB	0a4H
	DB	04H
	DB	019H
	DB	03H
	DB	019H
	DB	0e4H
	DB	018H
	DB	04H
	DB	019H
	DB	0e4H
	DB	018H
	DB	0e4H
	DB	018H
	DB	04H
	DB	019H
	DB	0e4H
	DB	020H
	DB	03H
	DB	019H
	DB	04H
	DB	019H
	DB	0e4H
	DB	018H
	DB	04H
	DB	019H
	DB	04H
	DB	019H
	DB	0e3H
	DB	018H
	DB	04H
	DB	019H
	DB	04H
	DB	019H
	DB	0e4H
	DB	018H
	DB	04H
	DB	019H
	DB	04H
	DB	019H
	DB	04H
	DB	019H
	DB	0e4H
	DB	018H
	DB	04H
	DB	019H
	DB	0e4H
	DB	020H
	DB	0e4H
	DB	018H
	DB	04H
	DB	021H
	DB	03H
	DB	019H
	DB	0e4H
	DB	018H
	DB	0e4H
	DB	020H
	DB	03H
	DB	019H
	DB	0e4H
	DB	018H
	DB	04H
	DB	019H
	DB	08eH
	DB	073H
	DB	05dH
	DB	0efH
	DB	079H
	DB	0ceH
	DB	0e4H
	DB	018H
	DB	0ffH
	DB	0ffH
	DB	059H
	DB	0ceH
	DB	0e4H
	DB	018H
	DB	08eH
	DB	073H
	DB	09eH
	DB	0f7H
	DB	096H
	DB	0b5H
	DB	04H
	DB	019H
	DB	0e4H
	DB	018H
	DB	04H
	DB	021H
	DB	04H
	DB	019H
	DB	0e4H
	DB	018H
	DB	04H
	DB	021H
	DB	0e3H
	DB	018H
	DB	0e4H
	DB	018H
	DB	04H
	DB	019H
	DB	0e4H
	DB	018H
	DB	0e4H
	DB	020H
	DB	03H
	DB	021H
	DB	0e4H
	DB	018H
	DB	04H
	DB	019H
	DB	0e4H
	DB	020H
	DB	04H
	DB	019H
	DB	0e4H
	DB	018H
	DB	0e4H
	DB	018H
	DB	04H
	DB	019H
	DB	0e4H
	DB	018H
	DB	0e4H
	DB	018H
	DB	04H
	DB	019H
	DB	04H
	DB	021H
	DB	0e3H
	DB	018H
	DB	0e4H
	DB	018H
	DB	04H
	DB	019H
	DB	0e3H
	DB	020H
	DB	04H
	DB	019H
	DB	04H
	DB	019H
	DB	0e4H
	DB	020H
	DB	0e3H
	DB	018H
	DB	04H
	DB	019H
	DB	0e4H
	DB	018H
	DB	0f3H
	DB	09cH
	DB	01cH
	DB	0e7H
	DB	0f3H
	DB	09cH
	DB	0ffH
	DB	0ffH
	DB	059H
	DB	0ceH
	DB	049H
	DB	04aH
	DB	0beH
	DB	0f7H
	DB	0b7H
	DB	0bdH
	DB	04H
	DB	019H
	DB	0e4H
	DB	018H
	DB	0e3H
	DB	018H
	DB	0e4H
	DB	020H
	DB	03H
	DB	019H
	DB	0e4H
	DB	018H
	DB	04H
	DB	021H
	DB	03H
	DB	019H
	DB	0e4H
	DB	018H
	DB	04H
	DB	021H
	DB	03H
	DB	019H
	DB	0e4H
	DB	018H
	DB	04H
	DB	019H
	DB	0e3H
	DB	018H
	DB	0e4H
	DB	020H
	DB	04H
	DB	019H
	DB	0e3H
	DB	018H
	DB	0e4H
	DB	018H
	DB	04H
	DB	021H
	DB	03H
	DB	019H
	DB	0e4H
	DB	020H
	DB	0e3H
	DB	018H
	DB	04H
	DB	019H
	DB	0e4H
	DB	020H
	DB	03H
	DB	019H
	DB	04H
	DB	019H
	DB	0e4H
	DB	018H
	DB	0e4H
	DB	018H
	DB	04H
	DB	019H
	DB	04H
	DB	019H
	DB	0e4H
	DB	018H
	DB	04H
	DB	021H
	DB	024H
	DB	021H
	DB	04H
	DB	019H
	DB	0e4H
	DB	018H
	DB	079H
	DB	0ceH
	DB	09eH
	DB	0f7H
	DB	0dfH
	DB	0ffH
	DB	079H
	DB	0ceH
	DB	0beH
	DB	0ffH
	DB	018H
	DB	0c6H
	DB	04H
	DB	019H
	DB	0e4H
	DB	018H
	DB	03H
	DB	019H
	DB	04H
	DB	019H
	DB	0e4H
	DB	018H
	DB	04H
	DB	019H
	DB	0e3H
	DB	018H
	DB	0e4H
	DB	018H
	DB	04H
	DB	019H
	DB	0e4H
	DB	020H
	DB	03H
	DB	019H
	DB	0e4H
	DB	018H
	DB	04H
	DB	019H
	DB	04H
	DB	019H
	DB	0e4H
	DB	020H
	DB	03H
	DB	019H
	DB	04H
	DB	019H
	DB	0e4H
	DB	018H
	DB	0e4H
	DB	018H
	DB	03H
	DB	019H
	DB	04H
	DB	019H
	DB	0e4H
	DB	018H
	DB	04H
	DB	021H
	DB	0e3H
	DB	018H
	DB	0e4H
	DB	018H
	DB	04H
	DB	019H
	DB	04H
	DB	021H
	DB	0e3H
	DB	020H
	DB	04H
	DB	019H
	DB	0e3H
	DB	020H
	DB	0e3H
	DB	018H
	DB	04H
	DB	019H
	DB	04H
	DB	019H
	DB	0e4H
	DB	020H
	DB	04H
	DB	019H
	DB	04H
	DB	019H
	DB	065H
	DB	029H
	DB	05dH
	DB	0efH
	DB	0ffH
	DB	0ffH
	DB	0dfH
	DB	0ffH
	DB	09aH
	DB	0d6H
	DB	0e4H
	DB	018H
	DB	04H
	DB	019H
	DB	0e4H
	DB	018H
	DB	04H
	DB	021H
	DB	04H
	DB	019H
	DB	0e4H
	DB	018H
	DB	04H
	DB	021H
	DB	04H
	DB	021H
	DB	0e3H
	DB	018H
	DB	04H
	DB	019H
	DB	04H
	DB	019H
	DB	0e4H
	DB	018H
	DB	0e4H
	DB	020H
	DB	03H
	DB	019H
	DB	0e4H
	DB	018H
	DB	0e4H
	DB	018H
	DB	04H
	DB	019H
	DB	0e4H
	DB	020H
	DB	0e4H
	DB	018H
	DB	0e4H
	DB	018H
	DB	0e4H
	DB	018H
	DB	04H
	DB	021H
	DB	0e4H
	DB	018H
	DB	04H
	DB	019H
	DB	04H
	DB	019H
	DB	0e3H
	DB	018H
	DB	0e4H
	DB	018H
	DB	04H
	DB	019H
	DB	0e4H
	DB	018H
	DB	04H
	DB	019H
	DB	04H
	DB	019H
	DB	0e4H
	DB	020H
	DB	03H
	DB	019H
	DB	0e4H
	DB	018H
	DB	0e3H
	DB	018H
	DB	0e4H
	DB	020H
	DB	0e4H
	DB	018H
	DB	0e4H
	DB	018H
	DB	049H
	DB	04aH
	DB	0ffH
	DB	0ffH
	DB	0bfH
	DB	0f7H
	DB	04H
	DB	019H
	DB	0e4H
	DB	018H
	DB	0e3H
	DB	018H
	DB	04H
	DB	019H
	DB	0e3H
	DB	020H
	DB	0e3H
	DB	018H
	DB	0e4H
	DB	018H
	DB	04H
	DB	019H
	DB	0e3H
	DB	018H
	DB	0e4H
	DB	020H
	DB	04H
	DB	019H
	DB	0e3H
	DB	018H
	DB	0e4H
	DB	020H
	DB	04H
	DB	019H
	DB	03H
	DB	021H
	DB	0e4H
	DB	018H
	DB	04H
	DB	019H
	DB	03H
	DB	021H
	DB	0e4H
	DB	018H
	DB	04H
	DB	019H
	DB	04H
	DB	019H
	DB	0e3H
	DB	018H
	DB	04H
	DB	021H
	DB	0e3H
	DB	018H
	DB	0e4H
	DB	018H
	DB	04H
	DB	021H
	DB	04H
	DB	021H
	DB	0e3H
	DB	018H
	DB	04H
	DB	019H
	DB	0e4H
	DB	020H
	DB	0e3H
	DB	018H
	DB	04H
	DB	019H
	DB	0e4H
	DB	018H
	DB	04H
	DB	021H
	DB	04H
	DB	019H
	DB	0e4H
	DB	018H
	DB	03H
	DB	019H
	DB	04H
	DB	021H
	DB	0e4H
	DB	018H
	DB	03H
	DB	019H
	DB	0dfH
	DB	0ffH
	DB	059H
	DB	0ceH
	DB	04H
	DB	019H
	DB	0e3H
	DB	018H
	DB	04H
	DB	021H
	DB	04H
	DB	019H
	DB	0e4H
	DB	018H
	DB	04H
	DB	021H
	DB	04H
	DB	019H
	DB	0e3H
	DB	018H
	DB	04H
	DB	019H
	DB	04H
	DB	019H
	DB	0e4H
	DB	020H
	DB	03H
	DB	019H
	DB	04H
	DB	019H
	DB	0e4H
	DB	018H
	DB	0e4H
	DB	018H
	DB	04H
	DB	021H
	DB	0e3H
	DB	018H
	DB	0e4H
	DB	018H
	DB	04H
	DB	019H
	DB	0e3H
	DB	018H
	DB	0e4H
	DB	018H
	DB	04H
	DB	019H
	DB	03H
	DB	019H
	DB	0e4H
	DB	018H
	DB	04H
	DB	019H
	DB	0e3H
	DB	018H
	DB	0e4H
	DB	018H
	DB	04H
	DB	019H
	DB	04H
	DB	021H
	DB	0e3H
	DB	018H
	DB	04H
	DB	019H
	DB	0e4H
	DB	020H
	DB	0e3H
	DB	018H
	DB	04H
	DB	019H
	DB	0e4H
	DB	020H
	DB	04H
	DB	019H
	DB	03H
	DB	019H
	DB	0e4H
	DB	018H
	DB	04H
	DB	019H
	DB	0e4H
	DB	018H
	DB	0bfH
	DB	0ffH
	DB	059H
	DB	0ceH
	DB	0e3H
	DB	018H
	DB	04H
	DB	019H
	DB	0e4H
	DB	020H
	DB	0e4H
	DB	018H
	DB	03H
	DB	019H
	DB	04H
	DB	019H
	DB	0e4H
	DB	020H
	DB	0e4H
	DB	018H
	DB	04H
	DB	019H
	DB	0e4H
	DB	020H
	DB	0e4H
	DB	018H
	DB	04H
	DB	019H
	DB	04H
	DB	019H
	DB	0e3H
	DB	020H
	DB	04H
	DB	019H
	DB	04H
	DB	019H
	DB	0e4H
	DB	018H
	DB	04H
	DB	021H
	DB	04H
	DB	019H
	DB	0e4H
	DB	018H
	DB	0e4H
	DB	018H
	DB	04H
	DB	021H
	DB	0e4H
	DB	018H
	DB	04H
	DB	021H
	DB	04H
	DB	019H
	DB	0e3H
	DB	018H
	DB	04H
	DB	021H
	DB	0e4H
	DB	018H
	DB	0e3H
	DB	018H
	DB	04H
	DB	019H
	DB	04H
	DB	019H
	DB	0e4H
	DB	018H
	DB	03H
	DB	019H
	DB	0e4H
	DB	018H
	DB	0e4H
	DB	018H
	DB	03H
	DB	021H
	DB	0e4H
	DB	018H
	DB	0e4H
	DB	018H
	DB	03H
	DB	021H
	DB	04H
	DB	019H
	DB	0beH
	DB	0ffH
	DB	059H
	DB	0ceH
	DB	0e4H
	DB	018H
	DB	04H
	DB	019H
	DB	04H
	DB	019H
	DB	0e3H
	DB	018H
	DB	0e4H
	DB	018H
	DB	04H
	DB	019H
	DB	0e3H
	DB	018H
	DB	04H
	DB	021H
	DB	03H
	DB	019H
	DB	0e3H
	DB	018H
	DB	0e4H
	DB	018H
	DB	04H
	DB	019H
	DB	0e3H
	DB	020H
	DB	0e4H
	DB	018H
	DB	04H
	DB	019H
	DB	0e3H
	DB	018H
	DB	0e4H
	DB	020H
	DB	03H
	DB	019H
	DB	0e4H
	DB	018H
	DB	04H
	DB	019H
	DB	04H
	DB	019H
	DB	0e3H
	DB	018H
	DB	0e4H
	DB	018H
	DB	04H
	DB	021H
	DB	0e3H
	DB	018H
	DB	04H
	DB	019H
	DB	04H
	DB	021H
	DB	0e4H
	DB	018H
	DB	0e4H
	DB	018H
	DB	04H
	DB	021H
	DB	0e4H
	DB	018H
	DB	03H
	DB	021H
	DB	04H
	DB	019H
	DB	0e4H
	DB	018H
	DB	04H
	DB	021H
	DB	04H
	DB	019H
	DB	0e4H
	DB	018H
	DB	04H
	DB	021H
	DB	0e4H
	DB	018H
	DB	0e3H
	DB	018H
	DB	0beH
	DB	0f7H
	DB	059H
	DB	0ceH
	DB	0e4H
	DB	018H
	DB	0e3H
	DB	020H
	DB	04H
	DB	019H
	DB	04H
	DB	021H
	DB	0e4H
	DB	020H
	DB	04H
	DB	019H
	DB	0e4H
	DB	018H
	DB	0e4H
	DB	018H
	DB	04H
	DB	021H
	DB	04H
	DB	019H
	DB	0e4H
	DB	018H
	DB	03H
	DB	021H
	DB	0e4H
	DB	018H
	DB	04H
	DB	019H
	DB	04H
	DB	019H
	DB	0e4H
	DB	020H
	DB	03H
	DB	019H
	DB	0e4H
	DB	018H
	DB	0e4H
	DB	020H
	DB	04H
	DB	021H
	DB	04H
	DB	019H
	DB	0e4H
	DB	018H
	DB	03H
	DB	019H
	DB	0e4H
	DB	018H
	DB	0e4H
	DB	018H
	DB	04H
	DB	019H
	DB	0e3H
	DB	018H
	DB	04H
	DB	019H
	DB	04H
	DB	021H
	DB	0e3H
	DB	018H
	DB	0e4H
	DB	018H
	DB	04H
	DB	021H
	DB	0e4H
	DB	018H
	DB	0e3H
	DB	018H
	DB	04H
	DB	019H
	DB	0e3H
	DB	018H
	DB	04H
	DB	019H
	DB	04H
	DB	019H
	DB	0e4H
	DB	018H
	DB	0e4H
	DB	018H
	DB	09eH
	DB	0f7H
	DB	0bbH
	DB	0deH
	DB	0aaH
	DB	052H
	DB	0aaH
	DB	052H
	DB	0abH
	DB	052H
	DB	0aaH
	DB	052H
	DB	0aaH
	DB	052H
	DB	0aaH
	DB	05aH
	DB	0aaH
	DB	052H
	DB	0abH
	DB	052H
	DB	0aaH
	DB	052H
	DB	06dH
	DB	06bH
	DB	0abH
	DB	052H
	DB	0c7H
	DB	039H
	DB	04H
	DB	019H
	DB	0e3H
	DB	018H
	DB	0e4H
	DB	020H
	DB	04H
	DB	019H
	DB	04H
	DB	019H
	DB	0e4H
	DB	018H
	DB	03H
	DB	019H
	DB	04H
	DB	019H
	DB	04H
	DB	021H
	DB	0e4H
	DB	018H
	DB	04H
	DB	021H
	DB	04H
	DB	019H
	DB	0e4H
	DB	020H
	DB	0e3H
	DB	018H
	DB	04H
	DB	019H
	DB	0e4H
	DB	020H
	DB	03H
	DB	019H
	DB	04H
	DB	019H
	DB	0e4H
	DB	018H
	DB	04H
	DB	019H
	DB	03H
	DB	021H
	DB	0e4H
	DB	018H
	DB	04H
	DB	019H
	DB	0e4H
	DB	020H
	DB	0e3H
	DB	020H
	DB	03H
	DB	019H
	DB	04H
	DB	021H
	DB	04H
	DB	019H
	DB	09eH
	DB	0f7H
	DB	0beH
	DB	0ffH
	DB	0dbH
	DB	0deH
	DB	0bbH
	DB	0deH
	DB	0bbH
	DB	0deH
	DB	0bbH
	DB	0d6H
	DB	0dbH
	DB	0deH
	DB	0bbH
	DB	0deH
	DB	0bbH
	DB	0deH
	DB	0daH
	DB	0deH
	DB	0fbH
	DB	0deH
	DB	07eH
	DB	0f7H
	DB	0baH
	DB	0deH
	DB	0f4H
	DB	09cH
	DB	04H
	DB	019H
	DB	0e4H
	DB	020H
	DB	0e3H
	DB	018H
	DB	04H
	DB	019H
	DB	0e4H
	DB	018H
	DB	03H
	DB	021H
	DB	0e4H
	DB	018H
	DB	04H
	DB	019H
	DB	04H
	DB	019H
	DB	0e4H
	DB	018H
	DB	03H
	DB	019H
	DB	04H
	DB	021H
	DB	0e4H
	DB	018H
	DB	04H
	DB	019H
	DB	04H
	DB	021H
	DB	0e4H
	DB	018H
	DB	0e4H
	DB	018H
	DB	03H
	DB	019H
	DB	0e4H
	DB	020H
	DB	0e4H
	DB	018H
	DB	04H
	DB	019H
	DB	04H
	DB	021H
	DB	0e4H
	DB	018H
	DB	04H
	DB	019H
	DB	0e4H
	DB	018H
	DB	0e4H
	DB	018H
	DB	04H
	DB	019H
	DB	0e3H
	DB	020H
	DB	0bbH
	DB	0deH
	DB	03cH
	DB	0e7H
	DB	059H
	DB	0ceH
	DB	059H
	DB	0ceH
	DB	059H
	DB	0ceH
	DB	059H
	DB	0ceH
	DB	059H
	DB	0ceH
	DB	059H
	DB	0ceH
	DB	059H
	DB	0ceH
	DB	059H
	DB	0ceH
	DB	07aH
	DB	0d6H
	DB	03cH
	DB	0e7H
	DB	059H
	DB	0ceH
	DB	092H
	DB	094H
	DB	04H
	DB	019H
	DB	04H
	DB	019H
	DB	03H
	DB	019H
	DB	0e4H
	DB	018H
	DB	0e4H
	DB	020H
	DB	04H
	DB	019H
	DB	0e4H
	DB	018H
	DB	04H
	DB	021H
	DB	04H
	DB	019H
	DB	0e4H
	DB	018H
	DB	0e3H
	DB	018H
	DB	04H
	DB	019H
	DB	0e4H
	DB	018H
	DB	0e3H
	DB	018H
	DB	03H
	DB	019H
	DB	0e4H
	DB	018H
	DB	04H
	DB	019H
	DB	04H
	DB	021H
	DB	0e3H
	DB	018H
	DB	0e4H
	DB	018H
	DB	03H
	DB	019H
	DB	0e4H
	DB	018H
	DB	0e3H
	DB	018H
	DB	03H
	DB	019H
	DB	04H
	DB	021H
	DB	0e4H
	DB	018H
	DB	04H
	DB	019H
	DB	04H
	DB	019H
	DB	0e4H
	DB	018H
	DB	04H
	DB	019H
	DB	0e4H
	DB	018H
	DB	03H
	DB	019H
	DB	04H
	DB	019H
	DB	0e3H
	DB	018H
	DB	0e4H
	DB	018H
	DB	03H
	DB	019H
	DB	0e4H
	DB	018H
	DB	0e4H
	DB	018H
	DB	04H
	DB	019H
	DB	0e4H
	DB	018H
	DB	0e4H
	DB	018H
	DB	03H
	DB	019H
	DB	0e4H
	DB	018H
	DB	0e4H
	DB	020H
	DB	04H
	DB	019H
	DB	0e3H
	DB	018H
	DB	04H
	DB	021H
	DB	04H
	DB	019H
	DB	0e3H
	DB	018H
	DB	04H
	DB	021H
	DB	04H
	DB	021H
	DB	0e4H
	DB	018H
	DB	04H
	DB	021H
	DB	0e3H
	DB	018H
	DB	04H
	DB	021H
	DB	04H
	DB	019H
	DB	0e4H
	DB	020H
	DB	0e3H
	DB	018H
	DB	04H
	DB	019H
	DB	0e4H
	DB	018H
	DB	04H
	DB	019H
	DB	04H
	DB	021H
	DB	0e4H
	DB	018H
	DB	04H
	DB	019H
	DB	0e4H
	DB	020H
	DB	04H
	DB	019H
	DB	0e3H
	DB	018H
	DB	0e4H
	DB	020H
	DB	03H
	DB	019H
	DB	0e4H
	DB	018H
	DB	04H
	DB	019H
	DB	0e4H
	DB	018H
	DB	0e3H
	DB	018H
	DB	04H
	DB	019H
	DB	0e4H
	DB	018H
	DB	0e4H
	DB	018H
	DB	04H
	DB	019H
	DB	04H
	DB	019H
	DB	0e3H
	DB	018H
	DB	04H
	DB	019H
	DB	04H
	DB	019H
	DB	0e4H
	DB	018H
	DB	04H
	DB	019H
	DB	0e3H
	DB	018H
	DB	0e4H
	DB	018H
	DB	04H
	DB	021H
	DB	0e4H
	DB	018H
	DB	03H
	DB	019H
	DB	0e4H
	DB	018H
	DB	0e4H
	DB	018H
	DB	03H
	DB	019H
	DB	04H
	DB	019H
	DB	04H
	DB	019H
	DB	0e4H
	DB	018H
	DB	04H
	DB	019H
	DB	0e4H
	DB	020H
	DB	0e4H
	DB	018H
	DB	04H
	DB	019H
	DB	04H
	DB	019H
	DB	0e4H
	DB	020H
	DB	03H
	DB	019H
	DB	0e4H
	DB	018H
	DB	0e4H
	DB	020H
	DB	03H
	DB	019H
	DB	0e4H
	DB	018H
	DB	04H
	DB	021H
	DB	04H
	DB	019H
	DB	0e4H
	DB	018H
	DB	04H
	DB	019H
	DB	04H
	DB	019H
	DB	0e3H
	DB	020H
	DB	0e4H
	DB	018H
	DB	04H
	DB	021H
	DB	03H
	DB	019H
	DB	0e4H
	DB	018H
	DB	04H
	DB	021H
	DB	04H
	DB	019H
	DB	0e3H
	DB	018H
	DB	04H
	DB	019H
	DB	0e4H
	DB	018H
	DB	0e4H
	DB	018H
	DB	03H
	DB	019H
	DB	0e4H
	DB	020H
	DB	03H
	DB	019H
	DB	04H
	DB	021H
	DB	0e4H
	DB	018H
	DB	03H
	DB	019H
	DB	04H
	DB	019H
	DB	0e4H
	DB	020H
	DB	04H
	DB	019H
	DB	04H
	DB	019H
	DB	0e4H
	DB	020H
	DB	0e4H
	DB	018H
	DB	04H
	DB	019H
	DB	04H
	DB	019H
	DB	0e3H
	DB	018H
	DB	04H
	DB	019H
	DB	03H
	DB	019H
	DB	0e3H
	DB	018H
	DB	0e4H
	DB	018H
	DB	04H
	DB	019H
	DB	04H
	DB	021H
	DB	0e3H
	DB	018H
	DB	04H
	DB	019H
	DB	04H
	DB	021H
	DB	0e3H
	DB	018H
	DB	0e4H
	DB	018H
	DB	03H
	DB	019H
	DB	0e3H
	DB	018H
	DB	0e4H
	DB	020H
	DB	04H
	DB	019H
	DB	04H
	DB	019H
	DB	0e4H
	DB	018H
	DB	03H
	DB	019H
	DB	0e4H
	DB	020H
	DB	04H
	DB	019H
	DB	0e4H
	DB	018H
	DB	0e4H
	DB	020H
	DB	03H
	DB	019H
	DB	0e4H
	DB	018H
	DB	04H
	DB	021H
	DB	03H
	DB	021H
	DB	0e4H
	DB	018H
	DB	04H
	DB	019H
	DB	0e4H
	DB	018H
	DB	0e4H
	DB	018H
	DB	04H
	DB	019H
	DB	0e4H
	DB	020H
	DB	04H
	DB	019H
	DB	0e3H
	DB	018H
	DB	0e4H
	DB	018H
	DB	03H
	DB	021H
	DB	04H
	DB	019H
	DB	0e3H
	DB	018H
	DB	04H
	DB	021H
	DB	04H
	DB	021H
	DB	04H
	DB	021H
	DB	0e4H
	DB	018H
	DB	0e4H
	DB	020H
	DB	04H
	DB	019H
	DB	04H
	DB	021H
	DB	0e3H
	DB	018H
	DB	0e4H
	DB	018H
	DB	04H
	DB	019H
	DB	0e4H
	DB	018H
	DB	0e4H
	DB	018H
	DB	04H
	DB	019H
	DB	04H
	DB	019H
	DB	0e4H
	DB	020H
	DB	04H
	DB	019H
	DB	04H
	DB	019H
	DB	0e3H
	DB	020H
	DB	0e4H
	DB	018H
	DB	0e4H
	DB	018H
	DB	03H
	DB	021H
	DB	0e4H
	DB	018H
	DB	04H
	DB	019H
	DB	0e3H
	DB	018H
	DB	04H
	DB	019H
	DB	04H
	DB	019H
	DB	0e4H
	DB	018H
	DB	0e4H
	DB	018H
	DB	04H
	DB	019H
	DB	0e4H
	DB	018H
	DB	03H
	DB	021H
	DB	04H
	DB	019H
	DB	0e4H
	DB	018H
	DB	03H
	DB	021H
	DB	0e3H
	DB	018H
	DB	04H
	DB	019H
	DB	0e4H
	DB	020H
	DB	04H
	DB	019H
	DB	0e4H
	DB	018H
	DB	0e4H
	DB	018H
	DB	0e3H
	DB	018H
	DB	04H
	DB	019H
	DB	0e4H
	DB	018H
	DB	04H
	DB	019H
	DB	04H
	DB	019H
	DB	0e4H
	DB	018H
	DB	03H
	DB	019H
	DB	0e4H
	DB	018H
	DB	04H
	DB	021H
	DB	04H
	DB	019H
	DB	0e3H
	DB	018H
	DB	04H
	DB	021H
	DB	03H
	DB	021H
	DB	0e4H
	DB	018H
	DB	0e3H
	DB	018H
	DB	04H
	DB	021H
	DB	0e4H
	DB	018H
	DB	0e4H
	DB	018H
	DB	04H
	DB	019H
	DB	03H
	DB	019H
	DB	0e4H
	DB	018H
	DB	04H
	DB	021H
	DB	04H
	DB	019H
	DB	0e4H
	DB	018H
	DB	04H
	DB	021H
	DB	0e3H
	DB	018H
	DB	0e4H
	DB	020H
	DB	04H
	DB	019H
	DB	03H
	DB	021H
	DB	0e3H
	DB	018H
	DB	0e4H
	DB	018H
	DB	04H
	DB	019H
	DB	0e4H
	DB	018H
	DB	0e3H
	DB	020H
	DB	04H
	DB	019H
	DB	0e4H
	DB	018H
	DB	04H
	DB	019H
	DB	0e4H
	DB	018H
	DB	03H
	DB	019H
	DB	04H
	DB	021H
	DB	04H
	DB	019H
	DB	0e4H
	DB	018H
	DB	04H
	DB	021H
	DB	0e4H
	DB	018H
	DB	0e3H
	DB	018H
	DB	04H
	DB	021H
	DB	04H
	DB	019H
	DB	0e4H
	DB	018H
	DB	03H
	DB	019H
	DB	0e4H
	DB	018H
	DB	0e4H
	DB	018H
	DB	04H
	DB	021H
	DB	0e4H
	DB	018H
	DB	0e4H
	DB	018H
	DB	04H
	DB	019H
	DB	03H
	DB	019H
	DB	0e4H
	DB	020H
	DB	03H
	DB	019H
	DB	04H
	DB	019H
	DB	0e3H
	DB	020H
	DB	0e4H
	DB	018H
	DB	04H
	DB	019H
	DB	0e3H
	DB	020H
	DB	04H
	DB	019H
	DB	0e4H
	DB	018H
	DB	0e3H
	DB	018H
	DB	04H
	DB	019H
	DB	04H
	DB	019H
	DB	0e4H
	DB	018H
	DB	0e4H
	DB	020H
	DB	04H
	DB	019H
	DB	04H
	DB	021H
	DB	0e3H
	DB	018H
	DB	04H
	DB	019H
	DB	04H
	DB	021H
	DB	0e4H
	DB	018H
	DB	04H
	DB	019H
	DB	0e4H
	DB	020H
	DB	04H
	DB	019H
	DB	0e3H
	DB	018H
	DB	0e4H
	DB	020H
	DB	03H
	DB	019H
	DB	0e4H
	DB	018H
	DB	03H
	DB	021H
	DB	04H
	DB	019H
	DB	0e4H
	DB	018H
	DB	04H
	DB	019H
	DB	04H
	DB	021H
	DB	04H
	DB	021H
	DB	0e4H
	DB	018H
	DB	04H
	DB	021H
	DB	03H
	DB	019H
	DB	0e4H
	DB	018H
	DB	03H
	DB	019H
	DB	0e4H
	DB	018H
	DB	0e4H
	DB	018H
	DB	04H
	DB	019H
	DB	0e4H
	DB	020H
	DB	0e4H
	DB	018H
	DB	04H
	DB	019H
	DB	04H
	DB	019H
	DB	0e4H
	DB	020H
	DB	04H
	DB	019H
	DB	0e4H
	DB	018H
	DB	04H
	DB	019H
	DB	0e3H
	DB	018H
	DB	04H
	DB	021H
	DB	0e4H
	DB	018H
	DB	03H
	DB	019H
	DB	04H
	DB	021H
	DB	0e3H
	DB	018H
	DB	04H
	DB	019H
	DB	0e4H
	DB	018H
	DB	0e4H
	DB	018H
	DB	04H
	DB	021H
	DB	0e3H
	DB	018H
	DB	0e4H
	DB	018H
	DB	04H
	DB	019H
	DB	0e3H
	DB	018H
	DB	04H
	DB	021H
	DB	03H
	DB	019H
	DB	0e4H
	DB	018H
	DB	0e4H
	DB	020H
	DB	04H
	DB	019H
	DB	0e4H
	DB	018H
	DB	0e4H
	DB	018H
	DB	03H
	DB	021H
	DB	0e4H
	DB	018H
	DB	04H
	DB	019H
	DB	04H
	DB	019H
	DB	04H
	DB	021H
	DB	0e4H
	DB	018H
	DB	0e4H
	DB	018H
	DB	04H
	DB	021H
	DB	0e4H
	DB	018H
	DB	03H
	DB	021H
	DB	04H
	DB	021H
	DB	0e3H
	DB	018H
	DB	03H
	DB	019H
	DB	04H
	DB	019H
	DB	0e4H
	DB	018H
	DB	0e3H
	DB	018H
	DB	0e4H
	DB	018H
	DB	04H
	DB	019H
	DB	03H
	DB	021H
	DB	0e4H
	DB	018H
	DB	04H
	DB	019H
	DB	04H
	DB	021H
	DB	0e4H
	DB	018H
	DB	04H
	DB	019H
	DB	0e4H
	DB	020H
	DB	0e4H
	DB	018H
	DB	03H
	DB	019H
	DB	04H
	DB	019H
	DB	0e3H
	DB	018H
	DB	04H
	DB	019H
	DB	04H
	DB	019H
	DB	0e4H
	DB	020H
	DB	03H
	DB	019H
	DB	04H
	DB	019H
	DB	0e4H
	DB	020H
	DB	0e4H
	DB	018H
	DB	04H
	DB	019H
	DB	04H
	DB	019H
	DB	0e4H
	DB	018H
	DB	03H
	DB	019H
	DB	04H
	DB	019H
	DB	0e4H
	DB	018H
	DB	0e4H
	DB	018H
	DB	03H
	DB	021H
	DB	0e4H
	DB	018H
	DB	04H
	DB	021H
	DB	04H
	DB	021H
	DB	04H
	DB	019H
	DB	04H
	DB	019H
	DB	04H
	DB	021H
	DB	0e4H
	DB	018H
	DB	0e4H
	DB	018H
	DB	04H
	DB	019H
	DB	0e4H
	DB	020H
	DB	04H
	DB	019H
	DB	04H
	DB	021H
	DB	0e3H
	DB	020H
	DB	04H
	DB	019H
	DB	04H
	DB	019H
	DB	0e3H
	DB	020H
	DB	0e4H
	DB	018H
	DB	03H
	DB	019H
	DB	0e4H
	DB	020H
	DB	0e3H
	DB	018H
	DB	04H
	DB	019H
	DB	0e3H
	DB	018H
	DB	04H
	DB	019H
	DB	0e4H
	DB	018H
	DB	0e4H
	DB	020H
	DB	04H
	DB	021H
	DB	0e4H
	DB	018H
	DB	03H
	DB	019H
	DB	0e4H
	DB	018H
	DB	0e4H
	DB	018H
	DB	04H
	DB	021H
	DB	0e3H
	DB	018H
	DB	04H
	DB	019H
	DB	0e4H
	DB	018H
	DB	0e3H
	DB	020H
	DB	04H
	DB	019H
	DB	0e4H
	DB	018H
	DB	0e3H
	DB	020H
	DB	04H
	DB	021H
	DB	04H
	DB	019H
	DB	04H
	DB	021H
	DB	04H
	DB	019H
	DB	04H
	DB	021H
	DB	04H
	DB	021H
?_EdgeDown_alpha_channel@@3QBEB DB 04H			; _EdgeDown_alpha_channel
	DB	014H
	DB	055H
	DB	082H
	DB	0baH
	DB	0d7H
	DB	0efH
	DB	0fbH
	DB	0ffH
	DB	0ffH
	DB	0ffH
	DB	0ffH
	DB	0ffH
	DB	0ffH
	DB	0ffH
	DB	0ffH
	DB	0ffH
	DB	0ffH
	DB	0ffH
	DB	0ffH
	DB	0ffH
	DB	0ffH
	DB	0ffH
	DB	0ffH
	DB	0ffH
	DB	0ffH
	DB	0ffH
	DB	0ffH
	DB	0ffH
	DB	0ffH
	DB	0ffH
	DB	0ffH
	DB	0ffH
	DB	0ffH
	DB	0fbH
	DB	0f3H
	DB	0dfH
	DB	0c3H
	DB	08eH
	DB	061H
	DB	01cH
	DB	08H
	DB	06dH
	DB	0beH
	DB	0f7H
	DB	0ffH
	DB	0ffH
	DB	0ffH
	DB	0ffH
	DB	0ffH
	DB	0ffH
	DB	0ffH
	DB	0ffH
	DB	0ffH
	DB	0ffH
	DB	0ffH
	DB	0ffH
	DB	0ffH
	DB	0ffH
	DB	0ffH
	DB	0ffH
	DB	0ffH
	DB	0ffH
	DB	0ffH
	DB	0ffH
	DB	0ffH
	DB	0ffH
	DB	0ffH
	DB	0ffH
	DB	0ffH
	DB	0ffH
	DB	0ffH
	DB	0ffH
	DB	0ffH
	DB	0ffH
	DB	0ffH
	DB	0ffH
	DB	0ffH
	DB	0ffH
	DB	0ffH
	DB	0ffH
	DB	0fbH
	DB	0cfH
	DB	08aH
	DB	0e3H
	DB	0f7H
	DB	0ffH
	DB	0ffH
	DB	0ffH
	DB	0ffH
	DB	0ffH
	DB	0ffH
	DB	0ffH
	DB	0ffH
	DB	0ffH
	DB	0ffH
	DB	0ffH
	DB	0ffH
	DB	0ffH
	DB	0ffH
	DB	0ffH
	DB	0ffH
	DB	0ffH
	DB	0ffH
	DB	0ffH
	DB	0ffH
	DB	0ffH
	DB	0ffH
	DB	0ffH
	DB	0ffH
	DB	0ffH
	DB	0ffH
	DB	0ffH
	DB	0ffH
	DB	0ffH
	DB	0ffH
	DB	0ffH
	DB	0ffH
	DB	0ffH
	DB	0ffH
	DB	0ffH
	DB	0ffH
	DB	0ffH
	DB	0ffH
	DB	0fbH
	DB	0f7H
	DB	0ebH
	DB	0fbH
	DB	0ffH
	DB	0ffH
	DB	0ffH
	DB	0ffH
	DB	0ffH
	DB	0ffH
	DB	0ffH
	DB	0ffH
	DB	0ffH
	DB	0ffH
	DB	0ffH
	DB	0ffH
	DB	0ffH
	DB	0ffH
	DB	0ffH
	DB	0ffH
	DB	0ffH
	DB	0ffH
	DB	0ffH
	DB	0ffH
	DB	0ffH
	DB	0ffH
	DB	0ffH
	DB	0ffH
	DB	0ffH
	DB	0ffH
	DB	0ffH
	DB	0ffH
	DB	0ffH
	DB	0ffH
	DB	0ffH
	DB	0ffH
	DB	0ffH
	DB	0ffH
	DB	0ffH
	DB	0ffH
	DB	0ffH
	DB	0ffH
	DB	0ffH
	DB	0fbH
	DB	0ebH
	DB	0fbH
	DB	0ffH
	DB	0ffH
	DB	0ffH
	DB	0ffH
	DB	0ffH
	DB	0ffH
	DB	0ffH
	DB	0ffH
	DB	0ffH
	DB	0ffH
	DB	0ffH
	DB	0ffH
	DB	0ffH
	DB	0ffH
	DB	0ffH
	DB	0ffH
	DB	0ffH
	DB	0ffH
	DB	0ffH
	DB	0ffH
	DB	0ffH
	DB	0ffH
	DB	0ffH
	DB	0ffH
	DB	0ffH
	DB	0ffH
	DB	0ffH
	DB	0ffH
	DB	0ffH
	DB	0ffH
	DB	0ffH
	DB	0ffH
	DB	0ffH
	DB	0ffH
	DB	0ffH
	DB	0ffH
	DB	0ffH
	DB	0ffH
	DB	0ffH
	DB	0fbH
	DB	0ebH
	DB	0fbH
	DB	0ffH
	DB	0ffH
	DB	0ffH
	DB	0ffH
	DB	0ffH
	DB	0ffH
	DB	0ffH
	DB	0ffH
	DB	0ffH
	DB	0ffH
	DB	0ffH
	DB	0ffH
	DB	0ffH
	DB	0ffH
	DB	0ffH
	DB	0ffH
	DB	0ffH
	DB	0ffH
	DB	0ffH
	DB	0ffH
	DB	0ffH
	DB	0ffH
	DB	0ffH
	DB	0ffH
	DB	0ffH
	DB	0ffH
	DB	0ffH
	DB	0ffH
	DB	0ffH
	DB	0ffH
	DB	0ffH
	DB	0ffH
	DB	0ffH
	DB	0ffH
	DB	0ffH
	DB	0ffH
	DB	0ffH
	DB	0ffH
	DB	0ffH
	DB	0fbH
	DB	0ebH
	DB	0fbH
	DB	0ffH
	DB	0ffH
	DB	0ffH
	DB	0ffH
	DB	0ffH
	DB	0ffH
	DB	0ffH
	DB	0ffH
	DB	0ffH
	DB	0ffH
	DB	0ffH
	DB	0ffH
	DB	0ffH
	DB	0ffH
	DB	0ffH
	DB	0ffH
	DB	0ffH
	DB	0ffH
	DB	0ffH
	DB	0ffH
	DB	0ffH
	DB	0ffH
	DB	0ffH
	DB	0ffH
	DB	0ffH
	DB	0ffH
	DB	0ffH
	DB	0ffH
	DB	0ffH
	DB	0ffH
	DB	0ffH
	DB	0ffH
	DB	0ffH
	DB	0ffH
	DB	0ffH
	DB	0ffH
	DB	0ffH
	DB	0ffH
	DB	0fbH
	DB	0fbH
	DB	0ebH
	DB	0f7H
	DB	0ffH
	DB	0ffH
	DB	0ffH
	DB	0ffH
	DB	0ffH
	DB	0ffH
	DB	0ffH
	DB	0ffH
	DB	0ffH
	DB	0ffH
	DB	0ffH
	DB	0ffH
	DB	0ffH
	DB	0ffH
	DB	0ffH
	DB	0ffH
	DB	0ffH
	DB	0ffH
	DB	0ffH
	DB	0ffH
	DB	0ffH
	DB	0ffH
	DB	0ffH
	DB	0ffH
	DB	0ffH
	DB	0ffH
	DB	0ffH
	DB	0ffH
	DB	0ffH
	DB	0ffH
	DB	0ffH
	DB	0ffH
	DB	0ffH
	DB	0ffH
	DB	0ffH
	DB	0ffH
	DB	0ffH
	DB	0ffH
	DB	0ffH
	DB	0fbH
	DB	0ebH
	DB	0fbH
	DB	0ffH
	DB	0ffH
	DB	0ffH
	DB	0ffH
	DB	0ffH
	DB	0ffH
	DB	0ffH
	DB	0ffH
	DB	0ffH
	DB	0ffH
	DB	0ffH
	DB	0ffH
	DB	0ffH
	DB	0ffH
	DB	0ffH
	DB	0ffH
	DB	0ffH
	DB	0ffH
	DB	0ffH
	DB	0ffH
	DB	0ffH
	DB	0ffH
	DB	0ffH
	DB	0ffH
	DB	0ffH
	DB	0ffH
	DB	0ffH
	DB	0ffH
	DB	0ffH
	DB	0ffH
	DB	0ffH
	DB	0ffH
	DB	0ffH
	DB	0ffH
	DB	0ffH
	DB	0ffH
	DB	0ffH
	DB	0ffH
	DB	0ffH
	DB	0fbH
	DB	0ebH
	DB	0fbH
	DB	0ffH
	DB	0ffH
	DB	0ffH
	DB	0ffH
	DB	0ffH
	DB	0ffH
	DB	0ffH
	DB	0ffH
	DB	0ffH
	DB	0ffH
	DB	0ffH
	DB	0ffH
	DB	0ffH
	DB	0ffH
	DB	0ffH
	DB	0ffH
	DB	0ffH
	DB	0ffH
	DB	0ffH
	DB	0ffH
	DB	0ffH
	DB	0ffH
	DB	0ffH
	DB	0ffH
	DB	0ffH
	DB	0ffH
	DB	0ffH
	DB	0ffH
	DB	0ffH
	DB	0ffH
	DB	0ffH
	DB	0ffH
	DB	0ffH
	DB	0ffH
	DB	0ffH
	DB	0ffH
	DB	0ffH
	DB	0ffH
	DB	0ffH
	DB	0fbH
	DB	0ebH
	DB	0fbH
	DB	0ffH
	DB	0ffH
	DB	0ffH
	DB	0ffH
	DB	0ffH
	DB	0ffH
	DB	0ffH
	DB	0ffH
	DB	0ffH
	DB	0ffH
	DB	0ffH
	DB	0ffH
	DB	0ffH
	DB	0ffH
	DB	0ffH
	DB	0ffH
	DB	0ffH
	DB	0ffH
	DB	0ffH
	DB	0ffH
	DB	0ffH
	DB	0ffH
	DB	0ffH
	DB	0ffH
	DB	0ffH
	DB	0ffH
	DB	0ffH
	DB	0ffH
	DB	0ffH
	DB	0ffH
	DB	0ffH
	DB	0ffH
	DB	0ffH
	DB	0ffH
	DB	0ffH
	DB	0ffH
	DB	0ffH
	DB	0ffH
	DB	0ffH
	DB	0fbH
	DB	0ebH
	DB	0fbH
	DB	0ffH
	DB	0ffH
	DB	0ffH
	DB	0ffH
	DB	0ffH
	DB	0ffH
	DB	0ffH
	DB	0ffH
	DB	0ffH
	DB	0ffH
	DB	0ffH
	DB	0ffH
	DB	0ffH
	DB	0ffH
	DB	0ffH
	DB	0ffH
	DB	0ffH
	DB	0ffH
	DB	0ffH
	DB	0ffH
	DB	0ffH
	DB	0ffH
	DB	0ffH
	DB	0ffH
	DB	0ffH
	DB	0ffH
	DB	0ffH
	DB	0ffH
	DB	0ffH
	DB	0ffH
	DB	0ffH
	DB	0ffH
	DB	0ffH
	DB	0ffH
	DB	0ffH
	DB	0ffH
	DB	0ffH
	DB	0ffH
	DB	0fbH
	DB	0fbH
	DB	0ebH
	DB	0f7H
	DB	0ffH
	DB	0ffH
	DB	0ffH
	DB	0ffH
	DB	0ffH
	DB	0ffH
	DB	0ffH
	DB	0ffH
	DB	0ffH
	DB	0ffH
	DB	0ffH
	DB	0ffH
	DB	0ffH
	DB	0ffH
	DB	0ffH
	DB	0ffH
	DB	0ffH
	DB	0ffH
	DB	0ffH
	DB	0ffH
	DB	0ffH
	DB	0ffH
	DB	0ffH
	DB	0ffH
	DB	0ffH
	DB	0ffH
	DB	0ffH
	DB	0ffH
	DB	0ffH
	DB	0ffH
	DB	0ffH
	DB	0ffH
	DB	0ffH
	DB	0ffH
	DB	0ffH
	DB	0ffH
	DB	0ffH
	DB	0ffH
	DB	0ffH
	DB	0fbH
	DB	0ebH
	DB	0fbH
	DB	0ffH
	DB	0ffH
	DB	0ffH
	DB	0ffH
	DB	0ffH
	DB	0ffH
	DB	0ffH
	DB	0ffH
	DB	0ffH
	DB	0ffH
	DB	0ffH
	DB	0ffH
	DB	0ffH
	DB	0ffH
	DB	0ffH
	DB	0ffH
	DB	0ffH
	DB	0ffH
	DB	0ffH
	DB	0ffH
	DB	0ffH
	DB	0ffH
	DB	0ffH
	DB	0ffH
	DB	0ffH
	DB	0ffH
	DB	0ffH
	DB	0ffH
	DB	0ffH
	DB	0ffH
	DB	0ffH
	DB	0ffH
	DB	0ffH
	DB	0ffH
	DB	0ffH
	DB	0ffH
	DB	0ffH
	DB	0ffH
	DB	0ffH
	DB	0fbH
	DB	0fbH
	DB	0ffH
	DB	0ffH
	DB	0ffH
	DB	0ffH
	DB	0ffH
	DB	0ffH
	DB	0ffH
	DB	0ffH
	DB	0ffH
	DB	0ffH
	DB	0ffH
	DB	0ffH
	DB	0ffH
	DB	0ffH
	DB	0ffH
	DB	0ffH
	DB	0ffH
	DB	0ffH
	DB	0ffH
	DB	0ffH
	DB	0ffH
	DB	0ffH
	DB	0ffH
	DB	0ffH
	DB	0ffH
	DB	0ffH
	DB	0ffH
	DB	0ffH
	DB	0ffH
	DB	0ffH
	DB	0ffH
	DB	0ffH
	DB	0ffH
	DB	0ffH
	DB	0ffH
	DB	0ffH
	DB	0ffH
	DB	0ffH
	DB	0ffH
	DB	0ffH
	DB	0ffH
	DB	0ffH
	DB	0ffH
	DB	0ffH
	DB	0ffH
	DB	0ffH
	DB	0ffH
	DB	0ffH
	DB	0ffH
	DB	0ffH
	DB	0ffH
	DB	0ffH
	DB	0ffH
	DB	0ffH
	DB	0ffH
	DB	0ffH
	DB	0ffH
	DB	0ffH
	DB	0ffH
	DB	0ffH
	DB	0ffH
	DB	0ffH
	DB	0ffH
	DB	0ffH
	DB	0ffH
	DB	0ffH
	DB	0ffH
	DB	0ffH
	DB	0ffH
	DB	0ffH
	DB	0ffH
	DB	0ffH
	DB	0ffH
	DB	0ffH
	DB	0ffH
	DB	0ffH
	DB	0ffH
	DB	0ffH
	DB	0ffH
	DB	0ffH
	DB	0ffH
	DB	0ffH
	DB	0ffH
	DB	0ffH
	DB	0ffH
	DB	0ffH
	DB	0ffH
	DB	0ffH
	DB	0ffH
	DB	0ffH
	DB	0ffH
	DB	0ffH
	DB	0ffH
	DB	0ffH
	DB	0ffH
	DB	0ffH
	DB	0ffH
	DB	0ffH
	DB	0ffH
	DB	0ffH
	DB	0ffH
	DB	0ffH
	DB	0ffH
	DB	0ffH
	DB	0ffH
	DB	0ffH
	DB	0ffH
	DB	0ffH
	DB	0ffH
	DB	0ffH
	DB	0ffH
	DB	0ffH
	DB	0ffH
	DB	0ffH
	DB	0ffH
	DB	0ffH
	DB	0ffH
	DB	0ffH
	DB	0ffH
	DB	0ffH
	DB	0ffH
	DB	0ffH
	DB	0ffH
	DB	0ffH
	DB	0ffH
	DB	0ffH
	DB	0ffH
	DB	0ffH
	DB	0ffH
	DB	0ffH
	DB	0ffH
	DB	0ffH
	DB	0ffH
	DB	0ffH
	DB	0ffH
	DB	0ffH
	DB	0ffH
	DB	0ffH
	DB	0ffH
	DB	0ffH
	DB	0ffH
	DB	0ffH
	DB	0ffH
	DB	0ffH
	DB	0ffH
	DB	0ffH
	DB	0ffH
	DB	0ffH
	DB	0ffH
	DB	0ffH
	DB	0ffH
	DB	0ffH
	DB	0ffH
	DB	0ffH
	DB	0ffH
	DB	0ffH
	DB	0ffH
	DB	0ffH
	DB	0ffH
	DB	0ffH
	DB	0ffH
	DB	0ffH
	DB	0ffH
	DB	0ffH
	DB	0ffH
	DB	0ffH
	DB	0ffH
	DB	0ffH
	DB	0ffH
	DB	0ffH
	DB	0ffH
	DB	0ffH
	DB	0ffH
	DB	0ffH
	DB	0ffH
	DB	0ffH
	DB	0ffH
	DB	0ffH
	DB	0ffH
	DB	0ffH
	DB	0ffH
	DB	0ffH
	DB	0ffH
	DB	0ffH
	DB	0ffH
	DB	0ffH
	DB	0ffH
	DB	0ffH
	DB	0ffH
	DB	0ffH
	DB	0ffH
	DB	0ffH
	DB	0ffH
	DB	0ffH
	DB	0ffH
	DB	0ffH
	DB	0ffH
	DB	0ffH
	DB	0ffH
	DB	0ffH
	DB	0ffH
	DB	0ffH
	DB	0ffH
	DB	0ffH
	DB	0ffH
	DB	0ffH
	DB	0ffH
	DB	0ffH
	DB	0ffH
	DB	0ffH
	DB	0ffH
	DB	0ffH
	DB	0ffH
	DB	0ffH
	DB	0ffH
	DB	0ffH
	DB	0ffH
	DB	0ffH
	DB	0ffH
	DB	0ffH
	DB	0ffH
	DB	0ffH
	DB	0ffH
	DB	0ffH
	DB	0ffH
	DB	0ffH
	DB	0ffH
	DB	0ffH
	DB	0ffH
	DB	0ffH
	DB	0ffH
	DB	0ffH
	DB	0ffH
	DB	0ffH
	DB	0ffH
	DB	0ffH
	DB	0ffH
	DB	0ffH
	DB	0ffH
	DB	0ffH
	DB	0ffH
	DB	0ffH
	DB	0ffH
	DB	0ffH
	DB	0ffH
	DB	0ffH
	DB	0ffH
	DB	0ffH
	DB	0ffH
	DB	0ffH
	DB	0ffH
	DB	0ffH
	DB	0ffH
	DB	0ffH
	DB	0ffH
	DB	0ffH
	DB	0ffH
	DB	0ffH
	DB	0ffH
	DB	0ffH
	DB	0ffH
	DB	0ffH
	DB	0ffH
	DB	0ffH
	DB	0ffH
	DB	0ffH
	DB	0ffH
	DB	0ffH
	DB	0ffH
	DB	0ffH
	DB	0ffH
	DB	0ffH
	DB	0ffH
	DB	0ffH
	DB	0ffH
	DB	0ffH
	DB	0ffH
	DB	0ffH
	DB	0ffH
	DB	0ffH
	DB	0ffH
	DB	0ffH
	DB	0ffH
	DB	0ffH
	DB	0ffH
	DB	0ffH
	DB	0ffH
	DB	0ffH
	DB	0ffH
	DB	0ffH
	DB	0ffH
	DB	0ffH
	DB	0ffH
	DB	0ffH
	DB	0ffH
	DB	0ffH
	DB	0ffH
	DB	0ffH
	DB	0ffH
	DB	0ffH
	DB	0ffH
	DB	0ffH
	DB	0ffH
	DB	0ffH
	DB	0ffH
	DB	0ffH
	DB	0ffH
	DB	0ffH
	DB	0ffH
	DB	0ffH
	DB	0ffH
	DB	0ffH
	DB	0ffH
	DB	0ffH
	DB	0ffH
	DB	0ffH
	DB	0ffH
	DB	0ffH
	DB	0ffH
	DB	0ffH
	DB	0ffH
	DB	0ffH
	DB	0ffH
	DB	0ffH
	DB	0ffH
	DB	0ffH
	DB	0ffH
	DB	0ffH
	DB	0ffH
	DB	0ffH
	DB	0ffH
	DB	0ffH
	DB	0ffH
	DB	0ffH
	DB	0ffH
	DB	0ffH
	DB	0ffH
	DB	0ffH
	DB	0ffH
	DB	0ffH
	DB	0ffH
	DB	0ffH
	DB	0ffH
	DB	0ffH
	DB	0ffH
	DB	0ffH
	DB	0ffH
	DB	0ffH
	DB	0ffH
	DB	0ffH
	DB	0ffH
	DB	0ffH
	DB	0ffH
	DB	0ffH
	DB	0ffH
	DB	0ffH
	DB	0ffH
	DB	0ffH
	DB	0ffH
	DB	0ffH
	DB	0ffH
	DB	0ffH
	DB	0ffH
	DB	0ffH
	DB	0ffH
	DB	0ffH
	DB	0ffH
	DB	0ffH
	DB	0ffH
	DB	0ffH
	DB	0ffH
	DB	0ffH
	DB	0ffH
	DB	0ffH
	DB	0ffH
	DB	0ffH
	DB	0ffH
	DB	0ffH
	DB	0ffH
	DB	0ffH
	DB	0ffH
	DB	0ffH
	DB	0ffH
	DB	0ffH
	DB	0ffH
	DB	0ffH
	DB	0ffH
	DB	0ffH
	DB	0ffH
	DB	0ffH
	DB	0ffH
	DB	0ffH
	DB	0ffH
	DB	0ffH
	DB	0ffH
	DB	0ffH
	DB	0ffH
	DB	0ffH
	DB	0ffH
	DB	0ffH
	DB	0ffH
	DB	0ffH
	DB	0ffH
	DB	0ffH
	DB	0ffH
	DB	0ffH
	DB	0ffH
	DB	0ffH
	DB	0ffH
	DB	0ffH
	DB	0ffH
	DB	0ffH
	DB	0ffH
	DB	0ffH
	DB	0ffH
	DB	0ffH
	DB	0ffH
	DB	0ffH
	DB	0ffH
	DB	0ffH
	DB	0ffH
	DB	0ffH
	DB	0ffH
	DB	0ffH
	DB	0ffH
	DB	0ffH
	DB	0ffH
	DB	0ffH
	DB	0ffH
	DB	0ffH
	DB	0ffH
	DB	0ffH
	DB	0ffH
	DB	0ffH
	DB	0ffH
	DB	0ffH
	DB	0ffH
	DB	0ffH
	DB	0ffH
	DB	0ffH
	DB	0ffH
	DB	0ffH
	DB	0ffH
	DB	0ffH
	DB	0ffH
	DB	0ffH
	DB	0ffH
	DB	0ffH
	DB	0ffH
	DB	0ffH
	DB	0ffH
	DB	0ffH
	DB	0ffH
	DB	0ffH
	DB	0ffH
	DB	0ffH
	DB	0ffH
	DB	0ffH
	DB	0ffH
	DB	0ffH
	DB	0ffH
	DB	0ffH
	DB	0ffH
	DB	0ffH
	DB	0ffH
	DB	0ffH
	DB	0ffH
	DB	0ffH
	DB	0ffH
	DB	0ffH
	DB	0ffH
	DB	0ffH
	DB	0ffH
	DB	0ffH
	DB	0ffH
	DB	0ffH
	DB	0ffH
	DB	0ffH
	DB	0ffH
	DB	0ffH
	DB	0ffH
	DB	0ffH
	DB	0ffH
	DB	0ffH
	DB	0ffH
	DB	0ffH
	DB	0ffH
	DB	0ffH
	DB	0ffH
	DB	0ffH
	DB	0ffH
	DB	0ffH
	DB	0ffH
	DB	0ffH
	DB	0ffH
	DB	0ffH
	DB	0ffH
	DB	0ffH
	DB	0ffH
	DB	0ffH
	DB	0ffH
	DB	0ffH
	DB	0ffH
	DB	0ffH
	DB	0ffH
	DB	0ffH
	DB	0ffH
	DB	0ffH
	DB	0ffH
	DB	0ffH
	DB	0ffH
	DB	0ffH
	DB	0ffH
	DB	0ffH
	DB	0ffH
	DB	0ffH
	DB	0ffH
	DB	0ffH
	DB	0ffH
	DB	0ffH
	DB	0ffH
	DB	0ffH
	DB	0ffH
	DB	0ffH
	DB	0ffH
	DB	0ffH
	DB	0ffH
	DB	0ffH
	DB	0ffH
	DB	0ffH
	DB	0ffH
	DB	0ffH
	DB	0ffH
	DB	0ffH
	DB	0ffH
	DB	0ffH
	DB	0ffH
	DB	0ffH
	DB	0ffH
	DB	0ffH
	DB	0ffH
	DB	0ffH
	DB	0ffH
	DB	0ffH
	DB	0ffH
	DB	0ffH
	DB	0ffH
	DB	0ffH
	DB	0ffH
	DB	0ffH
	DB	0ffH
	DB	0ffH
	DB	0ffH
	DB	0ffH
	DB	0ffH
	DB	0ffH
	DB	0ffH
	DB	0ffH
	DB	0ffH
	DB	0ffH
	DB	0ffH
	DB	0ffH
	DB	0ffH
	DB	0ffH
	DB	0ffH
	DB	0ffH
	DB	0ffH
	DB	0ffH
	DB	0ffH
	DB	0ffH
	DB	0ffH
	DB	0ffH
	DB	0ffH
	DB	0ffH
	DB	0ffH
	DB	0ffH
	DB	0ffH
	DB	0ffH
	DB	0ffH
	DB	0ffH
	DB	0ffH
	DB	0ffH
	DB	0ffH
	DB	0ffH
	DB	0ffH
	DB	0ffH
	DB	0ffH
	DB	0efH
	DB	0fbH
	DB	0ffH
	DB	0ffH
	DB	0ffH
	DB	0ffH
	DB	0ffH
	DB	0ffH
	DB	0ffH
	DB	0ffH
	DB	0ffH
	DB	0ffH
	DB	0ffH
	DB	0ffH
	DB	0ffH
	DB	0ffH
	DB	0ffH
	DB	0ffH
	DB	0ffH
	DB	0ffH
	DB	0ffH
	DB	0ffH
	DB	0ffH
	DB	0ffH
	DB	0ffH
	DB	0ffH
	DB	0ffH
	DB	0ffH
	DB	0ffH
	DB	0ffH
	DB	0ffH
	DB	0ffH
	DB	0ffH
	DB	0ffH
	DB	0ffH
	DB	0ffH
	DB	0ffH
	DB	0ffH
	DB	0ffH
	DB	0ffH
	DB	0fbH
	DB	0efH
	DB	0efH
	DB	0fbH
	DB	0ffH
	DB	0ffH
	DB	0ffH
	DB	0ffH
	DB	0ffH
	DB	0ffH
	DB	0ffH
	DB	0ffH
	DB	0ffH
	DB	0ffH
	DB	0ffH
	DB	0ffH
	DB	0ffH
	DB	0ffH
	DB	0ffH
	DB	0ffH
	DB	0ffH
	DB	0ffH
	DB	0ffH
	DB	0ffH
	DB	0ffH
	DB	0ffH
	DB	0ffH
	DB	0ffH
	DB	0ffH
	DB	0ffH
	DB	0ffH
	DB	0ffH
	DB	0ffH
	DB	0ffH
	DB	0ffH
	DB	0ffH
	DB	0ffH
	DB	0ffH
	DB	0ffH
	DB	0ffH
	DB	0ffH
	DB	0ffH
	DB	0fbH
	DB	0ebH
	DB	0efH
	DB	0fbH
	DB	0ffH
	DB	0ffH
	DB	0ffH
	DB	0ffH
	DB	0ffH
	DB	0ffH
	DB	0ffH
	DB	0ffH
	DB	0ffH
	DB	0ffH
	DB	0ffH
	DB	0ffH
	DB	0ffH
	DB	0ffH
	DB	0ffH
	DB	0ffH
	DB	0ffH
	DB	0ffH
	DB	0ffH
	DB	0ffH
	DB	0ffH
	DB	0ffH
	DB	0ffH
	DB	0ffH
	DB	0ffH
	DB	0ffH
	DB	0ffH
	DB	0ffH
	DB	0ffH
	DB	0ffH
	DB	0ffH
	DB	0ffH
	DB	0ffH
	DB	0ffH
	DB	0ffH
	DB	0ffH
	DB	0ffH
	DB	0ffH
	DB	0fbH
	DB	0efH
	DB	0efH
	DB	0fbH
	DB	0ffH
	DB	0ffH
	DB	0ffH
	DB	0ffH
	DB	0ffH
	DB	0ffH
	DB	0ffH
	DB	0ffH
	DB	0ffH
	DB	0ffH
	DB	0ffH
	DB	0ffH
	DB	0ffH
	DB	0ffH
	DB	0ffH
	DB	0ffH
	DB	0ffH
	DB	0ffH
	DB	0ffH
	DB	0ffH
	DB	0ffH
	DB	0ffH
	DB	0ffH
	DB	0ffH
	DB	0ffH
	DB	0ffH
	DB	0ffH
	DB	0ffH
	DB	0ffH
	DB	0ffH
	DB	0ffH
	DB	0ffH
	DB	0ffH
	DB	0ffH
	DB	0ffH
	DB	0ffH
	DB	0ffH
	DB	0ffH
	DB	0fbH
	DB	0ebH
	DB	0efH
	DB	0fbH
	DB	0ffH
	DB	0ffH
	DB	0ffH
	DB	0ffH
	DB	0ffH
	DB	0ffH
	DB	0ffH
	DB	0ffH
	DB	0ffH
	DB	0ffH
	DB	0ffH
	DB	0ffH
	DB	0ffH
	DB	0ffH
	DB	0ffH
	DB	0ffH
	DB	0ffH
	DB	0ffH
	DB	0ffH
	DB	0ffH
	DB	0ffH
	DB	0ffH
	DB	0ffH
	DB	0ffH
	DB	0ffH
	DB	0ffH
	DB	0ffH
	DB	0ffH
	DB	0ffH
	DB	0ffH
	DB	0ffH
	DB	0ffH
	DB	0ffH
	DB	0ffH
	DB	0ffH
	DB	0ffH
	DB	0ffH
	DB	0ffH
	DB	0fbH
	DB	0ebH
	DB	0efH
	DB	0fbH
	DB	0ffH
	DB	0ffH
	DB	0ffH
	DB	0ffH
	DB	0ffH
	DB	0ffH
	DB	0ffH
	DB	0ffH
	DB	0ffH
	DB	0ffH
	DB	0ffH
	DB	0ffH
	DB	0ffH
	DB	0ffH
	DB	0ffH
	DB	0ffH
	DB	0ffH
	DB	0ffH
	DB	0ffH
	DB	0ffH
	DB	0ffH
	DB	0ffH
	DB	0ffH
	DB	0ffH
	DB	0ffH
	DB	0ffH
	DB	0ffH
	DB	0ffH
	DB	0ffH
	DB	0ffH
	DB	0ffH
	DB	0ffH
	DB	0ffH
	DB	0ffH
	DB	0ffH
	DB	0ffH
	DB	0ffH
	DB	0ffH
	DB	0fbH
	DB	0efH
	DB	0efH
	DB	0fbH
	DB	0ffH
	DB	0ffH
	DB	0ffH
	DB	0ffH
	DB	0ffH
	DB	0ffH
	DB	0ffH
	DB	0ffH
	DB	0ffH
	DB	0ffH
	DB	0ffH
	DB	0ffH
	DB	0ffH
	DB	0ffH
	DB	0ffH
	DB	0ffH
	DB	0ffH
	DB	0ffH
	DB	0ffH
	DB	0ffH
	DB	0ffH
	DB	0ffH
	DB	0ffH
	DB	0ffH
	DB	0ffH
	DB	0ffH
	DB	0ffH
	DB	0ffH
	DB	0ffH
	DB	0ffH
	DB	0ffH
	DB	0ffH
	DB	0ffH
	DB	0ffH
	DB	0ffH
	DB	0ffH
	DB	0ffH
	DB	0ffH
	DB	0fbH
	DB	0ebH
	DB	0efH
	DB	0fbH
	DB	0ffH
	DB	0ffH
	DB	0ffH
	DB	0ffH
	DB	0ffH
	DB	0ffH
	DB	0ffH
	DB	0ffH
	DB	0ffH
	DB	0ffH
	DB	0ffH
	DB	0ffH
	DB	0ffH
	DB	0ffH
	DB	0ffH
	DB	0ffH
	DB	0ffH
	DB	0ffH
	DB	0ffH
	DB	0ffH
	DB	0ffH
	DB	0ffH
	DB	0ffH
	DB	0ffH
	DB	0ffH
	DB	0ffH
	DB	0ffH
	DB	0ffH
	DB	0ffH
	DB	0ffH
	DB	0ffH
	DB	0ffH
	DB	0ffH
	DB	0ffH
	DB	0ffH
	DB	0ffH
	DB	0ffH
	DB	0ffH
	DB	0fbH
	DB	0ebH
	DB	0ebH
	DB	0fbH
	DB	0ffH
	DB	0ffH
	DB	0ffH
	DB	0ffH
	DB	0ffH
	DB	0ffH
	DB	0ffH
	DB	0ffH
	DB	0ffH
	DB	0ffH
	DB	0ffH
	DB	0ffH
	DB	0ffH
	DB	0ffH
	DB	0ffH
	DB	0ffH
	DB	0ffH
	DB	0ffH
	DB	0ffH
	DB	0ffH
	DB	0ffH
	DB	0ffH
	DB	0ffH
	DB	0ffH
	DB	0ffH
	DB	0ffH
	DB	0ffH
	DB	0ffH
	DB	0ffH
	DB	0ffH
	DB	0ffH
	DB	0ffH
	DB	0ffH
	DB	0ffH
	DB	0ffH
	DB	0ffH
	DB	0ffH
	DB	0ffH
	DB	0fbH
	DB	0efH
	DB	0efH
	DB	0fbH
	DB	0ffH
	DB	0ffH
	DB	0ffH
	DB	0ffH
	DB	0ffH
	DB	0ffH
	DB	0ffH
	DB	0ffH
	DB	0ffH
	DB	0ffH
	DB	0ffH
	DB	0ffH
	DB	0ffH
	DB	0ffH
	DB	0ffH
	DB	0ffH
	DB	0ffH
	DB	0ffH
	DB	0ffH
	DB	0ffH
	DB	0ffH
	DB	0ffH
	DB	0ffH
	DB	0ffH
	DB	0ffH
	DB	0ffH
	DB	0ffH
	DB	0ffH
	DB	0ffH
	DB	0ffH
	DB	0ffH
	DB	0ffH
	DB	0ffH
	DB	0ffH
	DB	0ffH
	DB	0ffH
	DB	0ffH
	DB	0ffH
	DB	0fbH
	DB	0ebH
	DB	0efH
	DB	0fbH
	DB	0ffH
	DB	0ffH
	DB	0ffH
	DB	0ffH
	DB	0ffH
	DB	0ffH
	DB	0ffH
	DB	0ffH
	DB	0ffH
	DB	0ffH
	DB	0ffH
	DB	0ffH
	DB	0ffH
	DB	0ffH
	DB	0ffH
	DB	0ffH
	DB	0ffH
	DB	0ffH
	DB	0ffH
	DB	0ffH
	DB	0ffH
	DB	0ffH
	DB	0ffH
	DB	0ffH
	DB	0ffH
	DB	0ffH
	DB	0ffH
	DB	0ffH
	DB	0ffH
	DB	0ffH
	DB	0ffH
	DB	0ffH
	DB	0ffH
	DB	0ffH
	DB	0ffH
	DB	0ffH
	DB	0ffH
	DB	0ffH
	DB	0fbH
	DB	0ebH
	DB	0ebH
	DB	0fbH
	DB	0ffH
	DB	0ffH
	DB	0ffH
	DB	0ffH
	DB	0ffH
	DB	0ffH
	DB	0ffH
	DB	0ffH
	DB	0ffH
	DB	0ffH
	DB	0ffH
	DB	0ffH
	DB	0ffH
	DB	0ffH
	DB	0ffH
	DB	0ffH
	DB	0ffH
	DB	0ffH
	DB	0ffH
	DB	0ffH
	DB	0ffH
	DB	0ffH
	DB	0ffH
	DB	0ffH
	DB	0ffH
	DB	0ffH
	DB	0ffH
	DB	0ffH
	DB	0ffH
	DB	0ffH
	DB	0ffH
	DB	0ffH
	DB	0ffH
	DB	0ffH
	DB	0ffH
	DB	0ffH
	DB	0ffH
	DB	0ffH
	DB	0fbH
	DB	0efH
	DB	0a2H
	DB	0dfH
	DB	0ffH
	DB	0ffH
	DB	0ffH
	DB	0ffH
	DB	0ffH
	DB	0ffH
	DB	0ffH
	DB	0ffH
	DB	0ffH
	DB	0ffH
	DB	0ffH
	DB	0ffH
	DB	0ffH
	DB	0ffH
	DB	0ffH
	DB	0ffH
	DB	0ffH
	DB	0ffH
	DB	0ffH
	DB	0ffH
	DB	0ffH
	DB	0ffH
	DB	0ffH
	DB	0ffH
	DB	0ffH
	DB	0ffH
	DB	0ffH
	DB	0ffH
	DB	0ffH
	DB	0ffH
	DB	0ffH
	DB	0ffH
	DB	0ffH
	DB	0ffH
	DB	0ffH
	DB	0ffH
	DB	0ffH
	DB	0ffH
	DB	0dfH
	DB	09eH
	DB	0cH
	DB	034H
	DB	08eH
	DB	0baH
	DB	0dfH
	DB	0efH
	DB	0fbH
	DB	0ffH
	DB	0ffH
	DB	0ffH
	DB	0ffH
	DB	0ffH
	DB	0ffH
	DB	0ffH
	DB	0ffH
	DB	0ffH
	DB	0ffH
	DB	0ffH
	DB	0ffH
	DB	0ffH
	DB	0ffH
	DB	0ffH
	DB	0ffH
	DB	0ffH
	DB	0ffH
	DB	0ffH
	DB	0ffH
	DB	0ffH
	DB	0ffH
	DB	0ffH
	DB	0ffH
	DB	0ffH
	DB	0ffH
	DB	0ffH
	DB	0ffH
	DB	0fbH
	DB	0efH
	DB	0dfH
	DB	0baH
	DB	08eH
	DB	034H
	DB	0cH
CONST	ENDS
END
