; Listing generated by Microsoft (R) Optimizing Compiler Version 19.28.29914.0 

	TITLE	D:\Oscilloscope\Project\Oscilloscope\Graphic\build\Debug\obj\leftButtonUnpress.obj
	.686P
	.XMM
	include listing.inc
	.model	flat

INCLUDELIB MSVCRTD
INCLUDELIB OLDNAMES

PUBLIC	?_leftButtonUnpress@@3QBEB			; _leftButtonUnpress
PUBLIC	?_leftButtonUnpress_alpha_channel@@3QBEB	; _leftButtonUnpress_alpha_channel
CONST	SEGMENT
?_leftButtonUnpress@@3QBEB DB 00H			; _leftButtonUnpress
	DB	00H
	DB	00H
	DB	00H
	DB	00H
	DB	00H
	DB	00H
	DB	00H
	DB	00H
	DB	00H
	DB	00H
	DB	00H
	DB	00H
	DB	00H
	DB	00H
	DB	00H
	DB	00H
	DB	00H
	DB	00H
	DB	00H
	DB	00H
	DB	00H
	DB	00H
	DB	00H
	DB	00H
	DB	00H
	DB	00H
	DB	00H
	DB	00H
	DB	00H
	DB	00H
	DB	00H
	DB	00H
	DB	00H
	DB	00H
	DB	00H
	DB	08eH
	DB	073H
	DB	08eH
	DB	073H
	DB	00H
	DB	00H
	DB	00H
	DB	00H
	DB	00H
	DB	00H
	DB	00H
	DB	00H
	DB	00H
	DB	00H
	DB	00H
	DB	00H
	DB	00H
	DB	00H
	DB	00H
	DB	00H
	DB	00H
	DB	00H
	DB	00H
	DB	00H
	DB	00H
	DB	00H
	DB	00H
	DB	00H
	DB	00H
	DB	00H
	DB	00H
	DB	00H
	DB	00H
	DB	00H
	DB	00H
	DB	00H
	DB	00H
	DB	00H
	DB	00H
	DB	00H
	DB	00H
	DB	00H
	DB	08eH
	DB	073H
	DB	08eH
	DB	073H
	DB	08eH
	DB	073H
	DB	08eH
	DB	073H
	DB	00H
	DB	00H
	DB	00H
	DB	00H
	DB	00H
	DB	00H
	DB	00H
	DB	00H
	DB	00H
	DB	00H
	DB	00H
	DB	00H
	DB	00H
	DB	00H
	DB	00H
	DB	00H
	DB	00H
	DB	00H
	DB	00H
	DB	00H
	DB	00H
	DB	00H
	DB	00H
	DB	00H
	DB	00H
	DB	00H
	DB	00H
	DB	00H
	DB	00H
	DB	00H
	DB	00H
	DB	00H
	DB	00H
	DB	00H
	DB	00H
	DB	00H
	DB	08eH
	DB	073H
	DB	08eH
	DB	073H
	DB	08eH
	DB	073H
	DB	08eH
	DB	073H
	DB	08eH
	DB	073H
	DB	00H
	DB	00H
	DB	00H
	DB	00H
	DB	00H
	DB	00H
	DB	00H
	DB	00H
	DB	00H
	DB	00H
	DB	00H
	DB	00H
	DB	00H
	DB	00H
	DB	00H
	DB	00H
	DB	00H
	DB	00H
	DB	00H
	DB	00H
	DB	00H
	DB	00H
	DB	00H
	DB	00H
	DB	00H
	DB	00H
	DB	00H
	DB	00H
	DB	00H
	DB	00H
	DB	00H
	DB	00H
	DB	00H
	DB	00H
	DB	08eH
	DB	073H
	DB	08eH
	DB	073H
	DB	08eH
	DB	073H
	DB	08eH
	DB	073H
	DB	08eH
	DB	073H
	DB	08eH
	DB	073H
	DB	00H
	DB	00H
	DB	00H
	DB	00H
	DB	00H
	DB	00H
	DB	00H
	DB	00H
	DB	00H
	DB	00H
	DB	00H
	DB	00H
	DB	00H
	DB	00H
	DB	00H
	DB	00H
	DB	00H
	DB	00H
	DB	00H
	DB	00H
	DB	00H
	DB	00H
	DB	00H
	DB	00H
	DB	00H
	DB	00H
	DB	00H
	DB	00H
	DB	00H
	DB	00H
	DB	08eH
	DB	073H
	DB	08eH
	DB	073H
	DB	08eH
	DB	073H
	DB	08eH
	DB	073H
	DB	08eH
	DB	073H
	DB	08eH
	DB	073H
	DB	08eH
	DB	073H
	DB	08eH
	DB	073H
	DB	00H
	DB	00H
	DB	00H
	DB	00H
	DB	00H
	DB	00H
	DB	00H
	DB	00H
	DB	00H
	DB	00H
	DB	00H
	DB	00H
	DB	00H
	DB	00H
	DB	00H
	DB	00H
	DB	00H
	DB	00H
	DB	00H
	DB	00H
	DB	00H
	DB	00H
	DB	00H
	DB	00H
	DB	00H
	DB	00H
	DB	00H
	DB	00H
	DB	08eH
	DB	073H
	DB	08eH
	DB	073H
	DB	08eH
	DB	073H
	DB	08eH
	DB	073H
	DB	08eH
	DB	073H
	DB	08eH
	DB	073H
	DB	08eH
	DB	073H
	DB	08eH
	DB	073H
	DB	08eH
	DB	073H
	DB	00H
	DB	00H
	DB	00H
	DB	00H
	DB	00H
	DB	00H
	DB	00H
	DB	00H
	DB	00H
	DB	00H
	DB	00H
	DB	00H
	DB	00H
	DB	00H
	DB	00H
	DB	00H
	DB	00H
	DB	00H
	DB	00H
	DB	00H
	DB	00H
	DB	00H
	DB	00H
	DB	00H
	DB	08eH
	DB	073H
	DB	08eH
	DB	073H
	DB	08eH
	DB	073H
	DB	08eH
	DB	073H
	DB	08eH
	DB	073H
	DB	08eH
	DB	073H
	DB	08eH
	DB	073H
	DB	08eH
	DB	073H
	DB	08eH
	DB	073H
	DB	08eH
	DB	073H
	DB	08eH
	DB	073H
	DB	00H
	DB	00H
	DB	00H
	DB	00H
	DB	00H
	DB	00H
	DB	00H
	DB	00H
	DB	00H
	DB	00H
	DB	00H
	DB	00H
	DB	00H
	DB	00H
	DB	00H
	DB	00H
	DB	00H
	DB	00H
	DB	00H
	DB	00H
	DB	00H
	DB	00H
	DB	08eH
	DB	073H
	DB	08eH
	DB	073H
	DB	08eH
	DB	073H
	DB	08eH
	DB	073H
	DB	08eH
	DB	073H
	DB	08eH
	DB	073H
	DB	08eH
	DB	073H
	DB	08eH
	DB	073H
	DB	08eH
	DB	073H
	DB	08eH
	DB	073H
	DB	08eH
	DB	073H
	DB	08eH
	DB	073H
	DB	00H
	DB	00H
	DB	00H
	DB	00H
	DB	00H
	DB	00H
	DB	00H
	DB	00H
	DB	00H
	DB	00H
	DB	00H
	DB	00H
	DB	00H
	DB	00H
	DB	00H
	DB	00H
	DB	00H
	DB	00H
	DB	00H
	DB	00H
	DB	08eH
	DB	073H
	DB	08eH
	DB	073H
	DB	08eH
	DB	073H
	DB	08eH
	DB	073H
	DB	08eH
	DB	073H
	DB	08eH
	DB	073H
	DB	08eH
	DB	073H
	DB	08eH
	DB	073H
	DB	08eH
	DB	073H
	DB	08eH
	DB	073H
	DB	08eH
	DB	073H
	DB	08eH
	DB	073H
	DB	08eH
	DB	073H
	DB	00H
	DB	00H
	DB	00H
	DB	00H
	DB	00H
	DB	00H
	DB	00H
	DB	00H
	DB	00H
	DB	00H
	DB	00H
	DB	00H
	DB	00H
	DB	00H
	DB	00H
	DB	00H
	DB	08eH
	DB	073H
	DB	08eH
	DB	073H
	DB	08eH
	DB	073H
	DB	08eH
	DB	073H
	DB	08eH
	DB	073H
	DB	08eH
	DB	073H
	DB	08eH
	DB	073H
	DB	08eH
	DB	073H
	DB	08eH
	DB	073H
	DB	08eH
	DB	073H
	DB	08eH
	DB	073H
	DB	08eH
	DB	073H
	DB	08eH
	DB	073H
	DB	08eH
	DB	073H
	DB	08eH
	DB	073H
	DB	00H
	DB	00H
	DB	00H
	DB	00H
	DB	00H
	DB	00H
	DB	00H
	DB	00H
	DB	00H
	DB	00H
	DB	00H
	DB	00H
	DB	00H
	DB	00H
	DB	08eH
	DB	073H
	DB	08eH
	DB	073H
	DB	08eH
	DB	073H
	DB	08eH
	DB	073H
	DB	08eH
	DB	073H
	DB	08eH
	DB	073H
	DB	08eH
	DB	073H
	DB	08eH
	DB	073H
	DB	08eH
	DB	073H
	DB	08eH
	DB	073H
	DB	08eH
	DB	073H
	DB	08eH
	DB	073H
	DB	08eH
	DB	073H
	DB	08eH
	DB	073H
	DB	08eH
	DB	073H
	DB	08eH
	DB	073H
	DB	00H
	DB	00H
	DB	00H
	DB	00H
	DB	00H
	DB	00H
	DB	00H
	DB	00H
	DB	00H
	DB	00H
	DB	00H
	DB	00H
	DB	08eH
	DB	073H
	DB	08eH
	DB	073H
	DB	08eH
	DB	073H
	DB	08eH
	DB	073H
	DB	08eH
	DB	073H
	DB	08eH
	DB	073H
	DB	08eH
	DB	073H
	DB	08eH
	DB	073H
	DB	08eH
	DB	073H
	DB	08eH
	DB	073H
	DB	08eH
	DB	073H
	DB	08eH
	DB	073H
	DB	08eH
	DB	073H
	DB	08eH
	DB	073H
	DB	08eH
	DB	073H
	DB	08eH
	DB	073H
	DB	08eH
	DB	073H
	DB	00H
	DB	00H
	DB	00H
	DB	00H
	DB	00H
	DB	00H
	DB	00H
	DB	00H
	DB	08eH
	DB	073H
	DB	08eH
	DB	073H
	DB	08eH
	DB	073H
	DB	08eH
	DB	073H
	DB	08eH
	DB	073H
	DB	08eH
	DB	073H
	DB	08eH
	DB	073H
	DB	08eH
	DB	073H
	DB	08eH
	DB	073H
	DB	08eH
	DB	073H
	DB	08eH
	DB	073H
	DB	08eH
	DB	073H
	DB	08eH
	DB	073H
	DB	08eH
	DB	073H
	DB	08eH
	DB	073H
	DB	08eH
	DB	073H
	DB	08eH
	DB	073H
	DB	08eH
	DB	073H
	DB	08eH
	DB	073H
	DB	00H
	DB	00H
	DB	00H
	DB	00H
	DB	00H
	DB	00H
	DB	08eH
	DB	073H
	DB	08eH
	DB	073H
	DB	08eH
	DB	073H
	DB	08eH
	DB	073H
	DB	08eH
	DB	073H
	DB	08eH
	DB	073H
	DB	08eH
	DB	073H
	DB	08eH
	DB	073H
	DB	08eH
	DB	073H
	DB	08eH
	DB	073H
	DB	08eH
	DB	073H
	DB	08eH
	DB	073H
	DB	08eH
	DB	073H
	DB	08eH
	DB	073H
	DB	08eH
	DB	073H
	DB	08eH
	DB	073H
	DB	08eH
	DB	073H
	DB	08eH
	DB	073H
	DB	08eH
	DB	073H
	DB	08eH
	DB	073H
	DB	00H
	DB	00H
	DB	00H
	DB	00H
	DB	00H
	DB	00H
	DB	08eH
	DB	073H
	DB	08eH
	DB	073H
	DB	08eH
	DB	073H
	DB	08eH
	DB	073H
	DB	08eH
	DB	073H
	DB	08eH
	DB	073H
	DB	08eH
	DB	073H
	DB	08eH
	DB	073H
	DB	08eH
	DB	073H
	DB	08eH
	DB	073H
	DB	08eH
	DB	073H
	DB	08eH
	DB	073H
	DB	08eH
	DB	073H
	DB	08eH
	DB	073H
	DB	08eH
	DB	073H
	DB	08eH
	DB	073H
	DB	08eH
	DB	073H
	DB	08eH
	DB	073H
	DB	08eH
	DB	073H
	DB	08eH
	DB	073H
	DB	00H
	DB	00H
	DB	00H
	DB	00H
	DB	00H
	DB	00H
	DB	08eH
	DB	073H
	DB	08eH
	DB	073H
	DB	08eH
	DB	073H
	DB	08eH
	DB	073H
	DB	08eH
	DB	073H
	DB	08eH
	DB	073H
	DB	08eH
	DB	073H
	DB	08eH
	DB	073H
	DB	08eH
	DB	073H
	DB	08eH
	DB	073H
	DB	08eH
	DB	073H
	DB	08eH
	DB	073H
	DB	08eH
	DB	073H
	DB	08eH
	DB	073H
	DB	08eH
	DB	073H
	DB	08eH
	DB	073H
	DB	08eH
	DB	073H
	DB	08eH
	DB	073H
	DB	08eH
	DB	073H
	DB	08eH
	DB	073H
	DB	00H
	DB	00H
	DB	00H
	DB	00H
	DB	00H
	DB	00H
	DB	00H
	DB	00H
	DB	08eH
	DB	073H
	DB	08eH
	DB	073H
	DB	08eH
	DB	073H
	DB	08eH
	DB	073H
	DB	08eH
	DB	073H
	DB	08eH
	DB	073H
	DB	08eH
	DB	073H
	DB	08eH
	DB	073H
	DB	08eH
	DB	073H
	DB	08eH
	DB	073H
	DB	08eH
	DB	073H
	DB	08eH
	DB	073H
	DB	08eH
	DB	073H
	DB	08eH
	DB	073H
	DB	08eH
	DB	073H
	DB	08eH
	DB	073H
	DB	08eH
	DB	073H
	DB	08eH
	DB	073H
	DB	08eH
	DB	073H
	DB	00H
	DB	00H
	DB	00H
	DB	00H
	DB	00H
	DB	00H
	DB	00H
	DB	00H
	DB	00H
	DB	00H
	DB	00H
	DB	00H
	DB	08eH
	DB	073H
	DB	08eH
	DB	073H
	DB	08eH
	DB	073H
	DB	08eH
	DB	073H
	DB	08eH
	DB	073H
	DB	08eH
	DB	073H
	DB	08eH
	DB	073H
	DB	08eH
	DB	073H
	DB	08eH
	DB	073H
	DB	08eH
	DB	073H
	DB	08eH
	DB	073H
	DB	08eH
	DB	073H
	DB	08eH
	DB	073H
	DB	08eH
	DB	073H
	DB	08eH
	DB	073H
	DB	08eH
	DB	073H
	DB	08eH
	DB	073H
	DB	00H
	DB	00H
	DB	00H
	DB	00H
	DB	00H
	DB	00H
	DB	00H
	DB	00H
	DB	00H
	DB	00H
	DB	00H
	DB	00H
	DB	00H
	DB	00H
	DB	08eH
	DB	073H
	DB	08eH
	DB	073H
	DB	08eH
	DB	073H
	DB	08eH
	DB	073H
	DB	08eH
	DB	073H
	DB	08eH
	DB	073H
	DB	08eH
	DB	073H
	DB	08eH
	DB	073H
	DB	08eH
	DB	073H
	DB	08eH
	DB	073H
	DB	08eH
	DB	073H
	DB	08eH
	DB	073H
	DB	08eH
	DB	073H
	DB	08eH
	DB	073H
	DB	08eH
	DB	073H
	DB	08eH
	DB	073H
	DB	00H
	DB	00H
	DB	00H
	DB	00H
	DB	00H
	DB	00H
	DB	00H
	DB	00H
	DB	00H
	DB	00H
	DB	00H
	DB	00H
	DB	00H
	DB	00H
	DB	00H
	DB	00H
	DB	08eH
	DB	073H
	DB	08eH
	DB	073H
	DB	08eH
	DB	073H
	DB	08eH
	DB	073H
	DB	08eH
	DB	073H
	DB	08eH
	DB	073H
	DB	08eH
	DB	073H
	DB	08eH
	DB	073H
	DB	08eH
	DB	073H
	DB	08eH
	DB	073H
	DB	08eH
	DB	073H
	DB	08eH
	DB	073H
	DB	08eH
	DB	073H
	DB	08eH
	DB	073H
	DB	08eH
	DB	073H
	DB	00H
	DB	00H
	DB	00H
	DB	00H
	DB	00H
	DB	00H
	DB	00H
	DB	00H
	DB	00H
	DB	00H
	DB	00H
	DB	00H
	DB	00H
	DB	00H
	DB	00H
	DB	00H
	DB	00H
	DB	00H
	DB	00H
	DB	00H
	DB	08eH
	DB	073H
	DB	08eH
	DB	073H
	DB	08eH
	DB	073H
	DB	08eH
	DB	073H
	DB	08eH
	DB	073H
	DB	08eH
	DB	073H
	DB	08eH
	DB	073H
	DB	08eH
	DB	073H
	DB	08eH
	DB	073H
	DB	08eH
	DB	073H
	DB	08eH
	DB	073H
	DB	08eH
	DB	073H
	DB	08eH
	DB	073H
	DB	00H
	DB	00H
	DB	00H
	DB	00H
	DB	00H
	DB	00H
	DB	00H
	DB	00H
	DB	00H
	DB	00H
	DB	00H
	DB	00H
	DB	00H
	DB	00H
	DB	00H
	DB	00H
	DB	00H
	DB	00H
	DB	00H
	DB	00H
	DB	00H
	DB	00H
	DB	08eH
	DB	073H
	DB	08eH
	DB	073H
	DB	08eH
	DB	073H
	DB	08eH
	DB	073H
	DB	08eH
	DB	073H
	DB	08eH
	DB	073H
	DB	08eH
	DB	073H
	DB	08eH
	DB	073H
	DB	08eH
	DB	073H
	DB	08eH
	DB	073H
	DB	08eH
	DB	073H
	DB	08eH
	DB	073H
	DB	00H
	DB	00H
	DB	00H
	DB	00H
	DB	00H
	DB	00H
	DB	00H
	DB	00H
	DB	00H
	DB	00H
	DB	00H
	DB	00H
	DB	00H
	DB	00H
	DB	00H
	DB	00H
	DB	00H
	DB	00H
	DB	00H
	DB	00H
	DB	00H
	DB	00H
	DB	00H
	DB	00H
	DB	08eH
	DB	073H
	DB	08eH
	DB	073H
	DB	08eH
	DB	073H
	DB	08eH
	DB	073H
	DB	08eH
	DB	073H
	DB	08eH
	DB	073H
	DB	08eH
	DB	073H
	DB	08eH
	DB	073H
	DB	08eH
	DB	073H
	DB	08eH
	DB	073H
	DB	08eH
	DB	073H
	DB	00H
	DB	00H
	DB	00H
	DB	00H
	DB	00H
	DB	00H
	DB	00H
	DB	00H
	DB	00H
	DB	00H
	DB	00H
	DB	00H
	DB	00H
	DB	00H
	DB	00H
	DB	00H
	DB	00H
	DB	00H
	DB	00H
	DB	00H
	DB	00H
	DB	00H
	DB	00H
	DB	00H
	DB	00H
	DB	00H
	DB	00H
	DB	00H
	DB	08eH
	DB	073H
	DB	08eH
	DB	073H
	DB	08eH
	DB	073H
	DB	08eH
	DB	073H
	DB	08eH
	DB	073H
	DB	08eH
	DB	073H
	DB	08eH
	DB	073H
	DB	08eH
	DB	073H
	DB	08eH
	DB	073H
	DB	00H
	DB	00H
	DB	00H
	DB	00H
	DB	00H
	DB	00H
	DB	00H
	DB	00H
	DB	00H
	DB	00H
	DB	00H
	DB	00H
	DB	00H
	DB	00H
	DB	00H
	DB	00H
	DB	00H
	DB	00H
	DB	00H
	DB	00H
	DB	00H
	DB	00H
	DB	00H
	DB	00H
	DB	00H
	DB	00H
	DB	00H
	DB	00H
	DB	00H
	DB	00H
	DB	08eH
	DB	073H
	DB	08eH
	DB	073H
	DB	08eH
	DB	073H
	DB	08eH
	DB	073H
	DB	08eH
	DB	073H
	DB	08eH
	DB	073H
	DB	08eH
	DB	073H
	DB	08eH
	DB	073H
	DB	00H
	DB	00H
	DB	00H
	DB	00H
	DB	00H
	DB	00H
	DB	00H
	DB	00H
	DB	00H
	DB	00H
	DB	00H
	DB	00H
	DB	00H
	DB	00H
	DB	00H
	DB	00H
	DB	00H
	DB	00H
	DB	00H
	DB	00H
	DB	00H
	DB	00H
	DB	00H
	DB	00H
	DB	00H
	DB	00H
	DB	00H
	DB	00H
	DB	00H
	DB	00H
	DB	00H
	DB	00H
	DB	00H
	DB	00H
	DB	08eH
	DB	073H
	DB	08eH
	DB	073H
	DB	08eH
	DB	073H
	DB	08eH
	DB	073H
	DB	08eH
	DB	073H
	DB	08eH
	DB	073H
	DB	00H
	DB	00H
	DB	00H
	DB	00H
	DB	00H
	DB	00H
	DB	00H
	DB	00H
	DB	00H
	DB	00H
	DB	00H
	DB	00H
	DB	00H
	DB	00H
	DB	00H
	DB	00H
	DB	00H
	DB	00H
	DB	00H
	DB	00H
	DB	00H
	DB	00H
	DB	00H
	DB	00H
	DB	00H
	DB	00H
	DB	00H
	DB	00H
	DB	00H
	DB	00H
	DB	00H
	DB	00H
	DB	00H
	DB	00H
	DB	00H
	DB	00H
	DB	08eH
	DB	073H
	DB	08eH
	DB	073H
	DB	08eH
	DB	073H
	DB	08eH
	DB	073H
	DB	08eH
	DB	073H
	DB	00H
	DB	00H
	DB	00H
	DB	00H
	DB	00H
	DB	00H
	DB	00H
	DB	00H
	DB	00H
	DB	00H
	DB	00H
	DB	00H
	DB	00H
	DB	00H
	DB	00H
	DB	00H
	DB	00H
	DB	00H
	DB	00H
	DB	00H
	DB	00H
	DB	00H
	DB	00H
	DB	00H
	DB	00H
	DB	00H
	DB	00H
	DB	00H
	DB	00H
	DB	00H
	DB	00H
	DB	00H
	DB	00H
	DB	00H
	DB	00H
	DB	00H
	DB	00H
	DB	00H
	DB	08eH
	DB	073H
	DB	08eH
	DB	073H
	DB	08eH
	DB	073H
	DB	08eH
	DB	073H
	DB	00H
	DB	00H
	DB	00H
	DB	00H
	DB	00H
	DB	00H
	DB	00H
	DB	00H
	DB	00H
	DB	00H
	DB	00H
	DB	00H
	DB	00H
	DB	00H
	DB	00H
	DB	00H
	DB	00H
	DB	00H
	DB	00H
	DB	00H
	DB	00H
	DB	00H
	DB	00H
	DB	00H
	DB	00H
	DB	00H
	DB	00H
	DB	00H
	DB	00H
	DB	00H
	DB	00H
	DB	00H
	DB	00H
	DB	00H
	DB	00H
	DB	00H
	DB	00H
	DB	00H
	DB	00H
	DB	00H
	DB	00H
	DB	00H
	DB	08eH
	DB	073H
	DB	08eH
	DB	073H
	DB	00H
	DB	00H
	DB	00H
	DB	00H
	DB	00H
	DB	00H
	DB	00H
	DB	00H
	DB	00H
	DB	00H
	DB	00H
	DB	00H
	DB	00H
	DB	00H
	DB	00H
	DB	00H
	DB	00H
	DB	00H
	DB	00H
	DB	00H
	DB	00H
	DB	00H
	DB	00H
	DB	00H
	DB	00H
	DB	00H
	DB	00H
	DB	00H
	DB	00H
	DB	00H
	DB	00H
	DB	00H
	DB	00H
	DB	00H
	DB	00H
	DB	00H
	DB	00H
	DB	00H
	DB	00H
	DB	00H
	DB	00H
	DB	00H
	DB	00H
	DB	00H
	DB	00H
	DB	00H
	DB	00H
	DB	00H
	DB	00H
	DB	00H
	DB	00H
	DB	00H
	ORG $+4
?_leftButtonUnpress_alpha_channel@@3QBEB DB 00H		; _leftButtonUnpress_alpha_channel
	DB	00H
	DB	00H
	DB	00H
	DB	00H
	DB	00H
	DB	00H
	DB	00H
	DB	00H
	DB	00H
	DB	00H
	DB	00H
	DB	00H
	DB	00H
	DB	00H
	DB	00H
	DB	00H
	DB	00H
	DB	0ffH
	DB	0ffH
	DB	00H
	DB	00H
	DB	00H
	DB	00H
	DB	00H
	DB	00H
	DB	00H
	DB	00H
	DB	00H
	DB	00H
	DB	00H
	DB	00H
	DB	00H
	DB	00H
	DB	00H
	DB	00H
	DB	00H
	DB	00H
	DB	00H
	DB	0ffH
	DB	0ffH
	DB	0ffH
	DB	0ffH
	DB	00H
	DB	00H
	DB	00H
	DB	00H
	DB	00H
	DB	00H
	DB	00H
	DB	00H
	DB	00H
	DB	00H
	DB	00H
	DB	00H
	DB	00H
	DB	00H
	DB	00H
	DB	00H
	DB	00H
	DB	00H
	DB	0ffH
	DB	0ffH
	DB	0ffH
	DB	0ffH
	DB	0ffH
	DB	00H
	DB	00H
	DB	00H
	DB	00H
	DB	00H
	DB	00H
	DB	00H
	DB	00H
	DB	00H
	DB	00H
	DB	00H
	DB	00H
	DB	00H
	DB	00H
	DB	00H
	DB	00H
	DB	00H
	DB	0ffH
	DB	0ffH
	DB	0ffH
	DB	0ffH
	DB	0ffH
	DB	0ffH
	DB	00H
	DB	00H
	DB	00H
	DB	00H
	DB	00H
	DB	00H
	DB	00H
	DB	00H
	DB	00H
	DB	00H
	DB	00H
	DB	00H
	DB	00H
	DB	00H
	DB	00H
	DB	0ffH
	DB	0ffH
	DB	0ffH
	DB	0ffH
	DB	0ffH
	DB	0ffH
	DB	0ffH
	DB	0ffH
	DB	00H
	DB	00H
	DB	00H
	DB	00H
	DB	00H
	DB	00H
	DB	00H
	DB	00H
	DB	00H
	DB	00H
	DB	00H
	DB	00H
	DB	00H
	DB	00H
	DB	0ffH
	DB	0ffH
	DB	0ffH
	DB	0ffH
	DB	0ffH
	DB	0ffH
	DB	0ffH
	DB	0ffH
	DB	0ffH
	DB	00H
	DB	00H
	DB	00H
	DB	00H
	DB	00H
	DB	00H
	DB	00H
	DB	00H
	DB	00H
	DB	00H
	DB	00H
	DB	00H
	DB	0ffH
	DB	0ffH
	DB	0ffH
	DB	0ffH
	DB	0ffH
	DB	0ffH
	DB	0ffH
	DB	0ffH
	DB	0ffH
	DB	0ffH
	DB	0ffH
	DB	00H
	DB	00H
	DB	00H
	DB	00H
	DB	00H
	DB	00H
	DB	00H
	DB	00H
	DB	00H
	DB	00H
	DB	00H
	DB	0ffH
	DB	0ffH
	DB	0ffH
	DB	0ffH
	DB	0ffH
	DB	0ffH
	DB	0ffH
	DB	0ffH
	DB	0ffH
	DB	0ffH
	DB	0ffH
	DB	0ffH
	DB	00H
	DB	00H
	DB	00H
	DB	00H
	DB	00H
	DB	00H
	DB	00H
	DB	00H
	DB	00H
	DB	00H
	DB	0ffH
	DB	0ffH
	DB	0ffH
	DB	0ffH
	DB	0ffH
	DB	0ffH
	DB	0ffH
	DB	0ffH
	DB	0ffH
	DB	0ffH
	DB	0ffH
	DB	0ffH
	DB	0ffH
	DB	00H
	DB	00H
	DB	00H
	DB	00H
	DB	00H
	DB	00H
	DB	00H
	DB	00H
	DB	0ffH
	DB	0ffH
	DB	0ffH
	DB	0ffH
	DB	0ffH
	DB	0ffH
	DB	0ffH
	DB	0ffH
	DB	0ffH
	DB	0ffH
	DB	0ffH
	DB	0ffH
	DB	0ffH
	DB	0ffH
	DB	0ffH
	DB	00H
	DB	00H
	DB	00H
	DB	00H
	DB	00H
	DB	00H
	DB	00H
	DB	0ffH
	DB	0ffH
	DB	0ffH
	DB	0ffH
	DB	0ffH
	DB	0ffH
	DB	0ffH
	DB	0ffH
	DB	0ffH
	DB	0ffH
	DB	0ffH
	DB	0ffH
	DB	0ffH
	DB	0ffH
	DB	0ffH
	DB	0ffH
	DB	00H
	DB	00H
	DB	00H
	DB	00H
	DB	00H
	DB	00H
	DB	0ffH
	DB	0ffH
	DB	0ffH
	DB	0ffH
	DB	0ffH
	DB	0ffH
	DB	0ffH
	DB	0ffH
	DB	0ffH
	DB	0ffH
	DB	0ffH
	DB	0ffH
	DB	0ffH
	DB	0ffH
	DB	0ffH
	DB	0ffH
	DB	0ffH
	DB	00H
	DB	00H
	DB	00H
	DB	00H
	DB	0ffH
	DB	0ffH
	DB	0ffH
	DB	0ffH
	DB	0ffH
	DB	0ffH
	DB	0ffH
	DB	0ffH
	DB	0ffH
	DB	0ffH
	DB	0ffH
	DB	0ffH
	DB	0ffH
	DB	0ffH
	DB	0ffH
	DB	0ffH
	DB	0ffH
	DB	0ffH
	DB	0ffH
	DB	00H
	DB	00H
	DB	00H
	DB	0ffH
	DB	0ffH
	DB	0ffH
	DB	0ffH
	DB	0ffH
	DB	0ffH
	DB	0ffH
	DB	0ffH
	DB	0ffH
	DB	0ffH
	DB	0ffH
	DB	0ffH
	DB	0ffH
	DB	0ffH
	DB	0ffH
	DB	0ffH
	DB	0ffH
	DB	0ffH
	DB	0ffH
	DB	0ffH
	DB	00H
	DB	00H
	DB	00H
	DB	0ffH
	DB	0ffH
	DB	0ffH
	DB	0ffH
	DB	0ffH
	DB	0ffH
	DB	0ffH
	DB	0ffH
	DB	0ffH
	DB	0ffH
	DB	0ffH
	DB	0ffH
	DB	0ffH
	DB	0ffH
	DB	0ffH
	DB	0ffH
	DB	0ffH
	DB	0ffH
	DB	0ffH
	DB	0ffH
	DB	00H
	DB	00H
	DB	00H
	DB	0ffH
	DB	0ffH
	DB	0ffH
	DB	0ffH
	DB	0ffH
	DB	0ffH
	DB	0ffH
	DB	0ffH
	DB	0ffH
	DB	0ffH
	DB	0ffH
	DB	0ffH
	DB	0ffH
	DB	0ffH
	DB	0ffH
	DB	0ffH
	DB	0ffH
	DB	0ffH
	DB	0ffH
	DB	0ffH
	DB	00H
	DB	00H
	DB	00H
	DB	00H
	DB	0ffH
	DB	0ffH
	DB	0ffH
	DB	0ffH
	DB	0ffH
	DB	0ffH
	DB	0ffH
	DB	0ffH
	DB	0ffH
	DB	0ffH
	DB	0ffH
	DB	0ffH
	DB	0ffH
	DB	0ffH
	DB	0ffH
	DB	0ffH
	DB	0ffH
	DB	0ffH
	DB	0ffH
	DB	00H
	DB	00H
	DB	00H
	DB	00H
	DB	00H
	DB	00H
	DB	0ffH
	DB	0ffH
	DB	0ffH
	DB	0ffH
	DB	0ffH
	DB	0ffH
	DB	0ffH
	DB	0ffH
	DB	0ffH
	DB	0ffH
	DB	0ffH
	DB	0ffH
	DB	0ffH
	DB	0ffH
	DB	0ffH
	DB	0ffH
	DB	0ffH
	DB	00H
	DB	00H
	DB	00H
	DB	00H
	DB	00H
	DB	00H
	DB	00H
	DB	0ffH
	DB	0ffH
	DB	0ffH
	DB	0ffH
	DB	0ffH
	DB	0ffH
	DB	0ffH
	DB	0ffH
	DB	0ffH
	DB	0ffH
	DB	0ffH
	DB	0ffH
	DB	0ffH
	DB	0ffH
	DB	0ffH
	DB	0ffH
	DB	00H
	DB	00H
	DB	00H
	DB	00H
	DB	00H
	DB	00H
	DB	00H
	DB	00H
	DB	0ffH
	DB	0ffH
	DB	0ffH
	DB	0ffH
	DB	0ffH
	DB	0ffH
	DB	0ffH
	DB	0ffH
	DB	0ffH
	DB	0ffH
	DB	0ffH
	DB	0ffH
	DB	0ffH
	DB	0ffH
	DB	0ffH
	DB	00H
	DB	00H
	DB	00H
	DB	00H
	DB	00H
	DB	00H
	DB	00H
	DB	00H
	DB	00H
	DB	00H
	DB	0ffH
	DB	0ffH
	DB	0ffH
	DB	0ffH
	DB	0ffH
	DB	0ffH
	DB	0ffH
	DB	0ffH
	DB	0ffH
	DB	0ffH
	DB	0ffH
	DB	0ffH
	DB	0ffH
	DB	00H
	DB	00H
	DB	00H
	DB	00H
	DB	00H
	DB	00H
	DB	00H
	DB	00H
	DB	00H
	DB	00H
	DB	00H
	DB	0ffH
	DB	0ffH
	DB	0ffH
	DB	0ffH
	DB	0ffH
	DB	0ffH
	DB	0ffH
	DB	0ffH
	DB	0ffH
	DB	0ffH
	DB	0ffH
	DB	0ffH
	DB	00H
	DB	00H
	DB	00H
	DB	00H
	DB	00H
	DB	00H
	DB	00H
	DB	00H
	DB	00H
	DB	00H
	DB	00H
	DB	00H
	DB	0ffH
	DB	0ffH
	DB	0ffH
	DB	0ffH
	DB	0ffH
	DB	0ffH
	DB	0ffH
	DB	0ffH
	DB	0ffH
	DB	0ffH
	DB	0ffH
	DB	00H
	DB	00H
	DB	00H
	DB	00H
	DB	00H
	DB	00H
	DB	00H
	DB	00H
	DB	00H
	DB	00H
	DB	00H
	DB	00H
	DB	00H
	DB	00H
	DB	0ffH
	DB	0ffH
	DB	0ffH
	DB	0ffH
	DB	0ffH
	DB	0ffH
	DB	0ffH
	DB	0ffH
	DB	0ffH
	DB	00H
	DB	00H
	DB	00H
	DB	00H
	DB	00H
	DB	00H
	DB	00H
	DB	00H
	DB	00H
	DB	00H
	DB	00H
	DB	00H
	DB	00H
	DB	00H
	DB	00H
	DB	0ffH
	DB	0ffH
	DB	0ffH
	DB	0ffH
	DB	0ffH
	DB	0ffH
	DB	0ffH
	DB	0ffH
	DB	00H
	DB	00H
	DB	00H
	DB	00H
	DB	00H
	DB	00H
	DB	00H
	DB	00H
	DB	00H
	DB	00H
	DB	00H
	DB	00H
	DB	00H
	DB	00H
	DB	00H
	DB	00H
	DB	00H
	DB	0ffH
	DB	0ffH
	DB	0ffH
	DB	0ffH
	DB	0ffH
	DB	0ffH
	DB	00H
	DB	00H
	DB	00H
	DB	00H
	DB	00H
	DB	00H
	DB	00H
	DB	00H
	DB	00H
	DB	00H
	DB	00H
	DB	00H
	DB	00H
	DB	00H
	DB	00H
	DB	00H
	DB	00H
	DB	00H
	DB	0ffH
	DB	0ffH
	DB	0ffH
	DB	0ffH
	DB	0ffH
	DB	00H
	DB	00H
	DB	00H
	DB	00H
	DB	00H
	DB	00H
	DB	00H
	DB	00H
	DB	00H
	DB	00H
	DB	00H
	DB	00H
	DB	00H
	DB	00H
	DB	00H
	DB	00H
	DB	00H
	DB	00H
	DB	00H
	DB	0ffH
	DB	0ffH
	DB	0ffH
	DB	0ffH
	DB	00H
	DB	00H
	DB	00H
	DB	00H
	DB	00H
	DB	00H
	DB	00H
	DB	00H
	DB	00H
	DB	00H
	DB	00H
	DB	00H
	DB	00H
	DB	00H
	DB	00H
	DB	00H
	DB	00H
	DB	00H
	DB	00H
	DB	00H
	DB	00H
	DB	0ffH
	DB	0ffH
	DB	00H
	DB	00H
	DB	00H
	DB	00H
	DB	00H
	DB	00H
	DB	00H
	DB	00H
	DB	00H
	DB	00H
	DB	00H
	DB	00H
	DB	00H
	DB	00H
	DB	00H
	DB	00H
	DB	00H
	DB	00H
	DB	00H
	DB	00H
	DB	00H
	DB	00H
	DB	00H
	DB	00H
	DB	00H
	DB	00H
CONST	ENDS
END
