; Listing generated by Microsoft (R) Optimizing Compiler Version 19.28.29914.0 

	TITLE	D:\Oscilloscope\Project\Oscilloscope\Graphic\build\Debug\obj\ozibackground.obj
	.686P
	.XMM
	include listing.inc
	.model	flat

INCLUDELIB MSVCRTD
INCLUDELIB OLDNAMES

PUBLIC	?_ozibackground@@3QBEB				; _ozibackground
CONST	SEGMENT
?_ozibackground@@3QBEB DB 0efH				; _ozibackground
	DB	07bH
	DB	0efH
	DB	07bH
	DB	0efH
	DB	07bH
	DB	0efH
	DB	07bH
	DB	0efH
	DB	07bH
	DB	0efH
	DB	07bH
	DB	0efH
	DB	07bH
	DB	0efH
	DB	07bH
	DB	0efH
	DB	07bH
	DB	0efH
	DB	07bH
	DB	0efH
	DB	07bH
	DB	0efH
	DB	07bH
	DB	0efH
	DB	07bH
	DB	0efH
	DB	07bH
	DB	0efH
	DB	07bH
	DB	0efH
	DB	07bH
	DB	0efH
	DB	07bH
	DB	0efH
	DB	07bH
	DB	0efH
	DB	07bH
	DB	0efH
	DB	07bH
	DB	0efH
	DB	07bH
	DB	0efH
	DB	07bH
	DB	0efH
	DB	07bH
	DB	0efH
	DB	07bH
	DB	0efH
	DB	07bH
	DB	0efH
	DB	07bH
	DB	0efH
	DB	07bH
	DB	0efH
	DB	07bH
	DB	0efH
	DB	07bH
	DB	0efH
	DB	07bH
	DB	0efH
	DB	07bH
	DB	0efH
	DB	07bH
	DB	0efH
	DB	07bH
	DB	0efH
	DB	07bH
	DB	0efH
	DB	07bH
	DB	0efH
	DB	07bH
	DB	0efH
	DB	07bH
	DB	0efH
	DB	07bH
	DB	0efH
	DB	07bH
	DB	0efH
	DB	07bH
	DB	0efH
	DB	07bH
	DB	0efH
	DB	07bH
	DB	0efH
	DB	07bH
	DB	0efH
	DB	07bH
	DB	0efH
	DB	07bH
	DB	0efH
	DB	07bH
	DB	0efH
	DB	07bH
	DB	0efH
	DB	07bH
	DB	0efH
	DB	07bH
	DB	0efH
	DB	07bH
	DB	0efH
	DB	07bH
	DB	0efH
	DB	07bH
	DB	0efH
	DB	07bH
	DB	0efH
	DB	07bH
	DB	0efH
	DB	07bH
	DB	0efH
	DB	07bH
	DB	0efH
	DB	07bH
	DB	0efH
	DB	07bH
	DB	0efH
	DB	07bH
	DB	0efH
	DB	07bH
	DB	0efH
	DB	07bH
	DB	0efH
	DB	07bH
	DB	0efH
	DB	07bH
	DB	0efH
	DB	07bH
	DB	0efH
	DB	07bH
	DB	0efH
	DB	07bH
	DB	0efH
	DB	07bH
	DB	0efH
	DB	07bH
	DB	0efH
	DB	07bH
	DB	0efH
	DB	07bH
	DB	0efH
	DB	07bH
	DB	0efH
	DB	07bH
	DB	0efH
	DB	07bH
	DB	0efH
	DB	07bH
	DB	0efH
	DB	07bH
	DB	0efH
	DB	07bH
	DB	0efH
	DB	07bH
	DB	0efH
	DB	07bH
	DB	0efH
	DB	07bH
	DB	0efH
	DB	07bH
	DB	0efH
	DB	07bH
	DB	0efH
	DB	07bH
	DB	0efH
	DB	07bH
	DB	0efH
	DB	07bH
	DB	0efH
	DB	07bH
	DB	0efH
	DB	07bH
	DB	0efH
	DB	07bH
	DB	0efH
	DB	07bH
	DB	0efH
	DB	07bH
	DB	0efH
	DB	07bH
	DB	0efH
	DB	07bH
	DB	0efH
	DB	07bH
	DB	0efH
	DB	07bH
	DB	0efH
	DB	07bH
	DB	0efH
	DB	07bH
	DB	0efH
	DB	07bH
	DB	0efH
	DB	07bH
	DB	0efH
	DB	07bH
	DB	0efH
	DB	07bH
	DB	0efH
	DB	07bH
	DB	0efH
	DB	07bH
	DB	0efH
	DB	07bH
	DB	0efH
	DB	07bH
	DB	0efH
	DB	07bH
	DB	0efH
	DB	07bH
	DB	0efH
	DB	07bH
	DB	0efH
	DB	07bH
	DB	0efH
	DB	07bH
	DB	0efH
	DB	07bH
	DB	0efH
	DB	07bH
	DB	0efH
	DB	07bH
	DB	0efH
	DB	07bH
	DB	0efH
	DB	07bH
	DB	0efH
	DB	07bH
	DB	0efH
	DB	07bH
	DB	0efH
	DB	07bH
	DB	0efH
	DB	07bH
	DB	0efH
	DB	07bH
	DB	0efH
	DB	07bH
	DB	0efH
	DB	07bH
	DB	0efH
	DB	07bH
	DB	0efH
	DB	07bH
	DB	0efH
	DB	07bH
	DB	0efH
	DB	07bH
	DB	0efH
	DB	07bH
	DB	0efH
	DB	07bH
	DB	0efH
	DB	07bH
	DB	0efH
	DB	07bH
	DB	0efH
	DB	07bH
	DB	0efH
	DB	07bH
	DB	0efH
	DB	07bH
	DB	0efH
	DB	07bH
	DB	0efH
	DB	07bH
	DB	0efH
	DB	07bH
	DB	0efH
	DB	07bH
	DB	0efH
	DB	07bH
	DB	0efH
	DB	07bH
	DB	0efH
	DB	07bH
	DB	0efH
	DB	07bH
	DB	0efH
	DB	07bH
	DB	0efH
	DB	07bH
	DB	0efH
	DB	07bH
	DB	0efH
	DB	07bH
	DB	0efH
	DB	07bH
	DB	0efH
	DB	07bH
	DB	0efH
	DB	07bH
	DB	0efH
	DB	07bH
	DB	0efH
	DB	07bH
	DB	0efH
	DB	07bH
	DB	0efH
	DB	07bH
	DB	0efH
	DB	07bH
	DB	0efH
	DB	07bH
	DB	0efH
	DB	07bH
	DB	0efH
	DB	07bH
	DB	0efH
	DB	07bH
	DB	0efH
	DB	07bH
	DB	0efH
	DB	07bH
	DB	0efH
	DB	07bH
	DB	0efH
	DB	07bH
	DB	0efH
	DB	07bH
	DB	0efH
	DB	07bH
	DB	0efH
	DB	07bH
	DB	0efH
	DB	07bH
	DB	0efH
	DB	07bH
	DB	0efH
	DB	07bH
	DB	0efH
	DB	07bH
	DB	0efH
	DB	07bH
	DB	0efH
	DB	07bH
	DB	0efH
	DB	07bH
	DB	0efH
	DB	07bH
	DB	0efH
	DB	07bH
	DB	0efH
	DB	07bH
	DB	0efH
	DB	07bH
	DB	0efH
	DB	07bH
	DB	0efH
	DB	07bH
	DB	0efH
	DB	07bH
	DB	0efH
	DB	07bH
	DB	0efH
	DB	07bH
	DB	0efH
	DB	07bH
	DB	0efH
	DB	07bH
	DB	0efH
	DB	07bH
	DB	0efH
	DB	07bH
	DB	0efH
	DB	07bH
	DB	0efH
	DB	07bH
	DB	0efH
	DB	07bH
	DB	0efH
	DB	07bH
	DB	0efH
	DB	07bH
	DB	0efH
	DB	07bH
	DB	0efH
	DB	07bH
	DB	0efH
	DB	07bH
	DB	0efH
	DB	07bH
	DB	0efH
	DB	07bH
	DB	0efH
	DB	07bH
	DB	0efH
	DB	07bH
	DB	0efH
	DB	07bH
	DB	0efH
	DB	07bH
	DB	0efH
	DB	07bH
	DB	0efH
	DB	07bH
	DB	0efH
	DB	07bH
	DB	0efH
	DB	07bH
	DB	0efH
	DB	07bH
	DB	0efH
	DB	07bH
	DB	0efH
	DB	07bH
	DB	0efH
	DB	07bH
	DB	0efH
	DB	07bH
	DB	0efH
	DB	07bH
	DB	0efH
	DB	07bH
	DB	0efH
	DB	07bH
	DB	0efH
	DB	07bH
	DB	0efH
	DB	07bH
	DB	0efH
	DB	07bH
	DB	0efH
	DB	07bH
	DB	0efH
	DB	07bH
	DB	0efH
	DB	07bH
	DB	0efH
	DB	07bH
	DB	0efH
	DB	07bH
	DB	0efH
	DB	07bH
	DB	0efH
	DB	07bH
	DB	0efH
	DB	07bH
	DB	0efH
	DB	07bH
	DB	0efH
	DB	07bH
	DB	0efH
	DB	07bH
	DB	0efH
	DB	07bH
	DB	0efH
	DB	07bH
	DB	0efH
	DB	07bH
	DB	0efH
	DB	07bH
	DB	0efH
	DB	07bH
	DB	0efH
	DB	07bH
	DB	0efH
	DB	07bH
	DB	0efH
	DB	07bH
	DB	0efH
	DB	07bH
	DB	0efH
	DB	07bH
	DB	0efH
	DB	07bH
	DB	0efH
	DB	07bH
	DB	0efH
	DB	07bH
	DB	0efH
	DB	07bH
	DB	0efH
	DB	07bH
	DB	0efH
	DB	07bH
	DB	0efH
	DB	07bH
	DB	0efH
	DB	07bH
	DB	0efH
	DB	07bH
	DB	0efH
	DB	07bH
	DB	0efH
	DB	07bH
	DB	0efH
	DB	07bH
	DB	0efH
	DB	07bH
	DB	0efH
	DB	07bH
	DB	0efH
	DB	07bH
	DB	0efH
	DB	07bH
	DB	0efH
	DB	07bH
	DB	0efH
	DB	07bH
	DB	0efH
	DB	07bH
	DB	0efH
	DB	07bH
	DB	0efH
	DB	07bH
	DB	0efH
	DB	07bH
	DB	0efH
	DB	07bH
	DB	0efH
	DB	07bH
	DB	0efH
	DB	07bH
	DB	0efH
	DB	07bH
	DB	0efH
	DB	07bH
	DB	0efH
	DB	07bH
	DB	0efH
	DB	07bH
	DB	0efH
	DB	07bH
	DB	0efH
	DB	07bH
	DB	0efH
	DB	07bH
	DB	0efH
	DB	07bH
	DB	0efH
	DB	07bH
	DB	0efH
	DB	07bH
	DB	0efH
	DB	07bH
	DB	0efH
	DB	07bH
	DB	0efH
	DB	07bH
	DB	0efH
	DB	07bH
	DB	0efH
	DB	07bH
	DB	0efH
	DB	07bH
	DB	0efH
	DB	07bH
	DB	0efH
	DB	07bH
	DB	0efH
	DB	07bH
	DB	0efH
	DB	07bH
	DB	0efH
	DB	07bH
	DB	0efH
	DB	07bH
	DB	0efH
	DB	07bH
	DB	0efH
	DB	07bH
	DB	0efH
	DB	07bH
	DB	0efH
	DB	07bH
	DB	0efH
	DB	07bH
	DB	0efH
	DB	07bH
	DB	0efH
	DB	07bH
	DB	0efH
	DB	07bH
	DB	0efH
	DB	07bH
	DB	0efH
	DB	07bH
	DB	0efH
	DB	07bH
	DB	0efH
	DB	07bH
	DB	0efH
	DB	07bH
	DB	0efH
	DB	07bH
	DB	0efH
	DB	07bH
	DB	0efH
	DB	07bH
	DB	0efH
	DB	07bH
	DB	0efH
	DB	07bH
	DB	0efH
	DB	07bH
	DB	0efH
	DB	07bH
	DB	0efH
	DB	07bH
	DB	0efH
	DB	07bH
	DB	0efH
	DB	07bH
	DB	0efH
	DB	07bH
	DB	0efH
	DB	07bH
	DB	0efH
	DB	07bH
	DB	0efH
	DB	07bH
	DB	0efH
	DB	07bH
	DB	0caH
	DB	052H
	DB	069H
	DB	04aH
	DB	069H
	DB	04aH
	DB	069H
	DB	04aH
	DB	069H
	DB	04aH
	DB	069H
	DB	04aH
	DB	069H
	DB	04aH
	DB	069H
	DB	04aH
	DB	069H
	DB	04aH
	DB	069H
	DB	04aH
	DB	069H
	DB	04aH
	DB	069H
	DB	04aH
	DB	069H
	DB	04aH
	DB	069H
	DB	04aH
	DB	069H
	DB	04aH
	DB	069H
	DB	04aH
	DB	069H
	DB	04aH
	DB	069H
	DB	04aH
	DB	069H
	DB	04aH
	DB	069H
	DB	04aH
	DB	069H
	DB	04aH
	DB	069H
	DB	04aH
	DB	069H
	DB	04aH
	DB	069H
	DB	04aH
	DB	069H
	DB	04aH
	DB	069H
	DB	04aH
	DB	069H
	DB	04aH
	DB	069H
	DB	04aH
	DB	069H
	DB	04aH
	DB	069H
	DB	04aH
	DB	069H
	DB	04aH
	DB	069H
	DB	04aH
	DB	069H
	DB	04aH
	DB	069H
	DB	04aH
	DB	069H
	DB	04aH
	DB	069H
	DB	04aH
	DB	069H
	DB	04aH
	DB	0caH
	DB	052H
	DB	0caH
	DB	052H
	DB	069H
	DB	04aH
	DB	069H
	DB	04aH
	DB	069H
	DB	04aH
	DB	069H
	DB	04aH
	DB	069H
	DB	04aH
	DB	069H
	DB	04aH
	DB	069H
	DB	04aH
	DB	069H
	DB	04aH
	DB	069H
	DB	04aH
	DB	069H
	DB	04aH
	DB	069H
	DB	04aH
	DB	069H
	DB	04aH
	DB	069H
	DB	04aH
	DB	069H
	DB	04aH
	DB	069H
	DB	04aH
	DB	069H
	DB	04aH
	DB	069H
	DB	04aH
	DB	069H
	DB	04aH
	DB	069H
	DB	04aH
	DB	069H
	DB	04aH
	DB	069H
	DB	04aH
	DB	069H
	DB	04aH
	DB	069H
	DB	04aH
	DB	069H
	DB	04aH
	DB	069H
	DB	04aH
	DB	069H
	DB	04aH
	DB	069H
	DB	04aH
	DB	069H
	DB	04aH
	DB	069H
	DB	04aH
	DB	069H
	DB	04aH
	DB	069H
	DB	04aH
	DB	069H
	DB	04aH
	DB	069H
	DB	04aH
	DB	069H
	DB	04aH
	DB	069H
	DB	04aH
	DB	069H
	DB	04aH
	DB	0caH
	DB	052H
	DB	0caH
	DB	052H
	DB	069H
	DB	04aH
	DB	069H
	DB	04aH
	DB	069H
	DB	04aH
	DB	069H
	DB	04aH
	DB	069H
	DB	04aH
	DB	069H
	DB	04aH
	DB	069H
	DB	04aH
	DB	069H
	DB	04aH
	DB	069H
	DB	04aH
	DB	069H
	DB	04aH
	DB	069H
	DB	04aH
	DB	069H
	DB	04aH
	DB	069H
	DB	04aH
	DB	069H
	DB	04aH
	DB	069H
	DB	04aH
	DB	069H
	DB	04aH
	DB	069H
	DB	04aH
	DB	069H
	DB	04aH
	DB	069H
	DB	04aH
	DB	069H
	DB	04aH
	DB	069H
	DB	04aH
	DB	069H
	DB	04aH
	DB	069H
	DB	04aH
	DB	069H
	DB	04aH
	DB	069H
	DB	04aH
	DB	069H
	DB	04aH
	DB	069H
	DB	04aH
	DB	069H
	DB	04aH
	DB	069H
	DB	04aH
	DB	069H
	DB	04aH
	DB	069H
	DB	04aH
	DB	069H
	DB	04aH
	DB	069H
	DB	04aH
	DB	069H
	DB	04aH
	DB	069H
	DB	04aH
	DB	069H
	DB	04aH
	DB	0caH
	DB	052H
	DB	0caH
	DB	052H
	DB	069H
	DB	04aH
	DB	069H
	DB	04aH
	DB	069H
	DB	04aH
	DB	069H
	DB	04aH
	DB	069H
	DB	04aH
	DB	069H
	DB	04aH
	DB	069H
	DB	04aH
	DB	069H
	DB	04aH
	DB	069H
	DB	04aH
	DB	069H
	DB	04aH
	DB	069H
	DB	04aH
	DB	069H
	DB	04aH
	DB	069H
	DB	04aH
	DB	069H
	DB	04aH
	DB	069H
	DB	04aH
	DB	069H
	DB	04aH
	DB	069H
	DB	04aH
	DB	069H
	DB	04aH
	DB	069H
	DB	04aH
	DB	069H
	DB	04aH
	DB	069H
	DB	04aH
	DB	069H
	DB	04aH
	DB	069H
	DB	04aH
	DB	069H
	DB	04aH
	DB	069H
	DB	04aH
	DB	069H
	DB	04aH
	DB	069H
	DB	04aH
	DB	069H
	DB	04aH
	DB	069H
	DB	04aH
	DB	069H
	DB	04aH
	DB	069H
	DB	04aH
	DB	069H
	DB	04aH
	DB	069H
	DB	04aH
	DB	069H
	DB	04aH
	DB	069H
	DB	04aH
	DB	069H
	DB	04aH
	DB	0caH
	DB	052H
	DB	0caH
	DB	052H
	DB	069H
	DB	04aH
	DB	069H
	DB	04aH
	DB	069H
	DB	04aH
	DB	069H
	DB	04aH
	DB	069H
	DB	04aH
	DB	069H
	DB	04aH
	DB	069H
	DB	04aH
	DB	069H
	DB	04aH
	DB	069H
	DB	04aH
	DB	069H
	DB	04aH
	DB	069H
	DB	04aH
	DB	069H
	DB	04aH
	DB	069H
	DB	04aH
	DB	069H
	DB	04aH
	DB	069H
	DB	04aH
	DB	069H
	DB	04aH
	DB	069H
	DB	04aH
	DB	069H
	DB	04aH
	DB	069H
	DB	04aH
	DB	069H
	DB	04aH
	DB	069H
	DB	04aH
	DB	069H
	DB	04aH
	DB	069H
	DB	04aH
	DB	069H
	DB	04aH
	DB	069H
	DB	04aH
	DB	069H
	DB	04aH
	DB	069H
	DB	04aH
	DB	069H
	DB	04aH
	DB	069H
	DB	04aH
	DB	069H
	DB	04aH
	DB	069H
	DB	04aH
	DB	069H
	DB	04aH
	DB	069H
	DB	04aH
	DB	069H
	DB	04aH
	DB	069H
	DB	04aH
	DB	069H
	DB	04aH
	DB	0caH
	DB	052H
	DB	0caH
	DB	052H
	DB	069H
	DB	04aH
	DB	069H
	DB	04aH
	DB	069H
	DB	04aH
	DB	069H
	DB	04aH
	DB	069H
	DB	04aH
	DB	069H
	DB	04aH
	DB	069H
	DB	04aH
	DB	069H
	DB	04aH
	DB	069H
	DB	04aH
	DB	069H
	DB	04aH
	DB	069H
	DB	04aH
	DB	069H
	DB	04aH
	DB	069H
	DB	04aH
	DB	069H
	DB	04aH
	DB	069H
	DB	04aH
	DB	069H
	DB	04aH
	DB	069H
	DB	04aH
	DB	069H
	DB	04aH
	DB	069H
	DB	04aH
	DB	069H
	DB	04aH
	DB	069H
	DB	04aH
	DB	069H
	DB	04aH
	DB	069H
	DB	04aH
	DB	069H
	DB	04aH
	DB	069H
	DB	04aH
	DB	069H
	DB	04aH
	DB	069H
	DB	04aH
	DB	069H
	DB	04aH
	DB	069H
	DB	04aH
	DB	069H
	DB	04aH
	DB	069H
	DB	04aH
	DB	069H
	DB	04aH
	DB	069H
	DB	04aH
	DB	069H
	DB	04aH
	DB	069H
	DB	04aH
	DB	069H
	DB	04aH
	DB	0caH
	DB	052H
	DB	0caH
	DB	052H
	DB	069H
	DB	04aH
	DB	069H
	DB	04aH
	DB	069H
	DB	04aH
	DB	069H
	DB	04aH
	DB	069H
	DB	04aH
	DB	069H
	DB	04aH
	DB	069H
	DB	04aH
	DB	069H
	DB	04aH
	DB	069H
	DB	04aH
	DB	069H
	DB	04aH
	DB	069H
	DB	04aH
	DB	069H
	DB	04aH
	DB	069H
	DB	04aH
	DB	069H
	DB	04aH
	DB	069H
	DB	04aH
	DB	069H
	DB	04aH
	DB	069H
	DB	04aH
	DB	069H
	DB	04aH
	DB	069H
	DB	04aH
	DB	069H
	DB	04aH
	DB	069H
	DB	04aH
	DB	069H
	DB	04aH
	DB	069H
	DB	04aH
	DB	069H
	DB	04aH
	DB	069H
	DB	04aH
	DB	069H
	DB	04aH
	DB	069H
	DB	04aH
	DB	069H
	DB	04aH
	DB	069H
	DB	04aH
	DB	069H
	DB	04aH
	DB	069H
	DB	04aH
	DB	069H
	DB	04aH
	DB	069H
	DB	04aH
	DB	069H
	DB	04aH
	DB	069H
	DB	04aH
	DB	069H
	DB	04aH
	DB	0caH
	DB	052H
	DB	0caH
	DB	052H
	DB	08aH
	DB	052H
	DB	08aH
	DB	052H
	DB	08aH
	DB	052H
	DB	08aH
	DB	052H
	DB	08aH
	DB	052H
	DB	08aH
	DB	052H
	DB	08aH
	DB	052H
	DB	08aH
	DB	052H
	DB	08aH
	DB	052H
	DB	08aH
	DB	052H
	DB	08aH
	DB	052H
	DB	08aH
	DB	052H
	DB	08aH
	DB	052H
	DB	08aH
	DB	052H
	DB	08aH
	DB	052H
	DB	08aH
	DB	052H
	DB	08aH
	DB	052H
	DB	08aH
	DB	052H
	DB	08aH
	DB	052H
	DB	08aH
	DB	052H
	DB	08aH
	DB	052H
	DB	08aH
	DB	052H
	DB	08aH
	DB	052H
	DB	08aH
	DB	052H
	DB	08aH
	DB	052H
	DB	08aH
	DB	052H
	DB	08aH
	DB	052H
	DB	08aH
	DB	052H
	DB	08aH
	DB	052H
	DB	08aH
	DB	052H
	DB	08aH
	DB	052H
	DB	08aH
	DB	052H
	DB	08aH
	DB	052H
	DB	08aH
	DB	052H
	DB	08aH
	DB	052H
	DB	08aH
	DB	052H
	DB	0caH
	DB	052H
	DB	0efH
	DB	07bH
	DB	0efH
	DB	07bH
	DB	08aH
	DB	052H
	DB	029H
	DB	04aH
	DB	049H
	DB	04aH
	DB	029H
	DB	04aH
	DB	029H
	DB	04aH
	DB	049H
	DB	04aH
	DB	029H
	DB	04aH
	DB	029H
	DB	04aH
	DB	049H
	DB	04aH
	DB	029H
	DB	04aH
	DB	029H
	DB	04aH
	DB	049H
	DB	04aH
	DB	029H
	DB	04aH
	DB	029H
	DB	04aH
	DB	049H
	DB	04aH
	DB	029H
	DB	04aH
	DB	029H
	DB	04aH
	DB	049H
	DB	04aH
	DB	029H
	DB	04aH
	DB	029H
	DB	04aH
	DB	049H
	DB	04aH
	DB	029H
	DB	04aH
	DB	029H
	DB	04aH
	DB	049H
	DB	04aH
	DB	029H
	DB	04aH
	DB	029H
	DB	04aH
	DB	049H
	DB	04aH
	DB	029H
	DB	04aH
	DB	029H
	DB	04aH
	DB	049H
	DB	04aH
	DB	029H
	DB	04aH
	DB	029H
	DB	04aH
	DB	049H
	DB	04aH
	DB	029H
	DB	04aH
	DB	029H
	DB	04aH
	DB	049H
	DB	04aH
	DB	029H
	DB	04aH
	DB	0cbH
	DB	05aH
	DB	0cbH
	DB	05aH
	DB	049H
	DB	04aH
	DB	029H
	DB	04aH
	DB	049H
	DB	04aH
	DB	029H
	DB	04aH
	DB	029H
	DB	04aH
	DB	049H
	DB	04aH
	DB	029H
	DB	04aH
	DB	029H
	DB	04aH
	DB	049H
	DB	04aH
	DB	029H
	DB	04aH
	DB	029H
	DB	04aH
	DB	049H
	DB	04aH
	DB	029H
	DB	04aH
	DB	029H
	DB	04aH
	DB	049H
	DB	04aH
	DB	029H
	DB	04aH
	DB	029H
	DB	04aH
	DB	049H
	DB	04aH
	DB	029H
	DB	04aH
	DB	029H
	DB	04aH
	DB	049H
	DB	04aH
	DB	029H
	DB	04aH
	DB	029H
	DB	04aH
	DB	049H
	DB	04aH
	DB	029H
	DB	04aH
	DB	029H
	DB	04aH
	DB	049H
	DB	04aH
	DB	029H
	DB	04aH
	DB	029H
	DB	04aH
	DB	049H
	DB	04aH
	DB	029H
	DB	04aH
	DB	029H
	DB	04aH
	DB	049H
	DB	04aH
	DB	029H
	DB	04aH
	DB	049H
	DB	04aH
	DB	029H
	DB	04aH
	DB	0cbH
	DB	05aH
	DB	0cbH
	DB	05aH
	DB	049H
	DB	04aH
	DB	029H
	DB	04aH
	DB	049H
	DB	04aH
	DB	029H
	DB	04aH
	DB	029H
	DB	04aH
	DB	049H
	DB	04aH
	DB	029H
	DB	04aH
	DB	029H
	DB	04aH
	DB	049H
	DB	04aH
	DB	029H
	DB	04aH
	DB	029H
	DB	04aH
	DB	049H
	DB	04aH
	DB	029H
	DB	04aH
	DB	029H
	DB	04aH
	DB	049H
	DB	04aH
	DB	029H
	DB	04aH
	DB	029H
	DB	04aH
	DB	049H
	DB	04aH
	DB	029H
	DB	04aH
	DB	029H
	DB	04aH
	DB	049H
	DB	04aH
	DB	029H
	DB	04aH
	DB	029H
	DB	04aH
	DB	049H
	DB	04aH
	DB	029H
	DB	04aH
	DB	029H
	DB	04aH
	DB	049H
	DB	04aH
	DB	029H
	DB	04aH
	DB	029H
	DB	04aH
	DB	049H
	DB	04aH
	DB	029H
	DB	04aH
	DB	029H
	DB	04aH
	DB	049H
	DB	04aH
	DB	029H
	DB	04aH
	DB	049H
	DB	04aH
	DB	029H
	DB	04aH
	DB	0cbH
	DB	05aH
	DB	0cbH
	DB	05aH
	DB	049H
	DB	04aH
	DB	029H
	DB	04aH
	DB	049H
	DB	04aH
	DB	029H
	DB	04aH
	DB	029H
	DB	04aH
	DB	049H
	DB	04aH
	DB	029H
	DB	04aH
	DB	029H
	DB	04aH
	DB	049H
	DB	04aH
	DB	029H
	DB	04aH
	DB	029H
	DB	04aH
	DB	049H
	DB	04aH
	DB	029H
	DB	04aH
	DB	029H
	DB	04aH
	DB	049H
	DB	04aH
	DB	029H
	DB	04aH
	DB	029H
	DB	04aH
	DB	049H
	DB	04aH
	DB	029H
	DB	04aH
	DB	029H
	DB	04aH
	DB	049H
	DB	04aH
	DB	029H
	DB	04aH
	DB	029H
	DB	04aH
	DB	049H
	DB	04aH
	DB	029H
	DB	04aH
	DB	029H
	DB	04aH
	DB	049H
	DB	04aH
	DB	029H
	DB	04aH
	DB	029H
	DB	04aH
	DB	049H
	DB	04aH
	DB	029H
	DB	04aH
	DB	029H
	DB	04aH
	DB	049H
	DB	04aH
	DB	029H
	DB	04aH
	DB	049H
	DB	04aH
	DB	029H
	DB	04aH
	DB	0cbH
	DB	05aH
	DB	0cbH
	DB	05aH
	DB	049H
	DB	04aH
	DB	029H
	DB	04aH
	DB	049H
	DB	04aH
	DB	029H
	DB	04aH
	DB	029H
	DB	04aH
	DB	049H
	DB	04aH
	DB	029H
	DB	04aH
	DB	029H
	DB	04aH
	DB	049H
	DB	04aH
	DB	029H
	DB	04aH
	DB	029H
	DB	04aH
	DB	049H
	DB	04aH
	DB	029H
	DB	04aH
	DB	029H
	DB	04aH
	DB	049H
	DB	04aH
	DB	029H
	DB	04aH
	DB	029H
	DB	04aH
	DB	049H
	DB	04aH
	DB	029H
	DB	04aH
	DB	029H
	DB	04aH
	DB	049H
	DB	04aH
	DB	029H
	DB	04aH
	DB	029H
	DB	04aH
	DB	049H
	DB	04aH
	DB	029H
	DB	04aH
	DB	029H
	DB	04aH
	DB	049H
	DB	04aH
	DB	029H
	DB	04aH
	DB	029H
	DB	04aH
	DB	049H
	DB	04aH
	DB	029H
	DB	04aH
	DB	029H
	DB	04aH
	DB	049H
	DB	04aH
	DB	029H
	DB	04aH
	DB	049H
	DB	04aH
	DB	029H
	DB	04aH
	DB	0cbH
	DB	05aH
	DB	0cbH
	DB	05aH
	DB	049H
	DB	04aH
	DB	029H
	DB	04aH
	DB	049H
	DB	04aH
	DB	029H
	DB	04aH
	DB	029H
	DB	04aH
	DB	049H
	DB	04aH
	DB	029H
	DB	04aH
	DB	029H
	DB	04aH
	DB	049H
	DB	04aH
	DB	029H
	DB	04aH
	DB	029H
	DB	04aH
	DB	049H
	DB	04aH
	DB	029H
	DB	04aH
	DB	029H
	DB	04aH
	DB	049H
	DB	04aH
	DB	029H
	DB	04aH
	DB	029H
	DB	04aH
	DB	049H
	DB	04aH
	DB	029H
	DB	04aH
	DB	029H
	DB	04aH
	DB	049H
	DB	04aH
	DB	029H
	DB	04aH
	DB	029H
	DB	04aH
	DB	049H
	DB	04aH
	DB	029H
	DB	04aH
	DB	029H
	DB	04aH
	DB	049H
	DB	04aH
	DB	029H
	DB	04aH
	DB	029H
	DB	04aH
	DB	049H
	DB	04aH
	DB	029H
	DB	04aH
	DB	029H
	DB	04aH
	DB	049H
	DB	04aH
	DB	029H
	DB	04aH
	DB	049H
	DB	04aH
	DB	029H
	DB	04aH
	DB	0cbH
	DB	05aH
	DB	0cbH
	DB	05aH
	DB	049H
	DB	04aH
	DB	029H
	DB	04aH
	DB	049H
	DB	04aH
	DB	029H
	DB	04aH
	DB	029H
	DB	04aH
	DB	049H
	DB	04aH
	DB	029H
	DB	04aH
	DB	029H
	DB	04aH
	DB	049H
	DB	04aH
	DB	029H
	DB	04aH
	DB	029H
	DB	04aH
	DB	049H
	DB	04aH
	DB	029H
	DB	04aH
	DB	029H
	DB	04aH
	DB	049H
	DB	04aH
	DB	029H
	DB	04aH
	DB	029H
	DB	04aH
	DB	049H
	DB	04aH
	DB	029H
	DB	04aH
	DB	029H
	DB	04aH
	DB	049H
	DB	04aH
	DB	029H
	DB	04aH
	DB	029H
	DB	04aH
	DB	049H
	DB	04aH
	DB	029H
	DB	04aH
	DB	029H
	DB	04aH
	DB	049H
	DB	04aH
	DB	029H
	DB	04aH
	DB	029H
	DB	04aH
	DB	049H
	DB	04aH
	DB	029H
	DB	04aH
	DB	029H
	DB	04aH
	DB	049H
	DB	04aH
	DB	029H
	DB	04aH
	DB	049H
	DB	04aH
	DB	029H
	DB	04aH
	DB	0cbH
	DB	05aH
	DB	0cbH
	DB	05aH
	DB	049H
	DB	04aH
	DB	029H
	DB	04aH
	DB	049H
	DB	04aH
	DB	029H
	DB	04aH
	DB	029H
	DB	04aH
	DB	049H
	DB	04aH
	DB	029H
	DB	04aH
	DB	029H
	DB	04aH
	DB	049H
	DB	04aH
	DB	029H
	DB	04aH
	DB	029H
	DB	04aH
	DB	049H
	DB	04aH
	DB	029H
	DB	04aH
	DB	029H
	DB	04aH
	DB	049H
	DB	04aH
	DB	029H
	DB	04aH
	DB	029H
	DB	04aH
	DB	049H
	DB	04aH
	DB	029H
	DB	04aH
	DB	029H
	DB	04aH
	DB	049H
	DB	04aH
	DB	029H
	DB	04aH
	DB	029H
	DB	04aH
	DB	049H
	DB	04aH
	DB	029H
	DB	04aH
	DB	029H
	DB	04aH
	DB	049H
	DB	04aH
	DB	029H
	DB	04aH
	DB	029H
	DB	04aH
	DB	049H
	DB	04aH
	DB	029H
	DB	04aH
	DB	029H
	DB	04aH
	DB	049H
	DB	04aH
	DB	029H
	DB	04aH
	DB	049H
	DB	04aH
	DB	029H
	DB	04aH
	DB	08aH
	DB	052H
	DB	0f0H
	DB	083H
	DB	0efH
	DB	07bH
	DB	08aH
	DB	052H
	DB	049H
	DB	04aH
	DB	049H
	DB	04aH
	DB	049H
	DB	04aH
	DB	049H
	DB	04aH
	DB	049H
	DB	04aH
	DB	049H
	DB	04aH
	DB	049H
	DB	04aH
	DB	049H
	DB	04aH
	DB	049H
	DB	04aH
	DB	049H
	DB	04aH
	DB	049H
	DB	04aH
	DB	049H
	DB	04aH
	DB	049H
	DB	04aH
	DB	049H
	DB	04aH
	DB	049H
	DB	04aH
	DB	049H
	DB	04aH
	DB	049H
	DB	04aH
	DB	049H
	DB	04aH
	DB	049H
	DB	04aH
	DB	049H
	DB	04aH
	DB	049H
	DB	04aH
	DB	049H
	DB	04aH
	DB	049H
	DB	04aH
	DB	049H
	DB	04aH
	DB	049H
	DB	04aH
	DB	049H
	DB	04aH
	DB	049H
	DB	04aH
	DB	049H
	DB	04aH
	DB	049H
	DB	04aH
	DB	049H
	DB	04aH
	DB	049H
	DB	04aH
	DB	049H
	DB	04aH
	DB	049H
	DB	04aH
	DB	049H
	DB	04aH
	DB	049H
	DB	04aH
	DB	049H
	DB	04aH
	DB	0cbH
	DB	05aH
	DB	0ebH
	DB	05aH
	DB	049H
	DB	04aH
	DB	049H
	DB	04aH
	DB	049H
	DB	04aH
	DB	049H
	DB	04aH
	DB	049H
	DB	04aH
	DB	049H
	DB	04aH
	DB	049H
	DB	04aH
	DB	049H
	DB	04aH
	DB	049H
	DB	04aH
	DB	049H
	DB	04aH
	DB	049H
	DB	04aH
	DB	049H
	DB	04aH
	DB	049H
	DB	04aH
	DB	049H
	DB	04aH
	DB	049H
	DB	04aH
	DB	049H
	DB	04aH
	DB	049H
	DB	04aH
	DB	049H
	DB	04aH
	DB	049H
	DB	04aH
	DB	049H
	DB	04aH
	DB	049H
	DB	04aH
	DB	049H
	DB	04aH
	DB	049H
	DB	04aH
	DB	049H
	DB	04aH
	DB	049H
	DB	04aH
	DB	049H
	DB	04aH
	DB	049H
	DB	04aH
	DB	049H
	DB	04aH
	DB	049H
	DB	04aH
	DB	049H
	DB	04aH
	DB	049H
	DB	04aH
	DB	049H
	DB	04aH
	DB	049H
	DB	04aH
	DB	049H
	DB	04aH
	DB	049H
	DB	04aH
	DB	049H
	DB	04aH
	DB	0cbH
	DB	05aH
	DB	0ebH
	DB	05aH
	DB	049H
	DB	04aH
	DB	049H
	DB	04aH
	DB	049H
	DB	04aH
	DB	049H
	DB	04aH
	DB	049H
	DB	04aH
	DB	049H
	DB	04aH
	DB	049H
	DB	04aH
	DB	049H
	DB	04aH
	DB	049H
	DB	04aH
	DB	049H
	DB	04aH
	DB	049H
	DB	04aH
	DB	049H
	DB	04aH
	DB	049H
	DB	04aH
	DB	049H
	DB	04aH
	DB	049H
	DB	04aH
	DB	049H
	DB	04aH
	DB	049H
	DB	04aH
	DB	049H
	DB	04aH
	DB	049H
	DB	04aH
	DB	049H
	DB	04aH
	DB	049H
	DB	04aH
	DB	049H
	DB	04aH
	DB	049H
	DB	04aH
	DB	049H
	DB	04aH
	DB	049H
	DB	04aH
	DB	049H
	DB	04aH
	DB	049H
	DB	04aH
	DB	049H
	DB	04aH
	DB	049H
	DB	04aH
	DB	049H
	DB	04aH
	DB	049H
	DB	04aH
	DB	049H
	DB	04aH
	DB	049H
	DB	04aH
	DB	049H
	DB	04aH
	DB	049H
	DB	04aH
	DB	049H
	DB	04aH
	DB	0cbH
	DB	05aH
	DB	0ebH
	DB	05aH
	DB	049H
	DB	04aH
	DB	049H
	DB	04aH
	DB	049H
	DB	04aH
	DB	049H
	DB	04aH
	DB	049H
	DB	04aH
	DB	049H
	DB	04aH
	DB	049H
	DB	04aH
	DB	049H
	DB	04aH
	DB	049H
	DB	04aH
	DB	049H
	DB	04aH
	DB	049H
	DB	04aH
	DB	049H
	DB	04aH
	DB	049H
	DB	04aH
	DB	049H
	DB	04aH
	DB	049H
	DB	04aH
	DB	049H
	DB	04aH
	DB	049H
	DB	04aH
	DB	049H
	DB	04aH
	DB	049H
	DB	04aH
	DB	049H
	DB	04aH
	DB	049H
	DB	04aH
	DB	049H
	DB	04aH
	DB	049H
	DB	04aH
	DB	049H
	DB	04aH
	DB	049H
	DB	04aH
	DB	049H
	DB	04aH
	DB	049H
	DB	04aH
	DB	049H
	DB	04aH
	DB	049H
	DB	04aH
	DB	049H
	DB	04aH
	DB	049H
	DB	04aH
	DB	049H
	DB	04aH
	DB	049H
	DB	04aH
	DB	049H
	DB	04aH
	DB	049H
	DB	04aH
	DB	049H
	DB	04aH
	DB	0cbH
	DB	05aH
	DB	0ebH
	DB	05aH
	DB	049H
	DB	04aH
	DB	049H
	DB	04aH
	DB	049H
	DB	04aH
	DB	049H
	DB	04aH
	DB	049H
	DB	04aH
	DB	049H
	DB	04aH
	DB	049H
	DB	04aH
	DB	049H
	DB	04aH
	DB	049H
	DB	04aH
	DB	049H
	DB	04aH
	DB	049H
	DB	04aH
	DB	049H
	DB	04aH
	DB	049H
	DB	04aH
	DB	049H
	DB	04aH
	DB	049H
	DB	04aH
	DB	049H
	DB	04aH
	DB	049H
	DB	04aH
	DB	049H
	DB	04aH
	DB	049H
	DB	04aH
	DB	049H
	DB	04aH
	DB	049H
	DB	04aH
	DB	049H
	DB	04aH
	DB	049H
	DB	04aH
	DB	049H
	DB	04aH
	DB	049H
	DB	04aH
	DB	049H
	DB	04aH
	DB	049H
	DB	04aH
	DB	049H
	DB	04aH
	DB	049H
	DB	04aH
	DB	049H
	DB	04aH
	DB	049H
	DB	04aH
	DB	049H
	DB	04aH
	DB	049H
	DB	04aH
	DB	049H
	DB	04aH
	DB	049H
	DB	04aH
	DB	049H
	DB	04aH
	DB	0cbH
	DB	05aH
	DB	0ebH
	DB	05aH
	DB	049H
	DB	04aH
	DB	049H
	DB	04aH
	DB	049H
	DB	04aH
	DB	049H
	DB	04aH
	DB	049H
	DB	04aH
	DB	049H
	DB	04aH
	DB	049H
	DB	04aH
	DB	049H
	DB	04aH
	DB	049H
	DB	04aH
	DB	049H
	DB	04aH
	DB	049H
	DB	04aH
	DB	049H
	DB	04aH
	DB	049H
	DB	04aH
	DB	049H
	DB	04aH
	DB	049H
	DB	04aH
	DB	049H
	DB	04aH
	DB	049H
	DB	04aH
	DB	049H
	DB	04aH
	DB	049H
	DB	04aH
	DB	049H
	DB	04aH
	DB	049H
	DB	04aH
	DB	049H
	DB	04aH
	DB	049H
	DB	04aH
	DB	049H
	DB	04aH
	DB	049H
	DB	04aH
	DB	049H
	DB	04aH
	DB	049H
	DB	04aH
	DB	049H
	DB	04aH
	DB	049H
	DB	04aH
	DB	049H
	DB	04aH
	DB	049H
	DB	04aH
	DB	049H
	DB	04aH
	DB	049H
	DB	04aH
	DB	049H
	DB	04aH
	DB	049H
	DB	04aH
	DB	049H
	DB	04aH
	DB	0cbH
	DB	05aH
	DB	0ebH
	DB	05aH
	DB	049H
	DB	04aH
	DB	049H
	DB	04aH
	DB	049H
	DB	04aH
	DB	049H
	DB	04aH
	DB	049H
	DB	04aH
	DB	049H
	DB	04aH
	DB	049H
	DB	04aH
	DB	049H
	DB	04aH
	DB	049H
	DB	04aH
	DB	049H
	DB	04aH
	DB	049H
	DB	04aH
	DB	049H
	DB	04aH
	DB	049H
	DB	04aH
	DB	049H
	DB	04aH
	DB	049H
	DB	04aH
	DB	049H
	DB	04aH
	DB	049H
	DB	04aH
	DB	049H
	DB	04aH
	DB	049H
	DB	04aH
	DB	049H
	DB	04aH
	DB	049H
	DB	04aH
	DB	049H
	DB	04aH
	DB	049H
	DB	04aH
	DB	049H
	DB	04aH
	DB	049H
	DB	04aH
	DB	049H
	DB	04aH
	DB	049H
	DB	04aH
	DB	049H
	DB	04aH
	DB	049H
	DB	04aH
	DB	049H
	DB	04aH
	DB	049H
	DB	04aH
	DB	049H
	DB	04aH
	DB	049H
	DB	04aH
	DB	049H
	DB	04aH
	DB	049H
	DB	04aH
	DB	049H
	DB	04aH
	DB	0cbH
	DB	05aH
	DB	0ebH
	DB	05aH
	DB	049H
	DB	04aH
	DB	049H
	DB	04aH
	DB	049H
	DB	04aH
	DB	049H
	DB	04aH
	DB	049H
	DB	04aH
	DB	049H
	DB	04aH
	DB	049H
	DB	04aH
	DB	049H
	DB	04aH
	DB	049H
	DB	04aH
	DB	049H
	DB	04aH
	DB	049H
	DB	04aH
	DB	049H
	DB	04aH
	DB	049H
	DB	04aH
	DB	049H
	DB	04aH
	DB	049H
	DB	04aH
	DB	049H
	DB	04aH
	DB	049H
	DB	04aH
	DB	049H
	DB	04aH
	DB	049H
	DB	04aH
	DB	049H
	DB	04aH
	DB	049H
	DB	04aH
	DB	049H
	DB	04aH
	DB	049H
	DB	04aH
	DB	049H
	DB	04aH
	DB	049H
	DB	04aH
	DB	049H
	DB	04aH
	DB	049H
	DB	04aH
	DB	049H
	DB	04aH
	DB	049H
	DB	04aH
	DB	049H
	DB	04aH
	DB	049H
	DB	04aH
	DB	049H
	DB	04aH
	DB	049H
	DB	04aH
	DB	049H
	DB	04aH
	DB	049H
	DB	04aH
	DB	049H
	DB	04aH
	DB	08aH
	DB	052H
	DB	0efH
	DB	07bH
	DB	0f0H
	DB	083H
	DB	08aH
	DB	052H
	DB	029H
	DB	04aH
	DB	049H
	DB	04aH
	DB	049H
	DB	04aH
	DB	049H
	DB	04aH
	DB	049H
	DB	04aH
	DB	049H
	DB	04aH
	DB	049H
	DB	04aH
	DB	029H
	DB	04aH
	DB	049H
	DB	04aH
	DB	049H
	DB	04aH
	DB	049H
	DB	04aH
	DB	049H
	DB	04aH
	DB	049H
	DB	04aH
	DB	049H
	DB	04aH
	DB	049H
	DB	04aH
	DB	049H
	DB	04aH
	DB	029H
	DB	04aH
	DB	049H
	DB	04aH
	DB	049H
	DB	04aH
	DB	049H
	DB	04aH
	DB	049H
	DB	04aH
	DB	049H
	DB	04aH
	DB	049H
	DB	04aH
	DB	049H
	DB	04aH
	DB	049H
	DB	04aH
	DB	029H
	DB	04aH
	DB	049H
	DB	04aH
	DB	049H
	DB	04aH
	DB	049H
	DB	04aH
	DB	049H
	DB	04aH
	DB	049H
	DB	04aH
	DB	049H
	DB	04aH
	DB	049H
	DB	04aH
	DB	049H
	DB	04aH
	DB	049H
	DB	04aH
	DB	049H
	DB	04aH
	DB	0cbH
	DB	05aH
	DB	0ccH
	DB	062H
	DB	049H
	DB	04aH
	DB	049H
	DB	04aH
	DB	029H
	DB	04aH
	DB	049H
	DB	04aH
	DB	049H
	DB	04aH
	DB	049H
	DB	04aH
	DB	049H
	DB	04aH
	DB	049H
	DB	04aH
	DB	049H
	DB	04aH
	DB	049H
	DB	04aH
	DB	049H
	DB	04aH
	DB	029H
	DB	04aH
	DB	049H
	DB	04aH
	DB	049H
	DB	04aH
	DB	049H
	DB	04aH
	DB	049H
	DB	04aH
	DB	049H
	DB	04aH
	DB	049H
	DB	04aH
	DB	049H
	DB	04aH
	DB	049H
	DB	04aH
	DB	029H
	DB	04aH
	DB	049H
	DB	04aH
	DB	049H
	DB	04aH
	DB	049H
	DB	04aH
	DB	049H
	DB	04aH
	DB	049H
	DB	04aH
	DB	049H
	DB	04aH
	DB	049H
	DB	04aH
	DB	049H
	DB	04aH
	DB	029H
	DB	04aH
	DB	049H
	DB	04aH
	DB	049H
	DB	04aH
	DB	029H
	DB	04aH
	DB	049H
	DB	04aH
	DB	049H
	DB	04aH
	DB	049H
	DB	04aH
	DB	0cbH
	DB	05aH
	DB	0ccH
	DB	062H
	DB	049H
	DB	04aH
	DB	049H
	DB	04aH
	DB	029H
	DB	04aH
	DB	049H
	DB	04aH
	DB	049H
	DB	04aH
	DB	049H
	DB	04aH
	DB	049H
	DB	04aH
	DB	049H
	DB	04aH
	DB	049H
	DB	04aH
	DB	049H
	DB	04aH
	DB	049H
	DB	04aH
	DB	029H
	DB	04aH
	DB	049H
	DB	04aH
	DB	049H
	DB	04aH
	DB	049H
	DB	04aH
	DB	049H
	DB	04aH
	DB	049H
	DB	04aH
	DB	049H
	DB	04aH
	DB	049H
	DB	04aH
	DB	049H
	DB	04aH
	DB	029H
	DB	04aH
	DB	049H
	DB	04aH
	DB	049H
	DB	04aH
	DB	049H
	DB	04aH
	DB	049H
	DB	04aH
	DB	049H
	DB	04aH
	DB	049H
	DB	04aH
	DB	049H
	DB	04aH
	DB	049H
	DB	04aH
	DB	029H
	DB	04aH
	DB	049H
	DB	04aH
	DB	049H
	DB	04aH
	DB	029H
	DB	04aH
	DB	049H
	DB	04aH
	DB	049H
	DB	04aH
	DB	049H
	DB	04aH
	DB	0cbH
	DB	05aH
	DB	0ccH
	DB	062H
	DB	049H
	DB	04aH
	DB	049H
	DB	04aH
	DB	029H
	DB	04aH
	DB	049H
	DB	04aH
	DB	049H
	DB	04aH
	DB	049H
	DB	04aH
	DB	049H
	DB	04aH
	DB	049H
	DB	04aH
	DB	049H
	DB	04aH
	DB	049H
	DB	04aH
	DB	049H
	DB	04aH
	DB	029H
	DB	04aH
	DB	049H
	DB	04aH
	DB	049H
	DB	04aH
	DB	049H
	DB	04aH
	DB	049H
	DB	04aH
	DB	049H
	DB	04aH
	DB	049H
	DB	04aH
	DB	049H
	DB	04aH
	DB	049H
	DB	04aH
	DB	029H
	DB	04aH
	DB	049H
	DB	04aH
	DB	049H
	DB	04aH
	DB	049H
	DB	04aH
	DB	049H
	DB	04aH
	DB	049H
	DB	04aH
	DB	049H
	DB	04aH
	DB	049H
	DB	04aH
	DB	049H
	DB	04aH
	DB	029H
	DB	04aH
	DB	049H
	DB	04aH
	DB	049H
	DB	04aH
	DB	029H
	DB	04aH
	DB	049H
	DB	04aH
	DB	049H
	DB	04aH
	DB	049H
	DB	04aH
	DB	0cbH
	DB	05aH
	DB	0ccH
	DB	062H
	DB	049H
	DB	04aH
	DB	049H
	DB	04aH
	DB	029H
	DB	04aH
	DB	049H
	DB	04aH
	DB	049H
	DB	04aH
	DB	049H
	DB	04aH
	DB	049H
	DB	04aH
	DB	049H
	DB	04aH
	DB	049H
	DB	04aH
	DB	049H
	DB	04aH
	DB	049H
	DB	04aH
	DB	029H
	DB	04aH
	DB	049H
	DB	04aH
	DB	049H
	DB	04aH
	DB	049H
	DB	04aH
	DB	049H
	DB	04aH
	DB	049H
	DB	04aH
	DB	049H
	DB	04aH
	DB	049H
	DB	04aH
	DB	049H
	DB	04aH
	DB	029H
	DB	04aH
	DB	049H
	DB	04aH
	DB	049H
	DB	04aH
	DB	049H
	DB	04aH
	DB	049H
	DB	04aH
	DB	049H
	DB	04aH
	DB	049H
	DB	04aH
	DB	049H
	DB	04aH
	DB	049H
	DB	04aH
	DB	029H
	DB	04aH
	DB	049H
	DB	04aH
	DB	049H
	DB	04aH
	DB	029H
	DB	04aH
	DB	049H
	DB	04aH
	DB	049H
	DB	04aH
	DB	049H
	DB	04aH
	DB	0cbH
	DB	05aH
	DB	0ccH
	DB	062H
	DB	049H
	DB	04aH
	DB	049H
	DB	04aH
	DB	029H
	DB	04aH
	DB	049H
	DB	04aH
	DB	049H
	DB	04aH
	DB	049H
	DB	04aH
	DB	049H
	DB	04aH
	DB	049H
	DB	04aH
	DB	049H
	DB	04aH
	DB	049H
	DB	04aH
	DB	049H
	DB	04aH
	DB	029H
	DB	04aH
	DB	049H
	DB	04aH
	DB	049H
	DB	04aH
	DB	049H
	DB	04aH
	DB	049H
	DB	04aH
	DB	049H
	DB	04aH
	DB	049H
	DB	04aH
	DB	049H
	DB	04aH
	DB	049H
	DB	04aH
	DB	029H
	DB	04aH
	DB	049H
	DB	04aH
	DB	049H
	DB	04aH
	DB	049H
	DB	04aH
	DB	049H
	DB	04aH
	DB	049H
	DB	04aH
	DB	049H
	DB	04aH
	DB	049H
	DB	04aH
	DB	049H
	DB	04aH
	DB	029H
	DB	04aH
	DB	049H
	DB	04aH
	DB	049H
	DB	04aH
	DB	029H
	DB	04aH
	DB	049H
	DB	04aH
	DB	049H
	DB	04aH
	DB	049H
	DB	04aH
	DB	0cbH
	DB	05aH
	DB	0ccH
	DB	062H
	DB	049H
	DB	04aH
	DB	049H
	DB	04aH
	DB	029H
	DB	04aH
	DB	049H
	DB	04aH
	DB	049H
	DB	04aH
	DB	049H
	DB	04aH
	DB	049H
	DB	04aH
	DB	049H
	DB	04aH
	DB	049H
	DB	04aH
	DB	049H
	DB	04aH
	DB	049H
	DB	04aH
	DB	029H
	DB	04aH
	DB	049H
	DB	04aH
	DB	049H
	DB	04aH
	DB	049H
	DB	04aH
	DB	049H
	DB	04aH
	DB	049H
	DB	04aH
	DB	049H
	DB	04aH
	DB	049H
	DB	04aH
	DB	049H
	DB	04aH
	DB	029H
	DB	04aH
	DB	049H
	DB	04aH
	DB	049H
	DB	04aH
	DB	049H
	DB	04aH
	DB	049H
	DB	04aH
	DB	049H
	DB	04aH
	DB	049H
	DB	04aH
	DB	049H
	DB	04aH
	DB	049H
	DB	04aH
	DB	029H
	DB	04aH
	DB	049H
	DB	04aH
	DB	049H
	DB	04aH
	DB	029H
	DB	04aH
	DB	049H
	DB	04aH
	DB	049H
	DB	04aH
	DB	049H
	DB	04aH
	DB	0cbH
	DB	05aH
	DB	0ccH
	DB	062H
	DB	049H
	DB	04aH
	DB	049H
	DB	04aH
	DB	029H
	DB	04aH
	DB	049H
	DB	04aH
	DB	049H
	DB	04aH
	DB	049H
	DB	04aH
	DB	049H
	DB	04aH
	DB	049H
	DB	04aH
	DB	049H
	DB	04aH
	DB	049H
	DB	04aH
	DB	049H
	DB	04aH
	DB	029H
	DB	04aH
	DB	049H
	DB	04aH
	DB	049H
	DB	04aH
	DB	049H
	DB	04aH
	DB	049H
	DB	04aH
	DB	049H
	DB	04aH
	DB	049H
	DB	04aH
	DB	049H
	DB	04aH
	DB	049H
	DB	04aH
	DB	029H
	DB	04aH
	DB	049H
	DB	04aH
	DB	049H
	DB	04aH
	DB	049H
	DB	04aH
	DB	049H
	DB	04aH
	DB	049H
	DB	04aH
	DB	049H
	DB	04aH
	DB	049H
	DB	04aH
	DB	049H
	DB	04aH
	DB	029H
	DB	04aH
	DB	049H
	DB	04aH
	DB	049H
	DB	04aH
	DB	029H
	DB	04aH
	DB	049H
	DB	04aH
	DB	049H
	DB	04aH
	DB	029H
	DB	04aH
	DB	08aH
	DB	052H
	DB	0efH
	DB	07bH
	DB	0efH
	DB	07bH
	DB	08aH
	DB	052H
	DB	049H
	DB	04aH
	DB	029H
	DB	04aH
	DB	049H
	DB	04aH
	DB	029H
	DB	04aH
	DB	029H
	DB	04aH
	DB	049H
	DB	04aH
	DB	049H
	DB	04aH
	DB	029H
	DB	04aH
	DB	049H
	DB	04aH
	DB	049H
	DB	04aH
	DB	029H
	DB	04aH
	DB	029H
	DB	04aH
	DB	049H
	DB	04aH
	DB	029H
	DB	04aH
	DB	029H
	DB	04aH
	DB	049H
	DB	04aH
	DB	049H
	DB	04aH
	DB	029H
	DB	04aH
	DB	049H
	DB	04aH
	DB	029H
	DB	04aH
	DB	029H
	DB	04aH
	DB	049H
	DB	04aH
	DB	029H
	DB	04aH
	DB	029H
	DB	04aH
	DB	049H
	DB	04aH
	DB	049H
	DB	04aH
	DB	029H
	DB	04aH
	DB	049H
	DB	04aH
	DB	029H
	DB	04aH
	DB	029H
	DB	04aH
	DB	049H
	DB	04aH
	DB	029H
	DB	04aH
	DB	029H
	DB	04aH
	DB	049H
	DB	04aH
	DB	049H
	DB	04aH
	DB	049H
	DB	04aH
	DB	0cbH
	DB	05aH
	DB	0ebH
	DB	05aH
	DB	049H
	DB	04aH
	DB	049H
	DB	04aH
	DB	049H
	DB	04aH
	DB	029H
	DB	04aH
	DB	049H
	DB	04aH
	DB	029H
	DB	04aH
	DB	029H
	DB	04aH
	DB	049H
	DB	04aH
	DB	029H
	DB	04aH
	DB	029H
	DB	04aH
	DB	049H
	DB	04aH
	DB	049H
	DB	04aH
	DB	029H
	DB	04aH
	DB	049H
	DB	04aH
	DB	029H
	DB	04aH
	DB	029H
	DB	04aH
	DB	049H
	DB	04aH
	DB	029H
	DB	04aH
	DB	029H
	DB	04aH
	DB	049H
	DB	04aH
	DB	049H
	DB	04aH
	DB	029H
	DB	04aH
	DB	049H
	DB	04aH
	DB	029H
	DB	04aH
	DB	029H
	DB	04aH
	DB	049H
	DB	04aH
	DB	029H
	DB	04aH
	DB	029H
	DB	04aH
	DB	049H
	DB	04aH
	DB	049H
	DB	04aH
	DB	049H
	DB	04aH
	DB	049H
	DB	04aH
	DB	029H
	DB	04aH
	DB	049H
	DB	04aH
	DB	049H
	DB	04aH
	DB	049H
	DB	04aH
	DB	0cbH
	DB	05aH
	DB	0ebH
	DB	05aH
	DB	049H
	DB	04aH
	DB	049H
	DB	04aH
	DB	049H
	DB	04aH
	DB	029H
	DB	04aH
	DB	049H
	DB	04aH
	DB	029H
	DB	04aH
	DB	029H
	DB	04aH
	DB	049H
	DB	04aH
	DB	029H
	DB	04aH
	DB	029H
	DB	04aH
	DB	049H
	DB	04aH
	DB	049H
	DB	04aH
	DB	029H
	DB	04aH
	DB	049H
	DB	04aH
	DB	029H
	DB	04aH
	DB	029H
	DB	04aH
	DB	049H
	DB	04aH
	DB	029H
	DB	04aH
	DB	029H
	DB	04aH
	DB	049H
	DB	04aH
	DB	049H
	DB	04aH
	DB	029H
	DB	04aH
	DB	049H
	DB	04aH
	DB	029H
	DB	04aH
	DB	029H
	DB	04aH
	DB	049H
	DB	04aH
	DB	029H
	DB	04aH
	DB	029H
	DB	04aH
	DB	049H
	DB	04aH
	DB	049H
	DB	04aH
	DB	049H
	DB	04aH
	DB	049H
	DB	04aH
	DB	029H
	DB	04aH
	DB	049H
	DB	04aH
	DB	049H
	DB	04aH
	DB	049H
	DB	04aH
	DB	0cbH
	DB	05aH
	DB	0ebH
	DB	05aH
	DB	049H
	DB	04aH
	DB	049H
	DB	04aH
	DB	049H
	DB	04aH
	DB	029H
	DB	04aH
	DB	049H
	DB	04aH
	DB	029H
	DB	04aH
	DB	029H
	DB	04aH
	DB	049H
	DB	04aH
	DB	029H
	DB	04aH
	DB	029H
	DB	04aH
	DB	049H
	DB	04aH
	DB	049H
	DB	04aH
	DB	029H
	DB	04aH
	DB	049H
	DB	04aH
	DB	029H
	DB	04aH
	DB	029H
	DB	04aH
	DB	049H
	DB	04aH
	DB	029H
	DB	04aH
	DB	029H
	DB	04aH
	DB	049H
	DB	04aH
	DB	049H
	DB	04aH
	DB	029H
	DB	04aH
	DB	049H
	DB	04aH
	DB	029H
	DB	04aH
	DB	029H
	DB	04aH
	DB	049H
	DB	04aH
	DB	029H
	DB	04aH
	DB	029H
	DB	04aH
	DB	049H
	DB	04aH
	DB	049H
	DB	04aH
	DB	049H
	DB	04aH
	DB	049H
	DB	04aH
	DB	029H
	DB	04aH
	DB	049H
	DB	04aH
	DB	049H
	DB	04aH
	DB	049H
	DB	04aH
	DB	0cbH
	DB	05aH
	DB	0ebH
	DB	05aH
	DB	049H
	DB	04aH
	DB	049H
	DB	04aH
	DB	049H
	DB	04aH
	DB	029H
	DB	04aH
	DB	049H
	DB	04aH
	DB	029H
	DB	04aH
	DB	029H
	DB	04aH
	DB	049H
	DB	04aH
	DB	029H
	DB	04aH
	DB	029H
	DB	04aH
	DB	049H
	DB	04aH
	DB	049H
	DB	04aH
	DB	029H
	DB	04aH
	DB	049H
	DB	04aH
	DB	029H
	DB	04aH
	DB	029H
	DB	04aH
	DB	049H
	DB	04aH
	DB	029H
	DB	04aH
	DB	029H
	DB	04aH
	DB	049H
	DB	04aH
	DB	049H
	DB	04aH
	DB	029H
	DB	04aH
	DB	049H
	DB	04aH
	DB	029H
	DB	04aH
	DB	029H
	DB	04aH
	DB	049H
	DB	04aH
	DB	029H
	DB	04aH
	DB	029H
	DB	04aH
	DB	049H
	DB	04aH
	DB	049H
	DB	04aH
	DB	049H
	DB	04aH
	DB	049H
	DB	04aH
	DB	029H
	DB	04aH
	DB	049H
	DB	04aH
	DB	049H
	DB	04aH
	DB	049H
	DB	04aH
	DB	0cbH
	DB	05aH
	DB	0ebH
	DB	05aH
	DB	049H
	DB	04aH
	DB	049H
	DB	04aH
	DB	049H
	DB	04aH
	DB	029H
	DB	04aH
	DB	049H
	DB	04aH
	DB	029H
	DB	04aH
	DB	029H
	DB	04aH
	DB	049H
	DB	04aH
	DB	029H
	DB	04aH
	DB	029H
	DB	04aH
	DB	049H
	DB	04aH
	DB	049H
	DB	04aH
	DB	029H
	DB	04aH
	DB	049H
	DB	04aH
	DB	029H
	DB	04aH
	DB	029H
	DB	04aH
	DB	049H
	DB	04aH
	DB	029H
	DB	04aH
	DB	029H
	DB	04aH
	DB	049H
	DB	04aH
	DB	049H
	DB	04aH
	DB	029H
	DB	04aH
	DB	049H
	DB	04aH
	DB	029H
	DB	04aH
	DB	029H
	DB	04aH
	DB	049H
	DB	04aH
	DB	029H
	DB	04aH
	DB	029H
	DB	04aH
	DB	049H
	DB	04aH
	DB	049H
	DB	04aH
	DB	049H
	DB	04aH
	DB	049H
	DB	04aH
	DB	029H
	DB	04aH
	DB	049H
	DB	04aH
	DB	049H
	DB	04aH
	DB	049H
	DB	04aH
	DB	0cbH
	DB	05aH
	DB	0ebH
	DB	05aH
	DB	049H
	DB	04aH
	DB	049H
	DB	04aH
	DB	049H
	DB	04aH
	DB	029H
	DB	04aH
	DB	049H
	DB	04aH
	DB	029H
	DB	04aH
	DB	029H
	DB	04aH
	DB	049H
	DB	04aH
	DB	029H
	DB	04aH
	DB	029H
	DB	04aH
	DB	049H
	DB	04aH
	DB	049H
	DB	04aH
	DB	029H
	DB	04aH
	DB	049H
	DB	04aH
	DB	029H
	DB	04aH
	DB	029H
	DB	04aH
	DB	049H
	DB	04aH
	DB	029H
	DB	04aH
	DB	029H
	DB	04aH
	DB	049H
	DB	04aH
	DB	049H
	DB	04aH
	DB	029H
	DB	04aH
	DB	049H
	DB	04aH
	DB	029H
	DB	04aH
	DB	029H
	DB	04aH
	DB	049H
	DB	04aH
	DB	029H
	DB	04aH
	DB	029H
	DB	04aH
	DB	049H
	DB	04aH
	DB	049H
	DB	04aH
	DB	049H
	DB	04aH
	DB	049H
	DB	04aH
	DB	029H
	DB	04aH
	DB	049H
	DB	04aH
	DB	049H
	DB	04aH
	DB	049H
	DB	04aH
	DB	0cbH
	DB	05aH
	DB	0ebH
	DB	05aH
	DB	049H
	DB	04aH
	DB	049H
	DB	04aH
	DB	049H
	DB	04aH
	DB	029H
	DB	04aH
	DB	049H
	DB	04aH
	DB	029H
	DB	04aH
	DB	029H
	DB	04aH
	DB	049H
	DB	04aH
	DB	029H
	DB	04aH
	DB	029H
	DB	04aH
	DB	049H
	DB	04aH
	DB	049H
	DB	04aH
	DB	029H
	DB	04aH
	DB	049H
	DB	04aH
	DB	029H
	DB	04aH
	DB	029H
	DB	04aH
	DB	049H
	DB	04aH
	DB	029H
	DB	04aH
	DB	029H
	DB	04aH
	DB	049H
	DB	04aH
	DB	049H
	DB	04aH
	DB	029H
	DB	04aH
	DB	049H
	DB	04aH
	DB	029H
	DB	04aH
	DB	029H
	DB	04aH
	DB	049H
	DB	04aH
	DB	029H
	DB	04aH
	DB	029H
	DB	04aH
	DB	049H
	DB	04aH
	DB	049H
	DB	04aH
	DB	049H
	DB	04aH
	DB	049H
	DB	04aH
	DB	029H
	DB	04aH
	DB	049H
	DB	04aH
	DB	049H
	DB	04aH
	DB	029H
	DB	04aH
	DB	08aH
	DB	052H
	DB	0efH
	DB	07bH
	DB	0efH
	DB	07bH
	DB	08aH
	DB	052H
	DB	049H
	DB	04aH
	DB	049H
	DB	04aH
	DB	049H
	DB	04aH
	DB	049H
	DB	04aH
	DB	049H
	DB	04aH
	DB	049H
	DB	04aH
	DB	049H
	DB	04aH
	DB	049H
	DB	04aH
	DB	049H
	DB	04aH
	DB	049H
	DB	04aH
	DB	029H
	DB	04aH
	DB	049H
	DB	04aH
	DB	049H
	DB	04aH
	DB	049H
	DB	04aH
	DB	049H
	DB	04aH
	DB	049H
	DB	04aH
	DB	049H
	DB	04aH
	DB	049H
	DB	04aH
	DB	049H
	DB	04aH
	DB	049H
	DB	04aH
	DB	049H
	DB	04aH
	DB	049H
	DB	04aH
	DB	049H
	DB	04aH
	DB	049H
	DB	04aH
	DB	049H
	DB	04aH
	DB	049H
	DB	04aH
	DB	049H
	DB	04aH
	DB	049H
	DB	04aH
	DB	049H
	DB	04aH
	DB	049H
	DB	04aH
	DB	049H
	DB	04aH
	DB	049H
	DB	04aH
	DB	049H
	DB	04aH
	DB	029H
	DB	04aH
	DB	049H
	DB	04aH
	DB	049H
	DB	04aH
	DB	0cbH
	DB	05aH
	DB	0cbH
	DB	05aH
	DB	049H
	DB	04aH
	DB	049H
	DB	04aH
	DB	049H
	DB	04aH
	DB	049H
	DB	04aH
	DB	049H
	DB	04aH
	DB	049H
	DB	04aH
	DB	049H
	DB	04aH
	DB	049H
	DB	04aH
	DB	049H
	DB	04aH
	DB	049H
	DB	04aH
	DB	049H
	DB	04aH
	DB	049H
	DB	04aH
	DB	049H
	DB	04aH
	DB	049H
	DB	04aH
	DB	049H
	DB	04aH
	DB	049H
	DB	04aH
	DB	049H
	DB	04aH
	DB	049H
	DB	04aH
	DB	049H
	DB	04aH
	DB	049H
	DB	04aH
	DB	049H
	DB	04aH
	DB	049H
	DB	04aH
	DB	049H
	DB	04aH
	DB	049H
	DB	04aH
	DB	049H
	DB	04aH
	DB	049H
	DB	04aH
	DB	049H
	DB	04aH
	DB	049H
	DB	04aH
	DB	049H
	DB	04aH
	DB	029H
	DB	04aH
	DB	049H
	DB	04aH
	DB	049H
	DB	04aH
	DB	049H
	DB	04aH
	DB	029H
	DB	04aH
	DB	049H
	DB	04aH
	DB	049H
	DB	04aH
	DB	0cbH
	DB	05aH
	DB	0cbH
	DB	05aH
	DB	049H
	DB	04aH
	DB	049H
	DB	04aH
	DB	049H
	DB	04aH
	DB	049H
	DB	04aH
	DB	049H
	DB	04aH
	DB	049H
	DB	04aH
	DB	049H
	DB	04aH
	DB	049H
	DB	04aH
	DB	049H
	DB	04aH
	DB	049H
	DB	04aH
	DB	049H
	DB	04aH
	DB	049H
	DB	04aH
	DB	049H
	DB	04aH
	DB	049H
	DB	04aH
	DB	049H
	DB	04aH
	DB	049H
	DB	04aH
	DB	049H
	DB	04aH
	DB	049H
	DB	04aH
	DB	049H
	DB	04aH
	DB	049H
	DB	04aH
	DB	049H
	DB	04aH
	DB	049H
	DB	04aH
	DB	049H
	DB	04aH
	DB	049H
	DB	04aH
	DB	049H
	DB	04aH
	DB	049H
	DB	04aH
	DB	049H
	DB	04aH
	DB	049H
	DB	04aH
	DB	049H
	DB	04aH
	DB	029H
	DB	04aH
	DB	049H
	DB	04aH
	DB	049H
	DB	04aH
	DB	049H
	DB	04aH
	DB	029H
	DB	04aH
	DB	049H
	DB	04aH
	DB	049H
	DB	04aH
	DB	0cbH
	DB	05aH
	DB	0cbH
	DB	05aH
	DB	049H
	DB	04aH
	DB	049H
	DB	04aH
	DB	049H
	DB	04aH
	DB	049H
	DB	04aH
	DB	049H
	DB	04aH
	DB	049H
	DB	04aH
	DB	049H
	DB	04aH
	DB	049H
	DB	04aH
	DB	049H
	DB	04aH
	DB	049H
	DB	04aH
	DB	049H
	DB	04aH
	DB	049H
	DB	04aH
	DB	049H
	DB	04aH
	DB	049H
	DB	04aH
	DB	049H
	DB	04aH
	DB	049H
	DB	04aH
	DB	049H
	DB	04aH
	DB	049H
	DB	04aH
	DB	049H
	DB	04aH
	DB	049H
	DB	04aH
	DB	049H
	DB	04aH
	DB	049H
	DB	04aH
	DB	049H
	DB	04aH
	DB	049H
	DB	04aH
	DB	049H
	DB	04aH
	DB	049H
	DB	04aH
	DB	049H
	DB	04aH
	DB	049H
	DB	04aH
	DB	049H
	DB	04aH
	DB	029H
	DB	04aH
	DB	049H
	DB	04aH
	DB	049H
	DB	04aH
	DB	049H
	DB	04aH
	DB	029H
	DB	04aH
	DB	049H
	DB	04aH
	DB	049H
	DB	04aH
	DB	0cbH
	DB	05aH
	DB	0cbH
	DB	05aH
	DB	049H
	DB	04aH
	DB	049H
	DB	04aH
	DB	049H
	DB	04aH
	DB	049H
	DB	04aH
	DB	049H
	DB	04aH
	DB	049H
	DB	04aH
	DB	049H
	DB	04aH
	DB	049H
	DB	04aH
	DB	049H
	DB	04aH
	DB	049H
	DB	04aH
	DB	049H
	DB	04aH
	DB	049H
	DB	04aH
	DB	049H
	DB	04aH
	DB	049H
	DB	04aH
	DB	049H
	DB	04aH
	DB	049H
	DB	04aH
	DB	049H
	DB	04aH
	DB	049H
	DB	04aH
	DB	049H
	DB	04aH
	DB	049H
	DB	04aH
	DB	049H
	DB	04aH
	DB	049H
	DB	04aH
	DB	049H
	DB	04aH
	DB	049H
	DB	04aH
	DB	049H
	DB	04aH
	DB	049H
	DB	04aH
	DB	049H
	DB	04aH
	DB	049H
	DB	04aH
	DB	049H
	DB	04aH
	DB	029H
	DB	04aH
	DB	049H
	DB	04aH
	DB	049H
	DB	04aH
	DB	049H
	DB	04aH
	DB	029H
	DB	04aH
	DB	049H
	DB	04aH
	DB	049H
	DB	04aH
	DB	0cbH
	DB	05aH
	DB	0cbH
	DB	05aH
	DB	049H
	DB	04aH
	DB	049H
	DB	04aH
	DB	049H
	DB	04aH
	DB	049H
	DB	04aH
	DB	049H
	DB	04aH
	DB	049H
	DB	04aH
	DB	049H
	DB	04aH
	DB	049H
	DB	04aH
	DB	049H
	DB	04aH
	DB	049H
	DB	04aH
	DB	049H
	DB	04aH
	DB	049H
	DB	04aH
	DB	049H
	DB	04aH
	DB	049H
	DB	04aH
	DB	049H
	DB	04aH
	DB	049H
	DB	04aH
	DB	049H
	DB	04aH
	DB	049H
	DB	04aH
	DB	049H
	DB	04aH
	DB	049H
	DB	04aH
	DB	049H
	DB	04aH
	DB	049H
	DB	04aH
	DB	049H
	DB	04aH
	DB	049H
	DB	04aH
	DB	049H
	DB	04aH
	DB	049H
	DB	04aH
	DB	049H
	DB	04aH
	DB	049H
	DB	04aH
	DB	049H
	DB	04aH
	DB	029H
	DB	04aH
	DB	049H
	DB	04aH
	DB	049H
	DB	04aH
	DB	049H
	DB	04aH
	DB	029H
	DB	04aH
	DB	049H
	DB	04aH
	DB	049H
	DB	04aH
	DB	0cbH
	DB	05aH
	DB	0cbH
	DB	05aH
	DB	049H
	DB	04aH
	DB	049H
	DB	04aH
	DB	049H
	DB	04aH
	DB	049H
	DB	04aH
	DB	049H
	DB	04aH
	DB	049H
	DB	04aH
	DB	049H
	DB	04aH
	DB	049H
	DB	04aH
	DB	049H
	DB	04aH
	DB	049H
	DB	04aH
	DB	049H
	DB	04aH
	DB	049H
	DB	04aH
	DB	049H
	DB	04aH
	DB	049H
	DB	04aH
	DB	049H
	DB	04aH
	DB	049H
	DB	04aH
	DB	049H
	DB	04aH
	DB	049H
	DB	04aH
	DB	049H
	DB	04aH
	DB	049H
	DB	04aH
	DB	049H
	DB	04aH
	DB	049H
	DB	04aH
	DB	049H
	DB	04aH
	DB	049H
	DB	04aH
	DB	049H
	DB	04aH
	DB	049H
	DB	04aH
	DB	049H
	DB	04aH
	DB	049H
	DB	04aH
	DB	049H
	DB	04aH
	DB	029H
	DB	04aH
	DB	049H
	DB	04aH
	DB	049H
	DB	04aH
	DB	049H
	DB	04aH
	DB	029H
	DB	04aH
	DB	049H
	DB	04aH
	DB	049H
	DB	04aH
	DB	0cbH
	DB	05aH
	DB	0cbH
	DB	05aH
	DB	049H
	DB	04aH
	DB	049H
	DB	04aH
	DB	049H
	DB	04aH
	DB	049H
	DB	04aH
	DB	049H
	DB	04aH
	DB	049H
	DB	04aH
	DB	049H
	DB	04aH
	DB	049H
	DB	04aH
	DB	049H
	DB	04aH
	DB	049H
	DB	04aH
	DB	049H
	DB	04aH
	DB	049H
	DB	04aH
	DB	049H
	DB	04aH
	DB	049H
	DB	04aH
	DB	049H
	DB	04aH
	DB	049H
	DB	04aH
	DB	049H
	DB	04aH
	DB	049H
	DB	04aH
	DB	049H
	DB	04aH
	DB	049H
	DB	04aH
	DB	049H
	DB	04aH
	DB	049H
	DB	04aH
	DB	049H
	DB	04aH
	DB	049H
	DB	04aH
	DB	049H
	DB	04aH
	DB	049H
	DB	04aH
	DB	049H
	DB	04aH
	DB	049H
	DB	04aH
	DB	049H
	DB	04aH
	DB	029H
	DB	04aH
	DB	049H
	DB	04aH
	DB	049H
	DB	04aH
	DB	049H
	DB	04aH
	DB	049H
	DB	04aH
	DB	049H
	DB	04aH
	DB	049H
	DB	04aH
	DB	08aH
	DB	052H
	DB	0efH
	DB	07bH
	DB	0cfH
	DB	07bH
	DB	08aH
	DB	052H
	DB	049H
	DB	04aH
	DB	029H
	DB	04aH
	DB	049H
	DB	04aH
	DB	049H
	DB	04aH
	DB	029H
	DB	04aH
	DB	049H
	DB	04aH
	DB	029H
	DB	04aH
	DB	049H
	DB	04aH
	DB	049H
	DB	04aH
	DB	029H
	DB	04aH
	DB	049H
	DB	04aH
	DB	049H
	DB	04aH
	DB	049H
	DB	04aH
	DB	049H
	DB	04aH
	DB	029H
	DB	04aH
	DB	049H
	DB	04aH
	DB	049H
	DB	04aH
	DB	029H
	DB	04aH
	DB	049H
	DB	04aH
	DB	049H
	DB	04aH
	DB	029H
	DB	04aH
	DB	049H
	DB	04aH
	DB	049H
	DB	04aH
	DB	029H
	DB	04aH
	DB	049H
	DB	04aH
	DB	049H
	DB	04aH
	DB	029H
	DB	04aH
	DB	049H
	DB	04aH
	DB	049H
	DB	04aH
	DB	029H
	DB	04aH
	DB	049H
	DB	04aH
	DB	049H
	DB	04aH
	DB	049H
	DB	04aH
	DB	049H
	DB	04aH
	DB	029H
	DB	04aH
	DB	049H
	DB	04aH
	DB	0cbH
	DB	05aH
	DB	0cbH
	DB	05aH
	DB	049H
	DB	04aH
	DB	049H
	DB	04aH
	DB	029H
	DB	04aH
	DB	049H
	DB	04aH
	DB	049H
	DB	04aH
	DB	029H
	DB	04aH
	DB	049H
	DB	04aH
	DB	049H
	DB	04aH
	DB	029H
	DB	04aH
	DB	049H
	DB	04aH
	DB	049H
	DB	04aH
	DB	029H
	DB	04aH
	DB	049H
	DB	04aH
	DB	049H
	DB	04aH
	DB	029H
	DB	04aH
	DB	049H
	DB	04aH
	DB	049H
	DB	04aH
	DB	029H
	DB	04aH
	DB	049H
	DB	04aH
	DB	049H
	DB	04aH
	DB	029H
	DB	04aH
	DB	049H
	DB	04aH
	DB	049H
	DB	04aH
	DB	029H
	DB	04aH
	DB	049H
	DB	04aH
	DB	049H
	DB	04aH
	DB	029H
	DB	04aH
	DB	049H
	DB	04aH
	DB	049H
	DB	04aH
	DB	029H
	DB	04aH
	DB	049H
	DB	04aH
	DB	049H
	DB	04aH
	DB	049H
	DB	04aH
	DB	029H
	DB	04aH
	DB	049H
	DB	04aH
	DB	049H
	DB	04aH
	DB	0cbH
	DB	05aH
	DB	0cbH
	DB	05aH
	DB	049H
	DB	04aH
	DB	049H
	DB	04aH
	DB	029H
	DB	04aH
	DB	049H
	DB	04aH
	DB	049H
	DB	04aH
	DB	029H
	DB	04aH
	DB	049H
	DB	04aH
	DB	049H
	DB	04aH
	DB	029H
	DB	04aH
	DB	049H
	DB	04aH
	DB	049H
	DB	04aH
	DB	029H
	DB	04aH
	DB	049H
	DB	04aH
	DB	049H
	DB	04aH
	DB	029H
	DB	04aH
	DB	049H
	DB	04aH
	DB	049H
	DB	04aH
	DB	029H
	DB	04aH
	DB	049H
	DB	04aH
	DB	049H
	DB	04aH
	DB	029H
	DB	04aH
	DB	049H
	DB	04aH
	DB	049H
	DB	04aH
	DB	029H
	DB	04aH
	DB	049H
	DB	04aH
	DB	049H
	DB	04aH
	DB	029H
	DB	04aH
	DB	049H
	DB	04aH
	DB	049H
	DB	04aH
	DB	029H
	DB	04aH
	DB	049H
	DB	04aH
	DB	049H
	DB	04aH
	DB	049H
	DB	04aH
	DB	029H
	DB	04aH
	DB	049H
	DB	04aH
	DB	049H
	DB	04aH
	DB	0cbH
	DB	05aH
	DB	0cbH
	DB	05aH
	DB	049H
	DB	04aH
	DB	049H
	DB	04aH
	DB	029H
	DB	04aH
	DB	049H
	DB	04aH
	DB	049H
	DB	04aH
	DB	029H
	DB	04aH
	DB	049H
	DB	04aH
	DB	049H
	DB	04aH
	DB	029H
	DB	04aH
	DB	049H
	DB	04aH
	DB	049H
	DB	04aH
	DB	029H
	DB	04aH
	DB	049H
	DB	04aH
	DB	049H
	DB	04aH
	DB	029H
	DB	04aH
	DB	049H
	DB	04aH
	DB	049H
	DB	04aH
	DB	029H
	DB	04aH
	DB	049H
	DB	04aH
	DB	049H
	DB	04aH
	DB	029H
	DB	04aH
	DB	049H
	DB	04aH
	DB	049H
	DB	04aH
	DB	029H
	DB	04aH
	DB	049H
	DB	04aH
	DB	049H
	DB	04aH
	DB	029H
	DB	04aH
	DB	049H
	DB	04aH
	DB	049H
	DB	04aH
	DB	029H
	DB	04aH
	DB	049H
	DB	04aH
	DB	049H
	DB	04aH
	DB	049H
	DB	04aH
	DB	029H
	DB	04aH
	DB	049H
	DB	04aH
	DB	049H
	DB	04aH
	DB	0cbH
	DB	05aH
	DB	0cbH
	DB	05aH
	DB	049H
	DB	04aH
	DB	049H
	DB	04aH
	DB	029H
	DB	04aH
	DB	049H
	DB	04aH
	DB	049H
	DB	04aH
	DB	029H
	DB	04aH
	DB	049H
	DB	04aH
	DB	049H
	DB	04aH
	DB	029H
	DB	04aH
	DB	049H
	DB	04aH
	DB	049H
	DB	04aH
	DB	029H
	DB	04aH
	DB	049H
	DB	04aH
	DB	049H
	DB	04aH
	DB	029H
	DB	04aH
	DB	049H
	DB	04aH
	DB	049H
	DB	04aH
	DB	029H
	DB	04aH
	DB	049H
	DB	04aH
	DB	049H
	DB	04aH
	DB	029H
	DB	04aH
	DB	049H
	DB	04aH
	DB	049H
	DB	04aH
	DB	029H
	DB	04aH
	DB	049H
	DB	04aH
	DB	049H
	DB	04aH
	DB	029H
	DB	04aH
	DB	049H
	DB	04aH
	DB	049H
	DB	04aH
	DB	029H
	DB	04aH
	DB	049H
	DB	04aH
	DB	049H
	DB	04aH
	DB	049H
	DB	04aH
	DB	029H
	DB	04aH
	DB	049H
	DB	04aH
	DB	049H
	DB	04aH
	DB	0cbH
	DB	05aH
	DB	0cbH
	DB	05aH
	DB	049H
	DB	04aH
	DB	049H
	DB	04aH
	DB	029H
	DB	04aH
	DB	049H
	DB	04aH
	DB	049H
	DB	04aH
	DB	029H
	DB	04aH
	DB	049H
	DB	04aH
	DB	049H
	DB	04aH
	DB	029H
	DB	04aH
	DB	049H
	DB	04aH
	DB	049H
	DB	04aH
	DB	029H
	DB	04aH
	DB	049H
	DB	04aH
	DB	049H
	DB	04aH
	DB	029H
	DB	04aH
	DB	049H
	DB	04aH
	DB	049H
	DB	04aH
	DB	029H
	DB	04aH
	DB	049H
	DB	04aH
	DB	049H
	DB	04aH
	DB	029H
	DB	04aH
	DB	049H
	DB	04aH
	DB	049H
	DB	04aH
	DB	029H
	DB	04aH
	DB	049H
	DB	04aH
	DB	049H
	DB	04aH
	DB	029H
	DB	04aH
	DB	049H
	DB	04aH
	DB	049H
	DB	04aH
	DB	029H
	DB	04aH
	DB	049H
	DB	04aH
	DB	049H
	DB	04aH
	DB	049H
	DB	04aH
	DB	029H
	DB	04aH
	DB	049H
	DB	04aH
	DB	049H
	DB	04aH
	DB	0cbH
	DB	05aH
	DB	0cbH
	DB	05aH
	DB	049H
	DB	04aH
	DB	049H
	DB	04aH
	DB	029H
	DB	04aH
	DB	049H
	DB	04aH
	DB	049H
	DB	04aH
	DB	029H
	DB	04aH
	DB	049H
	DB	04aH
	DB	049H
	DB	04aH
	DB	029H
	DB	04aH
	DB	049H
	DB	04aH
	DB	049H
	DB	04aH
	DB	029H
	DB	04aH
	DB	049H
	DB	04aH
	DB	049H
	DB	04aH
	DB	029H
	DB	04aH
	DB	049H
	DB	04aH
	DB	049H
	DB	04aH
	DB	029H
	DB	04aH
	DB	049H
	DB	04aH
	DB	049H
	DB	04aH
	DB	029H
	DB	04aH
	DB	049H
	DB	04aH
	DB	049H
	DB	04aH
	DB	029H
	DB	04aH
	DB	049H
	DB	04aH
	DB	049H
	DB	04aH
	DB	029H
	DB	04aH
	DB	049H
	DB	04aH
	DB	049H
	DB	04aH
	DB	029H
	DB	04aH
	DB	049H
	DB	04aH
	DB	049H
	DB	04aH
	DB	049H
	DB	04aH
	DB	029H
	DB	04aH
	DB	049H
	DB	04aH
	DB	049H
	DB	04aH
	DB	0cbH
	DB	05aH
	DB	0cbH
	DB	05aH
	DB	049H
	DB	04aH
	DB	049H
	DB	04aH
	DB	029H
	DB	04aH
	DB	049H
	DB	04aH
	DB	049H
	DB	04aH
	DB	029H
	DB	04aH
	DB	049H
	DB	04aH
	DB	049H
	DB	04aH
	DB	029H
	DB	04aH
	DB	049H
	DB	04aH
	DB	049H
	DB	04aH
	DB	029H
	DB	04aH
	DB	049H
	DB	04aH
	DB	049H
	DB	04aH
	DB	029H
	DB	04aH
	DB	049H
	DB	04aH
	DB	049H
	DB	04aH
	DB	029H
	DB	04aH
	DB	049H
	DB	04aH
	DB	049H
	DB	04aH
	DB	029H
	DB	04aH
	DB	049H
	DB	04aH
	DB	049H
	DB	04aH
	DB	029H
	DB	04aH
	DB	049H
	DB	04aH
	DB	049H
	DB	04aH
	DB	029H
	DB	04aH
	DB	049H
	DB	04aH
	DB	049H
	DB	04aH
	DB	029H
	DB	04aH
	DB	049H
	DB	04aH
	DB	049H
	DB	04aH
	DB	029H
	DB	04aH
	DB	049H
	DB	04aH
	DB	029H
	DB	04aH
	DB	049H
	DB	04aH
	DB	08aH
	DB	052H
	DB	0efH
	DB	07bH
	DB	0efH
	DB	07bH
	DB	08aH
	DB	052H
	DB	049H
	DB	04aH
	DB	029H
	DB	04aH
	DB	049H
	DB	04aH
	DB	049H
	DB	04aH
	DB	028H
	DB	042H
	DB	049H
	DB	04aH
	DB	049H
	DB	04aH
	DB	028H
	DB	042H
	DB	049H
	DB	04aH
	DB	049H
	DB	04aH
	DB	048H
	DB	042H
	DB	029H
	DB	04aH
	DB	049H
	DB	04aH
	DB	048H
	DB	042H
	DB	029H
	DB	04aH
	DB	049H
	DB	04aH
	DB	048H
	DB	042H
	DB	029H
	DB	04aH
	DB	049H
	DB	04aH
	DB	048H
	DB	042H
	DB	029H
	DB	04aH
	DB	049H
	DB	04aH
	DB	048H
	DB	042H
	DB	029H
	DB	04aH
	DB	049H
	DB	04aH
	DB	048H
	DB	042H
	DB	029H
	DB	04aH
	DB	049H
	DB	04aH
	DB	048H
	DB	042H
	DB	029H
	DB	04aH
	DB	049H
	DB	04aH
	DB	028H
	DB	042H
	DB	049H
	DB	04aH
	DB	049H
	DB	04aH
	DB	049H
	DB	04aH
	DB	049H
	DB	04aH
	DB	0ebH
	DB	05aH
	DB	0cbH
	DB	05aH
	DB	049H
	DB	04aH
	DB	049H
	DB	04aH
	DB	029H
	DB	04aH
	DB	049H
	DB	04aH
	DB	048H
	DB	042H
	DB	029H
	DB	04aH
	DB	049H
	DB	04aH
	DB	048H
	DB	042H
	DB	029H
	DB	04aH
	DB	049H
	DB	04aH
	DB	048H
	DB	042H
	DB	029H
	DB	04aH
	DB	049H
	DB	04aH
	DB	048H
	DB	042H
	DB	029H
	DB	04aH
	DB	049H
	DB	04aH
	DB	048H
	DB	042H
	DB	029H
	DB	04aH
	DB	049H
	DB	04aH
	DB	048H
	DB	042H
	DB	029H
	DB	04aH
	DB	049H
	DB	04aH
	DB	048H
	DB	042H
	DB	029H
	DB	04aH
	DB	049H
	DB	04aH
	DB	048H
	DB	042H
	DB	029H
	DB	04aH
	DB	049H
	DB	04aH
	DB	048H
	DB	042H
	DB	049H
	DB	04aH
	DB	029H
	DB	04aH
	DB	048H
	DB	042H
	DB	049H
	DB	04aH
	DB	049H
	DB	04aH
	DB	049H
	DB	04aH
	DB	049H
	DB	04aH
	DB	0cbH
	DB	05aH
	DB	0ebH
	DB	05aH
	DB	049H
	DB	04aH
	DB	049H
	DB	04aH
	DB	029H
	DB	04aH
	DB	049H
	DB	04aH
	DB	048H
	DB	042H
	DB	029H
	DB	04aH
	DB	049H
	DB	04aH
	DB	048H
	DB	042H
	DB	029H
	DB	04aH
	DB	049H
	DB	04aH
	DB	048H
	DB	042H
	DB	029H
	DB	04aH
	DB	049H
	DB	04aH
	DB	048H
	DB	042H
	DB	029H
	DB	04aH
	DB	049H
	DB	04aH
	DB	048H
	DB	042H
	DB	029H
	DB	04aH
	DB	049H
	DB	04aH
	DB	048H
	DB	042H
	DB	029H
	DB	04aH
	DB	049H
	DB	04aH
	DB	048H
	DB	042H
	DB	029H
	DB	04aH
	DB	049H
	DB	04aH
	DB	048H
	DB	042H
	DB	029H
	DB	04aH
	DB	049H
	DB	04aH
	DB	048H
	DB	042H
	DB	049H
	DB	04aH
	DB	029H
	DB	04aH
	DB	048H
	DB	042H
	DB	049H
	DB	04aH
	DB	049H
	DB	04aH
	DB	049H
	DB	04aH
	DB	049H
	DB	04aH
	DB	0cbH
	DB	05aH
	DB	0ebH
	DB	05aH
	DB	049H
	DB	04aH
	DB	049H
	DB	04aH
	DB	029H
	DB	04aH
	DB	049H
	DB	04aH
	DB	048H
	DB	042H
	DB	029H
	DB	04aH
	DB	049H
	DB	04aH
	DB	048H
	DB	042H
	DB	029H
	DB	04aH
	DB	049H
	DB	04aH
	DB	048H
	DB	042H
	DB	029H
	DB	04aH
	DB	049H
	DB	04aH
	DB	048H
	DB	042H
	DB	029H
	DB	04aH
	DB	049H
	DB	04aH
	DB	048H
	DB	042H
	DB	029H
	DB	04aH
	DB	049H
	DB	04aH
	DB	048H
	DB	042H
	DB	029H
	DB	04aH
	DB	049H
	DB	04aH
	DB	048H
	DB	042H
	DB	029H
	DB	04aH
	DB	049H
	DB	04aH
	DB	048H
	DB	042H
	DB	029H
	DB	04aH
	DB	049H
	DB	04aH
	DB	048H
	DB	042H
	DB	049H
	DB	04aH
	DB	029H
	DB	04aH
	DB	048H
	DB	042H
	DB	049H
	DB	04aH
	DB	049H
	DB	04aH
	DB	049H
	DB	04aH
	DB	049H
	DB	04aH
	DB	0cbH
	DB	05aH
	DB	0ebH
	DB	05aH
	DB	049H
	DB	04aH
	DB	049H
	DB	04aH
	DB	029H
	DB	04aH
	DB	049H
	DB	04aH
	DB	048H
	DB	042H
	DB	029H
	DB	04aH
	DB	049H
	DB	04aH
	DB	048H
	DB	042H
	DB	029H
	DB	04aH
	DB	049H
	DB	04aH
	DB	048H
	DB	042H
	DB	029H
	DB	04aH
	DB	049H
	DB	04aH
	DB	048H
	DB	042H
	DB	029H
	DB	04aH
	DB	049H
	DB	04aH
	DB	048H
	DB	042H
	DB	029H
	DB	04aH
	DB	049H
	DB	04aH
	DB	048H
	DB	042H
	DB	029H
	DB	04aH
	DB	049H
	DB	04aH
	DB	048H
	DB	042H
	DB	029H
	DB	04aH
	DB	049H
	DB	04aH
	DB	048H
	DB	042H
	DB	029H
	DB	04aH
	DB	049H
	DB	04aH
	DB	048H
	DB	042H
	DB	049H
	DB	04aH
	DB	029H
	DB	04aH
	DB	048H
	DB	042H
	DB	049H
	DB	04aH
	DB	049H
	DB	04aH
	DB	049H
	DB	04aH
	DB	049H
	DB	04aH
	DB	0cbH
	DB	05aH
	DB	0ebH
	DB	05aH
	DB	049H
	DB	04aH
	DB	049H
	DB	04aH
	DB	029H
	DB	04aH
	DB	049H
	DB	04aH
	DB	048H
	DB	042H
	DB	029H
	DB	04aH
	DB	049H
	DB	04aH
	DB	048H
	DB	042H
	DB	029H
	DB	04aH
	DB	049H
	DB	04aH
	DB	048H
	DB	042H
	DB	029H
	DB	04aH
	DB	049H
	DB	04aH
	DB	048H
	DB	042H
	DB	029H
	DB	04aH
	DB	049H
	DB	04aH
	DB	048H
	DB	042H
	DB	029H
	DB	04aH
	DB	049H
	DB	04aH
	DB	048H
	DB	042H
	DB	029H
	DB	04aH
	DB	049H
	DB	04aH
	DB	048H
	DB	042H
	DB	029H
	DB	04aH
	DB	049H
	DB	04aH
	DB	048H
	DB	042H
	DB	029H
	DB	04aH
	DB	049H
	DB	04aH
	DB	048H
	DB	042H
	DB	049H
	DB	04aH
	DB	029H
	DB	04aH
	DB	048H
	DB	042H
	DB	049H
	DB	04aH
	DB	049H
	DB	04aH
	DB	049H
	DB	04aH
	DB	049H
	DB	04aH
	DB	0cbH
	DB	05aH
	DB	0ebH
	DB	05aH
	DB	049H
	DB	04aH
	DB	049H
	DB	04aH
	DB	029H
	DB	04aH
	DB	049H
	DB	04aH
	DB	048H
	DB	042H
	DB	029H
	DB	04aH
	DB	049H
	DB	04aH
	DB	048H
	DB	042H
	DB	029H
	DB	04aH
	DB	049H
	DB	04aH
	DB	048H
	DB	042H
	DB	029H
	DB	04aH
	DB	049H
	DB	04aH
	DB	048H
	DB	042H
	DB	029H
	DB	04aH
	DB	049H
	DB	04aH
	DB	048H
	DB	042H
	DB	029H
	DB	04aH
	DB	049H
	DB	04aH
	DB	048H
	DB	042H
	DB	029H
	DB	04aH
	DB	049H
	DB	04aH
	DB	048H
	DB	042H
	DB	029H
	DB	04aH
	DB	049H
	DB	04aH
	DB	048H
	DB	042H
	DB	029H
	DB	04aH
	DB	049H
	DB	04aH
	DB	048H
	DB	042H
	DB	049H
	DB	04aH
	DB	029H
	DB	04aH
	DB	048H
	DB	042H
	DB	049H
	DB	04aH
	DB	049H
	DB	04aH
	DB	049H
	DB	04aH
	DB	049H
	DB	04aH
	DB	0cbH
	DB	05aH
	DB	0ebH
	DB	05aH
	DB	049H
	DB	04aH
	DB	049H
	DB	04aH
	DB	029H
	DB	04aH
	DB	049H
	DB	04aH
	DB	048H
	DB	042H
	DB	029H
	DB	04aH
	DB	049H
	DB	04aH
	DB	048H
	DB	042H
	DB	029H
	DB	04aH
	DB	049H
	DB	04aH
	DB	048H
	DB	042H
	DB	029H
	DB	04aH
	DB	049H
	DB	04aH
	DB	048H
	DB	042H
	DB	029H
	DB	04aH
	DB	049H
	DB	04aH
	DB	048H
	DB	042H
	DB	029H
	DB	04aH
	DB	049H
	DB	04aH
	DB	048H
	DB	042H
	DB	029H
	DB	04aH
	DB	049H
	DB	04aH
	DB	048H
	DB	042H
	DB	029H
	DB	04aH
	DB	049H
	DB	04aH
	DB	048H
	DB	042H
	DB	029H
	DB	04aH
	DB	049H
	DB	04aH
	DB	048H
	DB	042H
	DB	049H
	DB	04aH
	DB	049H
	DB	04aH
	DB	028H
	DB	042H
	DB	049H
	DB	04aH
	DB	049H
	DB	04aH
	DB	049H
	DB	04aH
	DB	029H
	DB	04aH
	DB	08aH
	DB	052H
	DB	0efH
	DB	07bH
	DB	0efH
	DB	07bH
	DB	08aH
	DB	052H
	DB	049H
	DB	04aH
	DB	049H
	DB	04aH
	DB	049H
	DB	04aH
	DB	049H
	DB	04aH
	DB	049H
	DB	04aH
	DB	049H
	DB	04aH
	DB	049H
	DB	04aH
	DB	049H
	DB	04aH
	DB	029H
	DB	04aH
	DB	049H
	DB	04aH
	DB	049H
	DB	04aH
	DB	049H
	DB	04aH
	DB	029H
	DB	04aH
	DB	049H
	DB	04aH
	DB	049H
	DB	04aH
	DB	049H
	DB	04aH
	DB	049H
	DB	04aH
	DB	049H
	DB	04aH
	DB	049H
	DB	04aH
	DB	049H
	DB	04aH
	DB	049H
	DB	04aH
	DB	049H
	DB	04aH
	DB	049H
	DB	04aH
	DB	049H
	DB	04aH
	DB	049H
	DB	04aH
	DB	049H
	DB	04aH
	DB	049H
	DB	04aH
	DB	049H
	DB	04aH
	DB	049H
	DB	04aH
	DB	049H
	DB	04aH
	DB	049H
	DB	04aH
	DB	049H
	DB	04aH
	DB	029H
	DB	04aH
	DB	049H
	DB	04aH
	DB	049H
	DB	04aH
	DB	049H
	DB	04aH
	DB	0cbH
	DB	05aH
	DB	0cbH
	DB	05aH
	DB	049H
	DB	04aH
	DB	049H
	DB	04aH
	DB	049H
	DB	04aH
	DB	049H
	DB	04aH
	DB	049H
	DB	04aH
	DB	049H
	DB	04aH
	DB	049H
	DB	04aH
	DB	049H
	DB	04aH
	DB	049H
	DB	04aH
	DB	049H
	DB	04aH
	DB	049H
	DB	04aH
	DB	049H
	DB	04aH
	DB	049H
	DB	04aH
	DB	049H
	DB	04aH
	DB	049H
	DB	04aH
	DB	049H
	DB	04aH
	DB	049H
	DB	04aH
	DB	049H
	DB	04aH
	DB	049H
	DB	04aH
	DB	049H
	DB	04aH
	DB	049H
	DB	04aH
	DB	049H
	DB	04aH
	DB	049H
	DB	04aH
	DB	049H
	DB	04aH
	DB	049H
	DB	04aH
	DB	049H
	DB	04aH
	DB	049H
	DB	04aH
	DB	049H
	DB	04aH
	DB	049H
	DB	04aH
	DB	049H
	DB	04aH
	DB	049H
	DB	04aH
	DB	029H
	DB	04aH
	DB	049H
	DB	04aH
	DB	049H
	DB	04aH
	DB	029H
	DB	04aH
	DB	049H
	DB	04aH
	DB	0cbH
	DB	05aH
	DB	0cbH
	DB	05aH
	DB	049H
	DB	04aH
	DB	049H
	DB	04aH
	DB	049H
	DB	04aH
	DB	049H
	DB	04aH
	DB	049H
	DB	04aH
	DB	049H
	DB	04aH
	DB	049H
	DB	04aH
	DB	049H
	DB	04aH
	DB	049H
	DB	04aH
	DB	049H
	DB	04aH
	DB	049H
	DB	04aH
	DB	049H
	DB	04aH
	DB	049H
	DB	04aH
	DB	049H
	DB	04aH
	DB	049H
	DB	04aH
	DB	049H
	DB	04aH
	DB	049H
	DB	04aH
	DB	049H
	DB	04aH
	DB	049H
	DB	04aH
	DB	049H
	DB	04aH
	DB	049H
	DB	04aH
	DB	049H
	DB	04aH
	DB	049H
	DB	04aH
	DB	049H
	DB	04aH
	DB	049H
	DB	04aH
	DB	049H
	DB	04aH
	DB	049H
	DB	04aH
	DB	049H
	DB	04aH
	DB	049H
	DB	04aH
	DB	049H
	DB	04aH
	DB	049H
	DB	04aH
	DB	029H
	DB	04aH
	DB	049H
	DB	04aH
	DB	049H
	DB	04aH
	DB	029H
	DB	04aH
	DB	049H
	DB	04aH
	DB	0cbH
	DB	05aH
	DB	0cbH
	DB	05aH
	DB	049H
	DB	04aH
	DB	049H
	DB	04aH
	DB	049H
	DB	04aH
	DB	049H
	DB	04aH
	DB	049H
	DB	04aH
	DB	049H
	DB	04aH
	DB	049H
	DB	04aH
	DB	049H
	DB	04aH
	DB	049H
	DB	04aH
	DB	049H
	DB	04aH
	DB	049H
	DB	04aH
	DB	049H
	DB	04aH
	DB	049H
	DB	04aH
	DB	049H
	DB	04aH
	DB	049H
	DB	04aH
	DB	049H
	DB	04aH
	DB	049H
	DB	04aH
	DB	049H
	DB	04aH
	DB	049H
	DB	04aH
	DB	049H
	DB	04aH
	DB	049H
	DB	04aH
	DB	049H
	DB	04aH
	DB	049H
	DB	04aH
	DB	049H
	DB	04aH
	DB	049H
	DB	04aH
	DB	049H
	DB	04aH
	DB	049H
	DB	04aH
	DB	049H
	DB	04aH
	DB	049H
	DB	04aH
	DB	049H
	DB	04aH
	DB	049H
	DB	04aH
	DB	029H
	DB	04aH
	DB	049H
	DB	04aH
	DB	049H
	DB	04aH
	DB	029H
	DB	04aH
	DB	049H
	DB	04aH
	DB	0cbH
	DB	05aH
	DB	0cbH
	DB	05aH
	DB	049H
	DB	04aH
	DB	049H
	DB	04aH
	DB	049H
	DB	04aH
	DB	049H
	DB	04aH
	DB	049H
	DB	04aH
	DB	049H
	DB	04aH
	DB	049H
	DB	04aH
	DB	049H
	DB	04aH
	DB	049H
	DB	04aH
	DB	049H
	DB	04aH
	DB	049H
	DB	04aH
	DB	049H
	DB	04aH
	DB	049H
	DB	04aH
	DB	049H
	DB	04aH
	DB	049H
	DB	04aH
	DB	049H
	DB	04aH
	DB	049H
	DB	04aH
	DB	049H
	DB	04aH
	DB	049H
	DB	04aH
	DB	049H
	DB	04aH
	DB	049H
	DB	04aH
	DB	049H
	DB	04aH
	DB	049H
	DB	04aH
	DB	049H
	DB	04aH
	DB	049H
	DB	04aH
	DB	049H
	DB	04aH
	DB	049H
	DB	04aH
	DB	049H
	DB	04aH
	DB	049H
	DB	04aH
	DB	049H
	DB	04aH
	DB	049H
	DB	04aH
	DB	029H
	DB	04aH
	DB	049H
	DB	04aH
	DB	049H
	DB	04aH
	DB	029H
	DB	04aH
	DB	049H
	DB	04aH
	DB	0cbH
	DB	05aH
	DB	0cbH
	DB	05aH
	DB	049H
	DB	04aH
	DB	049H
	DB	04aH
	DB	049H
	DB	04aH
	DB	049H
	DB	04aH
	DB	049H
	DB	04aH
	DB	049H
	DB	04aH
	DB	049H
	DB	04aH
	DB	049H
	DB	04aH
	DB	049H
	DB	04aH
	DB	049H
	DB	04aH
	DB	049H
	DB	04aH
	DB	049H
	DB	04aH
	DB	049H
	DB	04aH
	DB	049H
	DB	04aH
	DB	049H
	DB	04aH
	DB	049H
	DB	04aH
	DB	049H
	DB	04aH
	DB	049H
	DB	04aH
	DB	049H
	DB	04aH
	DB	049H
	DB	04aH
	DB	049H
	DB	04aH
	DB	049H
	DB	04aH
	DB	049H
	DB	04aH
	DB	049H
	DB	04aH
	DB	049H
	DB	04aH
	DB	049H
	DB	04aH
	DB	049H
	DB	04aH
	DB	049H
	DB	04aH
	DB	049H
	DB	04aH
	DB	049H
	DB	04aH
	DB	049H
	DB	04aH
	DB	029H
	DB	04aH
	DB	049H
	DB	04aH
	DB	049H
	DB	04aH
	DB	029H
	DB	04aH
	DB	049H
	DB	04aH
	DB	0cbH
	DB	05aH
	DB	0cbH
	DB	05aH
	DB	049H
	DB	04aH
	DB	049H
	DB	04aH
	DB	049H
	DB	04aH
	DB	049H
	DB	04aH
	DB	049H
	DB	04aH
	DB	049H
	DB	04aH
	DB	049H
	DB	04aH
	DB	049H
	DB	04aH
	DB	049H
	DB	04aH
	DB	049H
	DB	04aH
	DB	049H
	DB	04aH
	DB	049H
	DB	04aH
	DB	049H
	DB	04aH
	DB	049H
	DB	04aH
	DB	049H
	DB	04aH
	DB	049H
	DB	04aH
	DB	049H
	DB	04aH
	DB	049H
	DB	04aH
	DB	049H
	DB	04aH
	DB	049H
	DB	04aH
	DB	049H
	DB	04aH
	DB	049H
	DB	04aH
	DB	049H
	DB	04aH
	DB	049H
	DB	04aH
	DB	049H
	DB	04aH
	DB	049H
	DB	04aH
	DB	049H
	DB	04aH
	DB	049H
	DB	04aH
	DB	049H
	DB	04aH
	DB	049H
	DB	04aH
	DB	049H
	DB	04aH
	DB	029H
	DB	04aH
	DB	049H
	DB	04aH
	DB	049H
	DB	04aH
	DB	029H
	DB	04aH
	DB	049H
	DB	04aH
	DB	0cbH
	DB	05aH
	DB	0cbH
	DB	05aH
	DB	049H
	DB	04aH
	DB	049H
	DB	04aH
	DB	049H
	DB	04aH
	DB	049H
	DB	04aH
	DB	049H
	DB	04aH
	DB	049H
	DB	04aH
	DB	049H
	DB	04aH
	DB	049H
	DB	04aH
	DB	049H
	DB	04aH
	DB	049H
	DB	04aH
	DB	049H
	DB	04aH
	DB	049H
	DB	04aH
	DB	049H
	DB	04aH
	DB	049H
	DB	04aH
	DB	049H
	DB	04aH
	DB	049H
	DB	04aH
	DB	049H
	DB	04aH
	DB	049H
	DB	04aH
	DB	049H
	DB	04aH
	DB	049H
	DB	04aH
	DB	049H
	DB	04aH
	DB	049H
	DB	04aH
	DB	049H
	DB	04aH
	DB	049H
	DB	04aH
	DB	049H
	DB	04aH
	DB	049H
	DB	04aH
	DB	049H
	DB	04aH
	DB	049H
	DB	04aH
	DB	029H
	DB	04aH
	DB	049H
	DB	04aH
	DB	049H
	DB	04aH
	DB	049H
	DB	04aH
	DB	049H
	DB	04aH
	DB	048H
	DB	042H
	DB	049H
	DB	04aH
	DB	049H
	DB	04aH
	DB	08aH
	DB	052H
	DB	0efH
	DB	07bH
	DB	0efH
	DB	07bH
	DB	08aH
	DB	052H
	DB	029H
	DB	04aH
	DB	049H
	DB	04aH
	DB	029H
	DB	04aH
	DB	049H
	DB	04aH
	DB	049H
	DB	04aH
	DB	029H
	DB	04aH
	DB	049H
	DB	04aH
	DB	049H
	DB	04aH
	DB	049H
	DB	04aH
	DB	029H
	DB	04aH
	DB	049H
	DB	04aH
	DB	049H
	DB	04aH
	DB	049H
	DB	04aH
	DB	049H
	DB	04aH
	DB	029H
	DB	04aH
	DB	049H
	DB	04aH
	DB	029H
	DB	04aH
	DB	049H
	DB	04aH
	DB	029H
	DB	04aH
	DB	049H
	DB	04aH
	DB	029H
	DB	04aH
	DB	049H
	DB	04aH
	DB	029H
	DB	04aH
	DB	049H
	DB	04aH
	DB	029H
	DB	04aH
	DB	049H
	DB	04aH
	DB	029H
	DB	04aH
	DB	049H
	DB	04aH
	DB	029H
	DB	04aH
	DB	049H
	DB	04aH
	DB	049H
	DB	04aH
	DB	049H
	DB	04aH
	DB	028H
	DB	042H
	DB	049H
	DB	04aH
	DB	049H
	DB	04aH
	DB	029H
	DB	04aH
	DB	0cbH
	DB	05aH
	DB	0ebH
	DB	05aH
	DB	049H
	DB	04aH
	DB	049H
	DB	04aH
	DB	029H
	DB	04aH
	DB	049H
	DB	04aH
	DB	029H
	DB	04aH
	DB	049H
	DB	04aH
	DB	029H
	DB	04aH
	DB	049H
	DB	04aH
	DB	029H
	DB	04aH
	DB	049H
	DB	04aH
	DB	029H
	DB	04aH
	DB	049H
	DB	04aH
	DB	029H
	DB	04aH
	DB	049H
	DB	04aH
	DB	029H
	DB	04aH
	DB	049H
	DB	04aH
	DB	029H
	DB	04aH
	DB	049H
	DB	04aH
	DB	029H
	DB	04aH
	DB	049H
	DB	04aH
	DB	029H
	DB	04aH
	DB	049H
	DB	04aH
	DB	029H
	DB	04aH
	DB	049H
	DB	04aH
	DB	029H
	DB	04aH
	DB	049H
	DB	04aH
	DB	029H
	DB	04aH
	DB	049H
	DB	04aH
	DB	029H
	DB	04aH
	DB	049H
	DB	04aH
	DB	049H
	DB	04aH
	DB	029H
	DB	04aH
	DB	048H
	DB	042H
	DB	049H
	DB	04aH
	DB	049H
	DB	04aH
	DB	049H
	DB	04aH
	DB	0cbH
	DB	05aH
	DB	0ebH
	DB	05aH
	DB	049H
	DB	04aH
	DB	029H
	DB	04aH
	DB	049H
	DB	04aH
	DB	029H
	DB	04aH
	DB	029H
	DB	04aH
	DB	049H
	DB	04aH
	DB	029H
	DB	04aH
	DB	049H
	DB	04aH
	DB	029H
	DB	04aH
	DB	049H
	DB	04aH
	DB	029H
	DB	04aH
	DB	049H
	DB	04aH
	DB	029H
	DB	04aH
	DB	049H
	DB	04aH
	DB	029H
	DB	04aH
	DB	049H
	DB	04aH
	DB	029H
	DB	04aH
	DB	049H
	DB	04aH
	DB	029H
	DB	04aH
	DB	049H
	DB	04aH
	DB	029H
	DB	04aH
	DB	049H
	DB	04aH
	DB	029H
	DB	04aH
	DB	049H
	DB	04aH
	DB	029H
	DB	04aH
	DB	049H
	DB	04aH
	DB	029H
	DB	04aH
	DB	049H
	DB	04aH
	DB	029H
	DB	04aH
	DB	049H
	DB	04aH
	DB	049H
	DB	04aH
	DB	029H
	DB	04aH
	DB	048H
	DB	042H
	DB	049H
	DB	04aH
	DB	049H
	DB	04aH
	DB	049H
	DB	04aH
	DB	0cbH
	DB	05aH
	DB	0ebH
	DB	05aH
	DB	049H
	DB	04aH
	DB	029H
	DB	04aH
	DB	049H
	DB	04aH
	DB	029H
	DB	04aH
	DB	029H
	DB	04aH
	DB	049H
	DB	04aH
	DB	029H
	DB	04aH
	DB	049H
	DB	04aH
	DB	029H
	DB	04aH
	DB	049H
	DB	04aH
	DB	029H
	DB	04aH
	DB	049H
	DB	04aH
	DB	029H
	DB	04aH
	DB	049H
	DB	04aH
	DB	029H
	DB	04aH
	DB	049H
	DB	04aH
	DB	029H
	DB	04aH
	DB	049H
	DB	04aH
	DB	029H
	DB	04aH
	DB	049H
	DB	04aH
	DB	029H
	DB	04aH
	DB	049H
	DB	04aH
	DB	029H
	DB	04aH
	DB	049H
	DB	04aH
	DB	029H
	DB	04aH
	DB	049H
	DB	04aH
	DB	029H
	DB	04aH
	DB	049H
	DB	04aH
	DB	029H
	DB	04aH
	DB	049H
	DB	04aH
	DB	049H
	DB	04aH
	DB	029H
	DB	04aH
	DB	048H
	DB	042H
	DB	049H
	DB	04aH
	DB	049H
	DB	04aH
	DB	049H
	DB	04aH
	DB	0cbH
	DB	05aH
	DB	0ebH
	DB	05aH
	DB	049H
	DB	04aH
	DB	029H
	DB	04aH
	DB	049H
	DB	04aH
	DB	029H
	DB	04aH
	DB	029H
	DB	04aH
	DB	049H
	DB	04aH
	DB	029H
	DB	04aH
	DB	049H
	DB	04aH
	DB	029H
	DB	04aH
	DB	049H
	DB	04aH
	DB	029H
	DB	04aH
	DB	049H
	DB	04aH
	DB	029H
	DB	04aH
	DB	049H
	DB	04aH
	DB	029H
	DB	04aH
	DB	049H
	DB	04aH
	DB	029H
	DB	04aH
	DB	049H
	DB	04aH
	DB	029H
	DB	04aH
	DB	049H
	DB	04aH
	DB	029H
	DB	04aH
	DB	049H
	DB	04aH
	DB	029H
	DB	04aH
	DB	049H
	DB	04aH
	DB	029H
	DB	04aH
	DB	049H
	DB	04aH
	DB	029H
	DB	04aH
	DB	049H
	DB	04aH
	DB	029H
	DB	04aH
	DB	049H
	DB	04aH
	DB	049H
	DB	04aH
	DB	029H
	DB	04aH
	DB	048H
	DB	042H
	DB	049H
	DB	04aH
	DB	049H
	DB	04aH
	DB	049H
	DB	04aH
	DB	0cbH
	DB	05aH
	DB	0ebH
	DB	05aH
	DB	049H
	DB	04aH
	DB	029H
	DB	04aH
	DB	049H
	DB	04aH
	DB	029H
	DB	04aH
	DB	029H
	DB	04aH
	DB	049H
	DB	04aH
	DB	029H
	DB	04aH
	DB	049H
	DB	04aH
	DB	029H
	DB	04aH
	DB	049H
	DB	04aH
	DB	029H
	DB	04aH
	DB	049H
	DB	04aH
	DB	029H
	DB	04aH
	DB	049H
	DB	04aH
	DB	029H
	DB	04aH
	DB	049H
	DB	04aH
	DB	029H
	DB	04aH
	DB	049H
	DB	04aH
	DB	029H
	DB	04aH
	DB	049H
	DB	04aH
	DB	029H
	DB	04aH
	DB	049H
	DB	04aH
	DB	029H
	DB	04aH
	DB	049H
	DB	04aH
	DB	029H
	DB	04aH
	DB	049H
	DB	04aH
	DB	029H
	DB	04aH
	DB	049H
	DB	04aH
	DB	029H
	DB	04aH
	DB	049H
	DB	04aH
	DB	049H
	DB	04aH
	DB	029H
	DB	04aH
	DB	048H
	DB	042H
	DB	049H
	DB	04aH
	DB	049H
	DB	04aH
	DB	049H
	DB	04aH
	DB	0cbH
	DB	05aH
	DB	0ebH
	DB	05aH
	DB	049H
	DB	04aH
	DB	029H
	DB	04aH
	DB	049H
	DB	04aH
	DB	029H
	DB	04aH
	DB	029H
	DB	04aH
	DB	049H
	DB	04aH
	DB	029H
	DB	04aH
	DB	049H
	DB	04aH
	DB	029H
	DB	04aH
	DB	049H
	DB	04aH
	DB	029H
	DB	04aH
	DB	049H
	DB	04aH
	DB	029H
	DB	04aH
	DB	049H
	DB	04aH
	DB	029H
	DB	04aH
	DB	049H
	DB	04aH
	DB	029H
	DB	04aH
	DB	049H
	DB	04aH
	DB	029H
	DB	04aH
	DB	049H
	DB	04aH
	DB	029H
	DB	04aH
	DB	049H
	DB	04aH
	DB	029H
	DB	04aH
	DB	049H
	DB	04aH
	DB	029H
	DB	04aH
	DB	049H
	DB	04aH
	DB	029H
	DB	04aH
	DB	049H
	DB	04aH
	DB	029H
	DB	04aH
	DB	049H
	DB	04aH
	DB	049H
	DB	04aH
	DB	029H
	DB	04aH
	DB	048H
	DB	042H
	DB	049H
	DB	04aH
	DB	049H
	DB	04aH
	DB	049H
	DB	04aH
	DB	0cbH
	DB	05aH
	DB	0ebH
	DB	05aH
	DB	049H
	DB	04aH
	DB	029H
	DB	04aH
	DB	049H
	DB	04aH
	DB	029H
	DB	04aH
	DB	029H
	DB	04aH
	DB	049H
	DB	04aH
	DB	029H
	DB	04aH
	DB	049H
	DB	04aH
	DB	029H
	DB	04aH
	DB	049H
	DB	04aH
	DB	029H
	DB	04aH
	DB	049H
	DB	04aH
	DB	029H
	DB	04aH
	DB	049H
	DB	04aH
	DB	029H
	DB	04aH
	DB	049H
	DB	04aH
	DB	029H
	DB	04aH
	DB	049H
	DB	04aH
	DB	029H
	DB	04aH
	DB	049H
	DB	04aH
	DB	029H
	DB	04aH
	DB	049H
	DB	04aH
	DB	029H
	DB	04aH
	DB	049H
	DB	04aH
	DB	029H
	DB	04aH
	DB	049H
	DB	04aH
	DB	049H
	DB	04aH
	DB	029H
	DB	04aH
	DB	049H
	DB	04aH
	DB	049H
	DB	04aH
	DB	029H
	DB	04aH
	DB	049H
	DB	04aH
	DB	029H
	DB	04aH
	DB	029H
	DB	04aH
	DB	049H
	DB	04aH
	DB	049H
	DB	04aH
	DB	08aH
	DB	052H
	DB	0cfH
	DB	07bH
	DB	0efH
	DB	07bH
	DB	08aH
	DB	052H
	DB	049H
	DB	04aH
	DB	049H
	DB	04aH
	DB	029H
	DB	04aH
	DB	048H
	DB	042H
	DB	049H
	DB	04aH
	DB	029H
	DB	04aH
	DB	048H
	DB	042H
	DB	049H
	DB	04aH
	DB	049H
	DB	04aH
	DB	048H
	DB	042H
	DB	029H
	DB	04aH
	DB	049H
	DB	04aH
	DB	048H
	DB	042H
	DB	029H
	DB	04aH
	DB	049H
	DB	04aH
	DB	048H
	DB	042H
	DB	049H
	DB	04aH
	DB	029H
	DB	04aH
	DB	048H
	DB	042H
	DB	049H
	DB	04aH
	DB	049H
	DB	04aH
	DB	028H
	DB	042H
	DB	049H
	DB	04aH
	DB	049H
	DB	04aH
	DB	048H
	DB	042H
	DB	029H
	DB	04aH
	DB	049H
	DB	04aH
	DB	048H
	DB	042H
	DB	049H
	DB	04aH
	DB	029H
	DB	04aH
	DB	048H
	DB	042H
	DB	049H
	DB	04aH
	DB	049H
	DB	04aH
	DB	029H
	DB	04aH
	DB	049H
	DB	04aH
	DB	049H
	DB	04aH
	DB	0cbH
	DB	05aH
	DB	0ebH
	DB	05aH
	DB	049H
	DB	04aH
	DB	029H
	DB	04aH
	DB	049H
	DB	04aH
	DB	049H
	DB	04aH
	DB	048H
	DB	042H
	DB	029H
	DB	04aH
	DB	049H
	DB	04aH
	DB	048H
	DB	042H
	DB	049H
	DB	04aH
	DB	029H
	DB	04aH
	DB	048H
	DB	042H
	DB	049H
	DB	04aH
	DB	049H
	DB	04aH
	DB	028H
	DB	042H
	DB	049H
	DB	04aH
	DB	049H
	DB	04aH
	DB	048H
	DB	042H
	DB	029H
	DB	04aH
	DB	049H
	DB	04aH
	DB	048H
	DB	042H
	DB	049H
	DB	04aH
	DB	029H
	DB	04aH
	DB	048H
	DB	042H
	DB	049H
	DB	04aH
	DB	049H
	DB	04aH
	DB	028H
	DB	042H
	DB	049H
	DB	04aH
	DB	049H
	DB	04aH
	DB	028H
	DB	042H
	DB	049H
	DB	04aH
	DB	049H
	DB	04aH
	DB	049H
	DB	04aH
	DB	029H
	DB	04aH
	DB	049H
	DB	04aH
	DB	049H
	DB	04aH
	DB	049H
	DB	04aH
	DB	0cbH
	DB	05aH
	DB	0ebH
	DB	05aH
	DB	049H
	DB	04aH
	DB	049H
	DB	04aH
	DB	049H
	DB	04aH
	DB	049H
	DB	04aH
	DB	048H
	DB	042H
	DB	049H
	DB	04aH
	DB	049H
	DB	04aH
	DB	028H
	DB	042H
	DB	049H
	DB	04aH
	DB	049H
	DB	04aH
	DB	048H
	DB	042H
	DB	029H
	DB	04aH
	DB	049H
	DB	04aH
	DB	048H
	DB	042H
	DB	049H
	DB	04aH
	DB	029H
	DB	04aH
	DB	048H
	DB	042H
	DB	049H
	DB	04aH
	DB	049H
	DB	04aH
	DB	028H
	DB	042H
	DB	049H
	DB	04aH
	DB	049H
	DB	04aH
	DB	048H
	DB	042H
	DB	029H
	DB	04aH
	DB	049H
	DB	04aH
	DB	048H
	DB	042H
	DB	049H
	DB	04aH
	DB	029H
	DB	04aH
	DB	048H
	DB	042H
	DB	049H
	DB	04aH
	DB	049H
	DB	04aH
	DB	049H
	DB	04aH
	DB	029H
	DB	04aH
	DB	049H
	DB	04aH
	DB	049H
	DB	04aH
	DB	049H
	DB	04aH
	DB	0cbH
	DB	05aH
	DB	0ebH
	DB	05aH
	DB	049H
	DB	04aH
	DB	049H
	DB	04aH
	DB	049H
	DB	04aH
	DB	049H
	DB	04aH
	DB	048H
	DB	042H
	DB	049H
	DB	04aH
	DB	049H
	DB	04aH
	DB	028H
	DB	042H
	DB	049H
	DB	04aH
	DB	049H
	DB	04aH
	DB	048H
	DB	042H
	DB	029H
	DB	04aH
	DB	049H
	DB	04aH
	DB	048H
	DB	042H
	DB	049H
	DB	04aH
	DB	029H
	DB	04aH
	DB	048H
	DB	042H
	DB	049H
	DB	04aH
	DB	049H
	DB	04aH
	DB	028H
	DB	042H
	DB	049H
	DB	04aH
	DB	049H
	DB	04aH
	DB	048H
	DB	042H
	DB	029H
	DB	04aH
	DB	049H
	DB	04aH
	DB	048H
	DB	042H
	DB	049H
	DB	04aH
	DB	029H
	DB	04aH
	DB	048H
	DB	042H
	DB	049H
	DB	04aH
	DB	049H
	DB	04aH
	DB	049H
	DB	04aH
	DB	029H
	DB	04aH
	DB	049H
	DB	04aH
	DB	049H
	DB	04aH
	DB	049H
	DB	04aH
	DB	0cbH
	DB	05aH
	DB	0ebH
	DB	05aH
	DB	049H
	DB	04aH
	DB	049H
	DB	04aH
	DB	049H
	DB	04aH
	DB	049H
	DB	04aH
	DB	048H
	DB	042H
	DB	049H
	DB	04aH
	DB	049H
	DB	04aH
	DB	028H
	DB	042H
	DB	049H
	DB	04aH
	DB	049H
	DB	04aH
	DB	048H
	DB	042H
	DB	029H
	DB	04aH
	DB	049H
	DB	04aH
	DB	048H
	DB	042H
	DB	049H
	DB	04aH
	DB	029H
	DB	04aH
	DB	048H
	DB	042H
	DB	049H
	DB	04aH
	DB	049H
	DB	04aH
	DB	028H
	DB	042H
	DB	049H
	DB	04aH
	DB	049H
	DB	04aH
	DB	048H
	DB	042H
	DB	029H
	DB	04aH
	DB	049H
	DB	04aH
	DB	048H
	DB	042H
	DB	049H
	DB	04aH
	DB	029H
	DB	04aH
	DB	048H
	DB	042H
	DB	049H
	DB	04aH
	DB	049H
	DB	04aH
	DB	049H
	DB	04aH
	DB	029H
	DB	04aH
	DB	049H
	DB	04aH
	DB	049H
	DB	04aH
	DB	049H
	DB	04aH
	DB	0cbH
	DB	05aH
	DB	0ebH
	DB	05aH
	DB	049H
	DB	04aH
	DB	049H
	DB	04aH
	DB	049H
	DB	04aH
	DB	049H
	DB	04aH
	DB	048H
	DB	042H
	DB	049H
	DB	04aH
	DB	049H
	DB	04aH
	DB	028H
	DB	042H
	DB	049H
	DB	04aH
	DB	049H
	DB	04aH
	DB	048H
	DB	042H
	DB	029H
	DB	04aH
	DB	049H
	DB	04aH
	DB	048H
	DB	042H
	DB	049H
	DB	04aH
	DB	029H
	DB	04aH
	DB	048H
	DB	042H
	DB	049H
	DB	04aH
	DB	049H
	DB	04aH
	DB	028H
	DB	042H
	DB	049H
	DB	04aH
	DB	049H
	DB	04aH
	DB	048H
	DB	042H
	DB	029H
	DB	04aH
	DB	049H
	DB	04aH
	DB	048H
	DB	042H
	DB	049H
	DB	04aH
	DB	029H
	DB	04aH
	DB	048H
	DB	042H
	DB	049H
	DB	04aH
	DB	049H
	DB	04aH
	DB	049H
	DB	04aH
	DB	029H
	DB	04aH
	DB	049H
	DB	04aH
	DB	049H
	DB	04aH
	DB	049H
	DB	04aH
	DB	0cbH
	DB	05aH
	DB	0ebH
	DB	05aH
	DB	049H
	DB	04aH
	DB	049H
	DB	04aH
	DB	049H
	DB	04aH
	DB	049H
	DB	04aH
	DB	048H
	DB	042H
	DB	049H
	DB	04aH
	DB	049H
	DB	04aH
	DB	028H
	DB	042H
	DB	049H
	DB	04aH
	DB	049H
	DB	04aH
	DB	048H
	DB	042H
	DB	029H
	DB	04aH
	DB	049H
	DB	04aH
	DB	048H
	DB	042H
	DB	049H
	DB	04aH
	DB	029H
	DB	04aH
	DB	048H
	DB	042H
	DB	049H
	DB	04aH
	DB	049H
	DB	04aH
	DB	028H
	DB	042H
	DB	049H
	DB	04aH
	DB	049H
	DB	04aH
	DB	048H
	DB	042H
	DB	029H
	DB	04aH
	DB	049H
	DB	04aH
	DB	048H
	DB	042H
	DB	049H
	DB	04aH
	DB	029H
	DB	04aH
	DB	048H
	DB	042H
	DB	049H
	DB	04aH
	DB	049H
	DB	04aH
	DB	049H
	DB	04aH
	DB	029H
	DB	04aH
	DB	049H
	DB	04aH
	DB	049H
	DB	04aH
	DB	049H
	DB	04aH
	DB	0cbH
	DB	05aH
	DB	0ebH
	DB	05aH
	DB	049H
	DB	04aH
	DB	049H
	DB	04aH
	DB	049H
	DB	04aH
	DB	049H
	DB	04aH
	DB	048H
	DB	042H
	DB	049H
	DB	04aH
	DB	049H
	DB	04aH
	DB	028H
	DB	042H
	DB	049H
	DB	04aH
	DB	049H
	DB	04aH
	DB	048H
	DB	042H
	DB	029H
	DB	04aH
	DB	049H
	DB	04aH
	DB	048H
	DB	042H
	DB	049H
	DB	04aH
	DB	029H
	DB	04aH
	DB	048H
	DB	042H
	DB	049H
	DB	04aH
	DB	049H
	DB	04aH
	DB	028H
	DB	042H
	DB	049H
	DB	04aH
	DB	049H
	DB	04aH
	DB	048H
	DB	042H
	DB	029H
	DB	04aH
	DB	049H
	DB	04aH
	DB	048H
	DB	042H
	DB	029H
	DB	04aH
	DB	049H
	DB	04aH
	DB	048H
	DB	042H
	DB	049H
	DB	04aH
	DB	049H
	DB	04aH
	DB	048H
	DB	042H
	DB	049H
	DB	04aH
	DB	049H
	DB	04aH
	DB	029H
	DB	04aH
	DB	049H
	DB	04aH
	DB	08aH
	DB	052H
	DB	0efH
	DB	07bH
	DB	0efH
	DB	07bH
	DB	08aH
	DB	052H
	DB	049H
	DB	04aH
	DB	049H
	DB	04aH
	DB	049H
	DB	04aH
	DB	049H
	DB	04aH
	DB	049H
	DB	04aH
	DB	049H
	DB	04aH
	DB	029H
	DB	04aH
	DB	049H
	DB	04aH
	DB	029H
	DB	04aH
	DB	049H
	DB	04aH
	DB	049H
	DB	04aH
	DB	049H
	DB	04aH
	DB	029H
	DB	04aH
	DB	049H
	DB	04aH
	DB	049H
	DB	04aH
	DB	049H
	DB	04aH
	DB	049H
	DB	04aH
	DB	049H
	DB	04aH
	DB	049H
	DB	04aH
	DB	049H
	DB	04aH
	DB	049H
	DB	04aH
	DB	049H
	DB	04aH
	DB	049H
	DB	04aH
	DB	049H
	DB	04aH
	DB	049H
	DB	04aH
	DB	049H
	DB	04aH
	DB	049H
	DB	04aH
	DB	049H
	DB	04aH
	DB	049H
	DB	04aH
	DB	029H
	DB	04aH
	DB	049H
	DB	04aH
	DB	049H
	DB	04aH
	DB	049H
	DB	04aH
	DB	049H
	DB	04aH
	DB	049H
	DB	04aH
	DB	049H
	DB	04aH
	DB	0cbH
	DB	05aH
	DB	0cbH
	DB	05aH
	DB	049H
	DB	04aH
	DB	049H
	DB	04aH
	DB	049H
	DB	04aH
	DB	049H
	DB	04aH
	DB	049H
	DB	04aH
	DB	049H
	DB	04aH
	DB	049H
	DB	04aH
	DB	049H
	DB	04aH
	DB	049H
	DB	04aH
	DB	049H
	DB	04aH
	DB	049H
	DB	04aH
	DB	049H
	DB	04aH
	DB	049H
	DB	04aH
	DB	049H
	DB	04aH
	DB	049H
	DB	04aH
	DB	049H
	DB	04aH
	DB	049H
	DB	04aH
	DB	049H
	DB	04aH
	DB	049H
	DB	04aH
	DB	049H
	DB	04aH
	DB	049H
	DB	04aH
	DB	049H
	DB	04aH
	DB	049H
	DB	04aH
	DB	049H
	DB	04aH
	DB	049H
	DB	04aH
	DB	049H
	DB	04aH
	DB	049H
	DB	04aH
	DB	049H
	DB	04aH
	DB	049H
	DB	04aH
	DB	048H
	DB	042H
	DB	049H
	DB	04aH
	DB	049H
	DB	04aH
	DB	029H
	DB	04aH
	DB	048H
	DB	042H
	DB	049H
	DB	04aH
	DB	029H
	DB	04aH
	DB	0cbH
	DB	05aH
	DB	0cbH
	DB	05aH
	DB	049H
	DB	04aH
	DB	049H
	DB	04aH
	DB	029H
	DB	04aH
	DB	049H
	DB	04aH
	DB	049H
	DB	04aH
	DB	049H
	DB	04aH
	DB	049H
	DB	04aH
	DB	049H
	DB	04aH
	DB	049H
	DB	04aH
	DB	049H
	DB	04aH
	DB	049H
	DB	04aH
	DB	049H
	DB	04aH
	DB	049H
	DB	04aH
	DB	049H
	DB	04aH
	DB	049H
	DB	04aH
	DB	049H
	DB	04aH
	DB	049H
	DB	04aH
	DB	049H
	DB	04aH
	DB	049H
	DB	04aH
	DB	049H
	DB	04aH
	DB	049H
	DB	04aH
	DB	049H
	DB	04aH
	DB	049H
	DB	04aH
	DB	049H
	DB	04aH
	DB	049H
	DB	04aH
	DB	049H
	DB	04aH
	DB	049H
	DB	04aH
	DB	049H
	DB	04aH
	DB	049H
	DB	04aH
	DB	028H
	DB	042H
	DB	049H
	DB	04aH
	DB	049H
	DB	04aH
	DB	049H
	DB	04aH
	DB	028H
	DB	042H
	DB	049H
	DB	04aH
	DB	049H
	DB	04aH
	DB	0cbH
	DB	05aH
	DB	0cbH
	DB	05aH
	DB	049H
	DB	04aH
	DB	049H
	DB	04aH
	DB	029H
	DB	04aH
	DB	049H
	DB	04aH
	DB	049H
	DB	04aH
	DB	049H
	DB	04aH
	DB	049H
	DB	04aH
	DB	049H
	DB	04aH
	DB	049H
	DB	04aH
	DB	049H
	DB	04aH
	DB	049H
	DB	04aH
	DB	049H
	DB	04aH
	DB	049H
	DB	04aH
	DB	049H
	DB	04aH
	DB	049H
	DB	04aH
	DB	049H
	DB	04aH
	DB	049H
	DB	04aH
	DB	049H
	DB	04aH
	DB	049H
	DB	04aH
	DB	049H
	DB	04aH
	DB	049H
	DB	04aH
	DB	049H
	DB	04aH
	DB	049H
	DB	04aH
	DB	049H
	DB	04aH
	DB	049H
	DB	04aH
	DB	049H
	DB	04aH
	DB	049H
	DB	04aH
	DB	049H
	DB	04aH
	DB	049H
	DB	04aH
	DB	028H
	DB	042H
	DB	049H
	DB	04aH
	DB	049H
	DB	04aH
	DB	049H
	DB	04aH
	DB	028H
	DB	042H
	DB	049H
	DB	04aH
	DB	049H
	DB	04aH
	DB	0cbH
	DB	05aH
	DB	0cbH
	DB	05aH
	DB	049H
	DB	04aH
	DB	049H
	DB	04aH
	DB	029H
	DB	04aH
	DB	049H
	DB	04aH
	DB	049H
	DB	04aH
	DB	049H
	DB	04aH
	DB	049H
	DB	04aH
	DB	049H
	DB	04aH
	DB	049H
	DB	04aH
	DB	049H
	DB	04aH
	DB	049H
	DB	04aH
	DB	049H
	DB	04aH
	DB	049H
	DB	04aH
	DB	049H
	DB	04aH
	DB	049H
	DB	04aH
	DB	049H
	DB	04aH
	DB	049H
	DB	04aH
	DB	049H
	DB	04aH
	DB	049H
	DB	04aH
	DB	049H
	DB	04aH
	DB	049H
	DB	04aH
	DB	049H
	DB	04aH
	DB	049H
	DB	04aH
	DB	049H
	DB	04aH
	DB	049H
	DB	04aH
	DB	049H
	DB	04aH
	DB	049H
	DB	04aH
	DB	049H
	DB	04aH
	DB	049H
	DB	04aH
	DB	028H
	DB	042H
	DB	049H
	DB	04aH
	DB	049H
	DB	04aH
	DB	049H
	DB	04aH
	DB	028H
	DB	042H
	DB	049H
	DB	04aH
	DB	049H
	DB	04aH
	DB	0cbH
	DB	05aH
	DB	0cbH
	DB	05aH
	DB	049H
	DB	04aH
	DB	049H
	DB	04aH
	DB	029H
	DB	04aH
	DB	049H
	DB	04aH
	DB	049H
	DB	04aH
	DB	049H
	DB	04aH
	DB	049H
	DB	04aH
	DB	049H
	DB	04aH
	DB	049H
	DB	04aH
	DB	049H
	DB	04aH
	DB	049H
	DB	04aH
	DB	049H
	DB	04aH
	DB	049H
	DB	04aH
	DB	049H
	DB	04aH
	DB	049H
	DB	04aH
	DB	049H
	DB	04aH
	DB	049H
	DB	04aH
	DB	049H
	DB	04aH
	DB	049H
	DB	04aH
	DB	049H
	DB	04aH
	DB	049H
	DB	04aH
	DB	049H
	DB	04aH
	DB	049H
	DB	04aH
	DB	049H
	DB	04aH
	DB	049H
	DB	04aH
	DB	049H
	DB	04aH
	DB	049H
	DB	04aH
	DB	049H
	DB	04aH
	DB	049H
	DB	04aH
	DB	028H
	DB	042H
	DB	049H
	DB	04aH
	DB	049H
	DB	04aH
	DB	049H
	DB	04aH
	DB	028H
	DB	042H
	DB	049H
	DB	04aH
	DB	049H
	DB	04aH
	DB	0cbH
	DB	05aH
	DB	0cbH
	DB	05aH
	DB	049H
	DB	04aH
	DB	049H
	DB	04aH
	DB	029H
	DB	04aH
	DB	049H
	DB	04aH
	DB	049H
	DB	04aH
	DB	049H
	DB	04aH
	DB	049H
	DB	04aH
	DB	049H
	DB	04aH
	DB	049H
	DB	04aH
	DB	049H
	DB	04aH
	DB	049H
	DB	04aH
	DB	049H
	DB	04aH
	DB	049H
	DB	04aH
	DB	049H
	DB	04aH
	DB	049H
	DB	04aH
	DB	049H
	DB	04aH
	DB	049H
	DB	04aH
	DB	049H
	DB	04aH
	DB	049H
	DB	04aH
	DB	049H
	DB	04aH
	DB	049H
	DB	04aH
	DB	049H
	DB	04aH
	DB	049H
	DB	04aH
	DB	049H
	DB	04aH
	DB	049H
	DB	04aH
	DB	049H
	DB	04aH
	DB	049H
	DB	04aH
	DB	049H
	DB	04aH
	DB	049H
	DB	04aH
	DB	028H
	DB	042H
	DB	049H
	DB	04aH
	DB	049H
	DB	04aH
	DB	049H
	DB	04aH
	DB	028H
	DB	042H
	DB	049H
	DB	04aH
	DB	049H
	DB	04aH
	DB	0cbH
	DB	05aH
	DB	0cbH
	DB	05aH
	DB	049H
	DB	04aH
	DB	049H
	DB	04aH
	DB	029H
	DB	04aH
	DB	049H
	DB	04aH
	DB	049H
	DB	04aH
	DB	049H
	DB	04aH
	DB	049H
	DB	04aH
	DB	049H
	DB	04aH
	DB	049H
	DB	04aH
	DB	049H
	DB	04aH
	DB	049H
	DB	04aH
	DB	049H
	DB	04aH
	DB	049H
	DB	04aH
	DB	049H
	DB	04aH
	DB	049H
	DB	04aH
	DB	049H
	DB	04aH
	DB	049H
	DB	04aH
	DB	049H
	DB	04aH
	DB	049H
	DB	04aH
	DB	049H
	DB	04aH
	DB	049H
	DB	04aH
	DB	049H
	DB	04aH
	DB	049H
	DB	04aH
	DB	049H
	DB	04aH
	DB	049H
	DB	04aH
	DB	049H
	DB	04aH
	DB	049H
	DB	04aH
	DB	049H
	DB	04aH
	DB	029H
	DB	04aH
	DB	049H
	DB	04aH
	DB	029H
	DB	04aH
	DB	049H
	DB	04aH
	DB	049H
	DB	04aH
	DB	049H
	DB	04aH
	DB	048H
	DB	042H
	DB	029H
	DB	04aH
	DB	08aH
	DB	052H
	DB	0efH
	DB	07bH
	DB	0cfH
	DB	07bH
	DB	08aH
	DB	052H
	DB	029H
	DB	04aH
	DB	049H
	DB	04aH
	DB	029H
	DB	04aH
	DB	049H
	DB	04aH
	DB	049H
	DB	04aH
	DB	028H
	DB	042H
	DB	049H
	DB	04aH
	DB	049H
	DB	04aH
	DB	049H
	DB	04aH
	DB	029H
	DB	04aH
	DB	048H
	DB	042H
	DB	049H
	DB	04aH
	DB	049H
	DB	04aH
	DB	048H
	DB	042H
	DB	029H
	DB	04aH
	DB	049H
	DB	04aH
	DB	029H
	DB	04aH
	DB	048H
	DB	042H
	DB	029H
	DB	04aH
	DB	029H
	DB	04aH
	DB	048H
	DB	042H
	DB	049H
	DB	04aH
	DB	029H
	DB	04aH
	DB	029H
	DB	04aH
	DB	049H
	DB	04aH
	DB	048H
	DB	042H
	DB	029H
	DB	04aH
	DB	049H
	DB	04aH
	DB	049H
	DB	04aH
	DB	049H
	DB	04aH
	DB	029H
	DB	04aH
	DB	049H
	DB	04aH
	DB	028H
	DB	042H
	DB	049H
	DB	04aH
	DB	049H
	DB	04aH
	DB	049H
	DB	04aH
	DB	0cbH
	DB	05aH
	DB	0ebH
	DB	05aH
	DB	049H
	DB	04aH
	DB	049H
	DB	04aH
	DB	029H
	DB	04aH
	DB	029H
	DB	04aH
	DB	049H
	DB	04aH
	DB	049H
	DB	04aH
	DB	029H
	DB	04aH
	DB	029H
	DB	04aH
	DB	048H
	DB	042H
	DB	049H
	DB	04aH
	DB	029H
	DB	04aH
	DB	029H
	DB	04aH
	DB	048H
	DB	042H
	DB	049H
	DB	04aH
	DB	029H
	DB	04aH
	DB	028H
	DB	042H
	DB	049H
	DB	04aH
	DB	049H
	DB	04aH
	DB	029H
	DB	04aH
	DB	029H
	DB	04aH
	DB	048H
	DB	042H
	DB	049H
	DB	04aH
	DB	029H
	DB	04aH
	DB	028H
	DB	042H
	DB	049H
	DB	04aH
	DB	049H
	DB	04aH
	DB	029H
	DB	04aH
	DB	049H
	DB	04aH
	DB	049H
	DB	04aH
	DB	029H
	DB	04aH
	DB	049H
	DB	04aH
	DB	049H
	DB	04aH
	DB	049H
	DB	04aH
	DB	049H
	DB	04aH
	DB	049H
	DB	04aH
	DB	049H
	DB	04aH
	DB	0cbH
	DB	05aH
	DB	0ebH
	DB	05aH
	DB	049H
	DB	04aH
	DB	029H
	DB	04aH
	DB	049H
	DB	04aH
	DB	049H
	DB	04aH
	DB	029H
	DB	04aH
	DB	029H
	DB	04aH
	DB	049H
	DB	04aH
	DB	049H
	DB	04aH
	DB	028H
	DB	042H
	DB	029H
	DB	04aH
	DB	049H
	DB	04aH
	DB	049H
	DB	04aH
	DB	028H
	DB	042H
	DB	029H
	DB	04aH
	DB	049H
	DB	04aH
	DB	048H
	DB	042H
	DB	029H
	DB	04aH
	DB	029H
	DB	04aH
	DB	049H
	DB	04aH
	DB	049H
	DB	04aH
	DB	028H
	DB	042H
	DB	029H
	DB	04aH
	DB	049H
	DB	04aH
	DB	048H
	DB	042H
	DB	029H
	DB	04aH
	DB	029H
	DB	04aH
	DB	049H
	DB	04aH
	DB	049H
	DB	04aH
	DB	029H
	DB	04aH
	DB	049H
	DB	04aH
	DB	049H
	DB	04aH
	DB	029H
	DB	04aH
	DB	049H
	DB	04aH
	DB	049H
	DB	04aH
	DB	029H
	DB	04aH
	DB	049H
	DB	04aH
	DB	0cbH
	DB	05aH
	DB	0cbH
	DB	05aH
	DB	049H
	DB	04aH
	DB	049H
	DB	04aH
	DB	029H
	DB	04aH
	DB	049H
	DB	04aH
	DB	029H
	DB	04aH
	DB	029H
	DB	04aH
	DB	049H
	DB	04aH
	DB	049H
	DB	04aH
	DB	028H
	DB	042H
	DB	029H
	DB	04aH
	DB	049H
	DB	04aH
	DB	049H
	DB	04aH
	DB	028H
	DB	042H
	DB	029H
	DB	04aH
	DB	049H
	DB	04aH
	DB	048H
	DB	042H
	DB	029H
	DB	04aH
	DB	029H
	DB	04aH
	DB	049H
	DB	04aH
	DB	049H
	DB	04aH
	DB	028H
	DB	042H
	DB	029H
	DB	04aH
	DB	049H
	DB	04aH
	DB	048H
	DB	042H
	DB	029H
	DB	04aH
	DB	029H
	DB	04aH
	DB	049H
	DB	04aH
	DB	049H
	DB	04aH
	DB	029H
	DB	04aH
	DB	049H
	DB	04aH
	DB	049H
	DB	04aH
	DB	029H
	DB	04aH
	DB	049H
	DB	04aH
	DB	049H
	DB	04aH
	DB	029H
	DB	04aH
	DB	049H
	DB	04aH
	DB	0cbH
	DB	05aH
	DB	0cbH
	DB	05aH
	DB	049H
	DB	04aH
	DB	049H
	DB	04aH
	DB	029H
	DB	04aH
	DB	049H
	DB	04aH
	DB	029H
	DB	04aH
	DB	029H
	DB	04aH
	DB	049H
	DB	04aH
	DB	049H
	DB	04aH
	DB	028H
	DB	042H
	DB	029H
	DB	04aH
	DB	049H
	DB	04aH
	DB	049H
	DB	04aH
	DB	028H
	DB	042H
	DB	029H
	DB	04aH
	DB	049H
	DB	04aH
	DB	048H
	DB	042H
	DB	029H
	DB	04aH
	DB	029H
	DB	04aH
	DB	049H
	DB	04aH
	DB	049H
	DB	04aH
	DB	028H
	DB	042H
	DB	029H
	DB	04aH
	DB	049H
	DB	04aH
	DB	048H
	DB	042H
	DB	029H
	DB	04aH
	DB	029H
	DB	04aH
	DB	049H
	DB	04aH
	DB	049H
	DB	04aH
	DB	029H
	DB	04aH
	DB	049H
	DB	04aH
	DB	049H
	DB	04aH
	DB	029H
	DB	04aH
	DB	049H
	DB	04aH
	DB	049H
	DB	04aH
	DB	029H
	DB	04aH
	DB	049H
	DB	04aH
	DB	0cbH
	DB	05aH
	DB	0cbH
	DB	05aH
	DB	049H
	DB	04aH
	DB	049H
	DB	04aH
	DB	029H
	DB	04aH
	DB	049H
	DB	04aH
	DB	029H
	DB	04aH
	DB	029H
	DB	04aH
	DB	049H
	DB	04aH
	DB	049H
	DB	04aH
	DB	028H
	DB	042H
	DB	029H
	DB	04aH
	DB	049H
	DB	04aH
	DB	049H
	DB	04aH
	DB	028H
	DB	042H
	DB	029H
	DB	04aH
	DB	049H
	DB	04aH
	DB	048H
	DB	042H
	DB	029H
	DB	04aH
	DB	029H
	DB	04aH
	DB	049H
	DB	04aH
	DB	049H
	DB	04aH
	DB	028H
	DB	042H
	DB	029H
	DB	04aH
	DB	049H
	DB	04aH
	DB	048H
	DB	042H
	DB	029H
	DB	04aH
	DB	029H
	DB	04aH
	DB	049H
	DB	04aH
	DB	049H
	DB	04aH
	DB	029H
	DB	04aH
	DB	049H
	DB	04aH
	DB	049H
	DB	04aH
	DB	029H
	DB	04aH
	DB	049H
	DB	04aH
	DB	049H
	DB	04aH
	DB	029H
	DB	04aH
	DB	049H
	DB	04aH
	DB	0cbH
	DB	05aH
	DB	0cbH
	DB	05aH
	DB	049H
	DB	04aH
	DB	049H
	DB	04aH
	DB	029H
	DB	04aH
	DB	049H
	DB	04aH
	DB	029H
	DB	04aH
	DB	029H
	DB	04aH
	DB	049H
	DB	04aH
	DB	049H
	DB	04aH
	DB	028H
	DB	042H
	DB	029H
	DB	04aH
	DB	049H
	DB	04aH
	DB	049H
	DB	04aH
	DB	028H
	DB	042H
	DB	029H
	DB	04aH
	DB	049H
	DB	04aH
	DB	048H
	DB	042H
	DB	029H
	DB	04aH
	DB	029H
	DB	04aH
	DB	049H
	DB	04aH
	DB	049H
	DB	04aH
	DB	028H
	DB	042H
	DB	029H
	DB	04aH
	DB	049H
	DB	04aH
	DB	048H
	DB	042H
	DB	029H
	DB	04aH
	DB	029H
	DB	04aH
	DB	049H
	DB	04aH
	DB	049H
	DB	04aH
	DB	029H
	DB	04aH
	DB	049H
	DB	04aH
	DB	049H
	DB	04aH
	DB	029H
	DB	04aH
	DB	049H
	DB	04aH
	DB	049H
	DB	04aH
	DB	029H
	DB	04aH
	DB	049H
	DB	04aH
	DB	0cbH
	DB	05aH
	DB	0cbH
	DB	05aH
	DB	049H
	DB	04aH
	DB	049H
	DB	04aH
	DB	029H
	DB	04aH
	DB	049H
	DB	04aH
	DB	029H
	DB	04aH
	DB	029H
	DB	04aH
	DB	049H
	DB	04aH
	DB	049H
	DB	04aH
	DB	028H
	DB	042H
	DB	029H
	DB	04aH
	DB	049H
	DB	04aH
	DB	049H
	DB	04aH
	DB	028H
	DB	042H
	DB	029H
	DB	04aH
	DB	049H
	DB	04aH
	DB	048H
	DB	042H
	DB	029H
	DB	04aH
	DB	029H
	DB	04aH
	DB	049H
	DB	04aH
	DB	049H
	DB	04aH
	DB	028H
	DB	042H
	DB	029H
	DB	04aH
	DB	049H
	DB	04aH
	DB	048H
	DB	042H
	DB	029H
	DB	04aH
	DB	049H
	DB	04aH
	DB	049H
	DB	04aH
	DB	028H
	DB	042H
	DB	049H
	DB	04aH
	DB	049H
	DB	04aH
	DB	049H
	DB	04aH
	DB	029H
	DB	04aH
	DB	049H
	DB	04aH
	DB	049H
	DB	04aH
	DB	049H
	DB	04aH
	DB	049H
	DB	04aH
	DB	08aH
	DB	052H
	DB	0efH
	DB	07bH
	DB	0efH
	DB	07bH
	DB	08aH
	DB	052H
	DB	049H
	DB	04aH
	DB	049H
	DB	04aH
	DB	029H
	DB	04aH
	DB	049H
	DB	04aH
	DB	049H
	DB	04aH
	DB	029H
	DB	04aH
	DB	049H
	DB	04aH
	DB	048H
	DB	042H
	DB	049H
	DB	04aH
	DB	049H
	DB	04aH
	DB	029H
	DB	04aH
	DB	049H
	DB	04aH
	DB	049H
	DB	04aH
	DB	029H
	DB	04aH
	DB	049H
	DB	04aH
	DB	049H
	DB	04aH
	DB	049H
	DB	04aH
	DB	049H
	DB	04aH
	DB	049H
	DB	04aH
	DB	049H
	DB	04aH
	DB	049H
	DB	04aH
	DB	049H
	DB	04aH
	DB	048H
	DB	042H
	DB	049H
	DB	04aH
	DB	029H
	DB	04aH
	DB	049H
	DB	04aH
	DB	049H
	DB	04aH
	DB	028H
	DB	042H
	DB	049H
	DB	04aH
	DB	049H
	DB	04aH
	DB	048H
	DB	042H
	DB	029H
	DB	04aH
	DB	049H
	DB	04aH
	DB	029H
	DB	04aH
	DB	049H
	DB	04aH
	DB	049H
	DB	04aH
	DB	0cbH
	DB	05aH
	DB	0cbH
	DB	05aH
	DB	049H
	DB	04aH
	DB	049H
	DB	04aH
	DB	049H
	DB	04aH
	DB	048H
	DB	042H
	DB	049H
	DB	04aH
	DB	029H
	DB	04aH
	DB	048H
	DB	042H
	DB	049H
	DB	04aH
	DB	049H
	DB	04aH
	DB	049H
	DB	04aH
	DB	049H
	DB	04aH
	DB	049H
	DB	04aH
	DB	029H
	DB	04aH
	DB	049H
	DB	04aH
	DB	049H
	DB	04aH
	DB	049H
	DB	04aH
	DB	049H
	DB	04aH
	DB	028H
	DB	042H
	DB	049H
	DB	04aH
	DB	049H
	DB	04aH
	DB	049H
	DB	04aH
	DB	049H
	DB	04aH
	DB	049H
	DB	04aH
	DB	049H
	DB	04aH
	DB	049H
	DB	04aH
	DB	028H
	DB	042H
	DB	049H
	DB	04aH
	DB	049H
	DB	04aH
	DB	028H
	DB	042H
	DB	049H
	DB	04aH
	DB	029H
	DB	04aH
	DB	049H
	DB	04aH
	DB	028H
	DB	042H
	DB	049H
	DB	04aH
	DB	049H
	DB	04aH
	DB	049H
	DB	04aH
	DB	0cbH
	DB	05aH
	DB	0ebH
	DB	05aH
	DB	049H
	DB	04aH
	DB	049H
	DB	04aH
	DB	049H
	DB	04aH
	DB	048H
	DB	042H
	DB	049H
	DB	04aH
	DB	049H
	DB	04aH
	DB	028H
	DB	042H
	DB	049H
	DB	04aH
	DB	049H
	DB	04aH
	DB	049H
	DB	04aH
	DB	049H
	DB	04aH
	DB	029H
	DB	04aH
	DB	049H
	DB	04aH
	DB	049H
	DB	04aH
	DB	049H
	DB	04aH
	DB	049H
	DB	04aH
	DB	049H
	DB	04aH
	DB	048H
	DB	042H
	DB	029H
	DB	04aH
	DB	049H
	DB	04aH
	DB	049H
	DB	04aH
	DB	049H
	DB	04aH
	DB	049H
	DB	04aH
	DB	029H
	DB	04aH
	DB	049H
	DB	04aH
	DB	048H
	DB	042H
	DB	049H
	DB	04aH
	DB	029H
	DB	04aH
	DB	048H
	DB	042H
	DB	049H
	DB	04aH
	DB	049H
	DB	04aH
	DB	029H
	DB	04aH
	DB	048H
	DB	042H
	DB	049H
	DB	04aH
	DB	049H
	DB	04aH
	DB	049H
	DB	04aH
	DB	0ebH
	DB	05aH
	DB	0cbH
	DB	05aH
	DB	049H
	DB	04aH
	DB	049H
	DB	04aH
	DB	049H
	DB	04aH
	DB	048H
	DB	042H
	DB	049H
	DB	04aH
	DB	049H
	DB	04aH
	DB	048H
	DB	042H
	DB	029H
	DB	04aH
	DB	049H
	DB	04aH
	DB	049H
	DB	04aH
	DB	049H
	DB	04aH
	DB	049H
	DB	04aH
	DB	049H
	DB	04aH
	DB	049H
	DB	04aH
	DB	029H
	DB	04aH
	DB	049H
	DB	04aH
	DB	049H
	DB	04aH
	DB	048H
	DB	042H
	DB	049H
	DB	04aH
	DB	029H
	DB	04aH
	DB	049H
	DB	04aH
	DB	049H
	DB	04aH
	DB	049H
	DB	04aH
	DB	049H
	DB	04aH
	DB	049H
	DB	04aH
	DB	048H
	DB	042H
	DB	049H
	DB	04aH
	DB	029H
	DB	04aH
	DB	048H
	DB	042H
	DB	049H
	DB	04aH
	DB	049H
	DB	04aH
	DB	029H
	DB	04aH
	DB	048H
	DB	042H
	DB	049H
	DB	04aH
	DB	049H
	DB	04aH
	DB	049H
	DB	04aH
	DB	0ebH
	DB	05aH
	DB	0cbH
	DB	05aH
	DB	049H
	DB	04aH
	DB	049H
	DB	04aH
	DB	049H
	DB	04aH
	DB	048H
	DB	042H
	DB	049H
	DB	04aH
	DB	049H
	DB	04aH
	DB	048H
	DB	042H
	DB	029H
	DB	04aH
	DB	049H
	DB	04aH
	DB	049H
	DB	04aH
	DB	049H
	DB	04aH
	DB	049H
	DB	04aH
	DB	049H
	DB	04aH
	DB	049H
	DB	04aH
	DB	029H
	DB	04aH
	DB	049H
	DB	04aH
	DB	049H
	DB	04aH
	DB	048H
	DB	042H
	DB	049H
	DB	04aH
	DB	029H
	DB	04aH
	DB	049H
	DB	04aH
	DB	049H
	DB	04aH
	DB	049H
	DB	04aH
	DB	049H
	DB	04aH
	DB	049H
	DB	04aH
	DB	048H
	DB	042H
	DB	049H
	DB	04aH
	DB	029H
	DB	04aH
	DB	048H
	DB	042H
	DB	049H
	DB	04aH
	DB	049H
	DB	04aH
	DB	029H
	DB	04aH
	DB	048H
	DB	042H
	DB	049H
	DB	04aH
	DB	049H
	DB	04aH
	DB	049H
	DB	04aH
	DB	0ebH
	DB	05aH
	DB	0cbH
	DB	05aH
	DB	049H
	DB	04aH
	DB	049H
	DB	04aH
	DB	049H
	DB	04aH
	DB	048H
	DB	042H
	DB	049H
	DB	04aH
	DB	049H
	DB	04aH
	DB	048H
	DB	042H
	DB	029H
	DB	04aH
	DB	049H
	DB	04aH
	DB	049H
	DB	04aH
	DB	049H
	DB	04aH
	DB	049H
	DB	04aH
	DB	049H
	DB	04aH
	DB	049H
	DB	04aH
	DB	029H
	DB	04aH
	DB	049H
	DB	04aH
	DB	049H
	DB	04aH
	DB	048H
	DB	042H
	DB	049H
	DB	04aH
	DB	029H
	DB	04aH
	DB	049H
	DB	04aH
	DB	049H
	DB	04aH
	DB	049H
	DB	04aH
	DB	049H
	DB	04aH
	DB	049H
	DB	04aH
	DB	048H
	DB	042H
	DB	049H
	DB	04aH
	DB	029H
	DB	04aH
	DB	048H
	DB	042H
	DB	049H
	DB	04aH
	DB	049H
	DB	04aH
	DB	029H
	DB	04aH
	DB	048H
	DB	042H
	DB	049H
	DB	04aH
	DB	049H
	DB	04aH
	DB	049H
	DB	04aH
	DB	0ebH
	DB	05aH
	DB	0cbH
	DB	05aH
	DB	049H
	DB	04aH
	DB	049H
	DB	04aH
	DB	049H
	DB	04aH
	DB	048H
	DB	042H
	DB	049H
	DB	04aH
	DB	049H
	DB	04aH
	DB	048H
	DB	042H
	DB	029H
	DB	04aH
	DB	049H
	DB	04aH
	DB	049H
	DB	04aH
	DB	049H
	DB	04aH
	DB	049H
	DB	04aH
	DB	049H
	DB	04aH
	DB	049H
	DB	04aH
	DB	029H
	DB	04aH
	DB	049H
	DB	04aH
	DB	049H
	DB	04aH
	DB	048H
	DB	042H
	DB	049H
	DB	04aH
	DB	029H
	DB	04aH
	DB	049H
	DB	04aH
	DB	049H
	DB	04aH
	DB	049H
	DB	04aH
	DB	049H
	DB	04aH
	DB	049H
	DB	04aH
	DB	048H
	DB	042H
	DB	049H
	DB	04aH
	DB	029H
	DB	04aH
	DB	048H
	DB	042H
	DB	049H
	DB	04aH
	DB	049H
	DB	04aH
	DB	029H
	DB	04aH
	DB	048H
	DB	042H
	DB	049H
	DB	04aH
	DB	049H
	DB	04aH
	DB	049H
	DB	04aH
	DB	0ebH
	DB	05aH
	DB	0cbH
	DB	05aH
	DB	049H
	DB	04aH
	DB	049H
	DB	04aH
	DB	049H
	DB	04aH
	DB	048H
	DB	042H
	DB	049H
	DB	04aH
	DB	049H
	DB	04aH
	DB	048H
	DB	042H
	DB	029H
	DB	04aH
	DB	049H
	DB	04aH
	DB	049H
	DB	04aH
	DB	049H
	DB	04aH
	DB	049H
	DB	04aH
	DB	049H
	DB	04aH
	DB	049H
	DB	04aH
	DB	029H
	DB	04aH
	DB	049H
	DB	04aH
	DB	049H
	DB	04aH
	DB	048H
	DB	042H
	DB	049H
	DB	04aH
	DB	029H
	DB	04aH
	DB	049H
	DB	04aH
	DB	049H
	DB	04aH
	DB	049H
	DB	04aH
	DB	029H
	DB	04aH
	DB	049H
	DB	04aH
	DB	049H
	DB	04aH
	DB	029H
	DB	04aH
	DB	049H
	DB	04aH
	DB	049H
	DB	04aH
	DB	048H
	DB	042H
	DB	049H
	DB	04aH
	DB	029H
	DB	04aH
	DB	048H
	DB	042H
	DB	029H
	DB	04aH
	DB	029H
	DB	04aH
	DB	049H
	DB	04aH
	DB	08aH
	DB	052H
	DB	0efH
	DB	07bH
	DB	0efH
	DB	07bH
	DB	08aH
	DB	052H
	DB	049H
	DB	04aH
	DB	049H
	DB	04aH
	DB	049H
	DB	04aH
	DB	048H
	DB	042H
	DB	049H
	DB	04aH
	DB	049H
	DB	04aH
	DB	029H
	DB	04aH
	DB	049H
	DB	04aH
	DB	049H
	DB	04aH
	DB	049H
	DB	04aH
	DB	029H
	DB	04aH
	DB	049H
	DB	04aH
	DB	049H
	DB	04aH
	DB	049H
	DB	04aH
	DB	049H
	DB	04aH
	DB	028H
	DB	042H
	DB	049H
	DB	04aH
	DB	049H
	DB	04aH
	DB	029H
	DB	04aH
	DB	049H
	DB	04aH
	DB	029H
	DB	04aH
	DB	049H
	DB	04aH
	DB	049H
	DB	04aH
	DB	049H
	DB	04aH
	DB	049H
	DB	04aH
	DB	049H
	DB	04aH
	DB	049H
	DB	04aH
	DB	029H
	DB	04aH
	DB	049H
	DB	04aH
	DB	049H
	DB	04aH
	DB	049H
	DB	04aH
	DB	049H
	DB	04aH
	DB	049H
	DB	04aH
	DB	049H
	DB	04aH
	DB	049H
	DB	04aH
	DB	049H
	DB	04aH
	DB	0cbH
	DB	05aH
	DB	0cbH
	DB	05aH
	DB	049H
	DB	04aH
	DB	049H
	DB	04aH
	DB	029H
	DB	04aH
	DB	049H
	DB	04aH
	DB	049H
	DB	04aH
	DB	049H
	DB	04aH
	DB	049H
	DB	04aH
	DB	049H
	DB	04aH
	DB	029H
	DB	04aH
	DB	029H
	DB	04aH
	DB	048H
	DB	042H
	DB	049H
	DB	04aH
	DB	049H
	DB	04aH
	DB	049H
	DB	04aH
	DB	049H
	DB	04aH
	DB	049H
	DB	04aH
	DB	029H
	DB	04aH
	DB	049H
	DB	04aH
	DB	049H
	DB	04aH
	DB	049H
	DB	04aH
	DB	029H
	DB	04aH
	DB	049H
	DB	04aH
	DB	049H
	DB	04aH
	DB	029H
	DB	04aH
	DB	049H
	DB	04aH
	DB	049H
	DB	04aH
	DB	049H
	DB	04aH
	DB	049H
	DB	04aH
	DB	049H
	DB	04aH
	DB	049H
	DB	04aH
	DB	049H
	DB	04aH
	DB	029H
	DB	04aH
	DB	049H
	DB	04aH
	DB	029H
	DB	04aH
	DB	049H
	DB	04aH
	DB	049H
	DB	04aH
	DB	0cbH
	DB	05aH
	DB	0cbH
	DB	05aH
	DB	049H
	DB	04aH
	DB	049H
	DB	04aH
	DB	029H
	DB	04aH
	DB	049H
	DB	04aH
	DB	049H
	DB	04aH
	DB	049H
	DB	04aH
	DB	049H
	DB	04aH
	DB	049H
	DB	04aH
	DB	049H
	DB	04aH
	DB	049H
	DB	04aH
	DB	028H
	DB	042H
	DB	049H
	DB	04aH
	DB	049H
	DB	04aH
	DB	049H
	DB	04aH
	DB	029H
	DB	04aH
	DB	049H
	DB	04aH
	DB	049H
	DB	04aH
	DB	049H
	DB	04aH
	DB	049H
	DB	04aH
	DB	049H
	DB	04aH
	DB	049H
	DB	04aH
	DB	049H
	DB	04aH
	DB	029H
	DB	04aH
	DB	049H
	DB	04aH
	DB	049H
	DB	04aH
	DB	049H
	DB	04aH
	DB	049H
	DB	04aH
	DB	049H
	DB	04aH
	DB	049H
	DB	04aH
	DB	049H
	DB	04aH
	DB	029H
	DB	04aH
	DB	049H
	DB	04aH
	DB	049H
	DB	04aH
	DB	049H
	DB	04aH
	DB	029H
	DB	04aH
	DB	049H
	DB	04aH
	DB	0cbH
	DB	05aH
	DB	0ebH
	DB	05aH
	DB	049H
	DB	04aH
	DB	049H
	DB	04aH
	DB	029H
	DB	04aH
	DB	049H
	DB	04aH
	DB	049H
	DB	04aH
	DB	049H
	DB	04aH
	DB	049H
	DB	04aH
	DB	049H
	DB	04aH
	DB	049H
	DB	04aH
	DB	049H
	DB	04aH
	DB	028H
	DB	042H
	DB	029H
	DB	04aH
	DB	049H
	DB	04aH
	DB	049H
	DB	04aH
	DB	049H
	DB	04aH
	DB	049H
	DB	04aH
	DB	049H
	DB	04aH
	DB	049H
	DB	04aH
	DB	029H
	DB	04aH
	DB	049H
	DB	04aH
	DB	049H
	DB	04aH
	DB	049H
	DB	04aH
	DB	029H
	DB	04aH
	DB	049H
	DB	04aH
	DB	049H
	DB	04aH
	DB	029H
	DB	04aH
	DB	049H
	DB	04aH
	DB	049H
	DB	04aH
	DB	049H
	DB	04aH
	DB	049H
	DB	04aH
	DB	029H
	DB	04aH
	DB	049H
	DB	04aH
	DB	049H
	DB	04aH
	DB	049H
	DB	04aH
	DB	029H
	DB	04aH
	DB	049H
	DB	04aH
	DB	0cbH
	DB	05aH
	DB	0ebH
	DB	05aH
	DB	049H
	DB	04aH
	DB	049H
	DB	04aH
	DB	029H
	DB	04aH
	DB	049H
	DB	04aH
	DB	049H
	DB	04aH
	DB	049H
	DB	04aH
	DB	049H
	DB	04aH
	DB	049H
	DB	04aH
	DB	049H
	DB	04aH
	DB	049H
	DB	04aH
	DB	028H
	DB	042H
	DB	029H
	DB	04aH
	DB	049H
	DB	04aH
	DB	049H
	DB	04aH
	DB	049H
	DB	04aH
	DB	049H
	DB	04aH
	DB	049H
	DB	04aH
	DB	049H
	DB	04aH
	DB	029H
	DB	04aH
	DB	049H
	DB	04aH
	DB	049H
	DB	04aH
	DB	049H
	DB	04aH
	DB	029H
	DB	04aH
	DB	049H
	DB	04aH
	DB	049H
	DB	04aH
	DB	029H
	DB	04aH
	DB	049H
	DB	04aH
	DB	049H
	DB	04aH
	DB	049H
	DB	04aH
	DB	049H
	DB	04aH
	DB	029H
	DB	04aH
	DB	049H
	DB	04aH
	DB	049H
	DB	04aH
	DB	049H
	DB	04aH
	DB	029H
	DB	04aH
	DB	049H
	DB	04aH
	DB	0cbH
	DB	05aH
	DB	0ebH
	DB	05aH
	DB	049H
	DB	04aH
	DB	049H
	DB	04aH
	DB	029H
	DB	04aH
	DB	049H
	DB	04aH
	DB	049H
	DB	04aH
	DB	049H
	DB	04aH
	DB	049H
	DB	04aH
	DB	049H
	DB	04aH
	DB	049H
	DB	04aH
	DB	049H
	DB	04aH
	DB	028H
	DB	042H
	DB	029H
	DB	04aH
	DB	049H
	DB	04aH
	DB	049H
	DB	04aH
	DB	049H
	DB	04aH
	DB	049H
	DB	04aH
	DB	049H
	DB	04aH
	DB	049H
	DB	04aH
	DB	029H
	DB	04aH
	DB	049H
	DB	04aH
	DB	049H
	DB	04aH
	DB	049H
	DB	04aH
	DB	029H
	DB	04aH
	DB	049H
	DB	04aH
	DB	049H
	DB	04aH
	DB	029H
	DB	04aH
	DB	049H
	DB	04aH
	DB	049H
	DB	04aH
	DB	049H
	DB	04aH
	DB	049H
	DB	04aH
	DB	029H
	DB	04aH
	DB	049H
	DB	04aH
	DB	049H
	DB	04aH
	DB	049H
	DB	04aH
	DB	029H
	DB	04aH
	DB	049H
	DB	04aH
	DB	0cbH
	DB	05aH
	DB	0ebH
	DB	05aH
	DB	049H
	DB	04aH
	DB	049H
	DB	04aH
	DB	029H
	DB	04aH
	DB	049H
	DB	04aH
	DB	049H
	DB	04aH
	DB	049H
	DB	04aH
	DB	049H
	DB	04aH
	DB	049H
	DB	04aH
	DB	049H
	DB	04aH
	DB	049H
	DB	04aH
	DB	028H
	DB	042H
	DB	029H
	DB	04aH
	DB	049H
	DB	04aH
	DB	049H
	DB	04aH
	DB	049H
	DB	04aH
	DB	049H
	DB	04aH
	DB	049H
	DB	04aH
	DB	049H
	DB	04aH
	DB	029H
	DB	04aH
	DB	049H
	DB	04aH
	DB	049H
	DB	04aH
	DB	049H
	DB	04aH
	DB	029H
	DB	04aH
	DB	049H
	DB	04aH
	DB	049H
	DB	04aH
	DB	029H
	DB	04aH
	DB	049H
	DB	04aH
	DB	049H
	DB	04aH
	DB	049H
	DB	04aH
	DB	049H
	DB	04aH
	DB	029H
	DB	04aH
	DB	049H
	DB	04aH
	DB	049H
	DB	04aH
	DB	049H
	DB	04aH
	DB	029H
	DB	04aH
	DB	049H
	DB	04aH
	DB	0cbH
	DB	05aH
	DB	0ebH
	DB	05aH
	DB	049H
	DB	04aH
	DB	049H
	DB	04aH
	DB	029H
	DB	04aH
	DB	049H
	DB	04aH
	DB	049H
	DB	04aH
	DB	049H
	DB	04aH
	DB	049H
	DB	04aH
	DB	049H
	DB	04aH
	DB	049H
	DB	04aH
	DB	049H
	DB	04aH
	DB	028H
	DB	042H
	DB	029H
	DB	04aH
	DB	049H
	DB	04aH
	DB	049H
	DB	04aH
	DB	049H
	DB	04aH
	DB	049H
	DB	04aH
	DB	049H
	DB	04aH
	DB	049H
	DB	04aH
	DB	029H
	DB	04aH
	DB	049H
	DB	04aH
	DB	049H
	DB	04aH
	DB	049H
	DB	04aH
	DB	049H
	DB	04aH
	DB	049H
	DB	04aH
	DB	049H
	DB	04aH
	DB	048H
	DB	042H
	DB	049H
	DB	04aH
	DB	049H
	DB	04aH
	DB	029H
	DB	04aH
	DB	049H
	DB	04aH
	DB	049H
	DB	04aH
	DB	049H
	DB	04aH
	DB	049H
	DB	04aH
	DB	049H
	DB	04aH
	DB	049H
	DB	04aH
	DB	049H
	DB	04aH
	DB	08aH
	DB	052H
	DB	0cfH
	DB	07bH
	DB	0efH
	DB	07bH
	DB	08aH
	DB	052H
	DB	029H
	DB	04aH
	DB	049H
	DB	04aH
	DB	049H
	DB	04aH
	DB	029H
	DB	04aH
	DB	049H
	DB	04aH
	DB	049H
	DB	04aH
	DB	049H
	DB	04aH
	DB	029H
	DB	04aH
	DB	049H
	DB	04aH
	DB	048H
	DB	042H
	DB	049H
	DB	04aH
	DB	029H
	DB	04aH
	DB	048H
	DB	042H
	DB	049H
	DB	04aH
	DB	029H
	DB	04aH
	DB	049H
	DB	04aH
	DB	049H
	DB	04aH
	DB	029H
	DB	04aH
	DB	048H
	DB	042H
	DB	049H
	DB	04aH
	DB	049H
	DB	04aH
	DB	029H
	DB	04aH
	DB	029H
	DB	04aH
	DB	049H
	DB	04aH
	DB	028H
	DB	042H
	DB	049H
	DB	04aH
	DB	049H
	DB	04aH
	DB	049H
	DB	04aH
	DB	029H
	DB	04aH
	DB	049H
	DB	04aH
	DB	029H
	DB	04aH
	DB	049H
	DB	04aH
	DB	048H
	DB	042H
	DB	029H
	DB	04aH
	DB	049H
	DB	04aH
	DB	049H
	DB	04aH
	DB	0cbH
	DB	05aH
	DB	0ebH
	DB	05aH
	DB	049H
	DB	04aH
	DB	049H
	DB	04aH
	DB	029H
	DB	04aH
	DB	049H
	DB	04aH
	DB	049H
	DB	04aH
	DB	029H
	DB	04aH
	DB	049H
	DB	04aH
	DB	049H
	DB	04aH
	DB	049H
	DB	04aH
	DB	049H
	DB	04aH
	DB	029H
	DB	04aH
	DB	049H
	DB	04aH
	DB	049H
	DB	04aH
	DB	028H
	DB	042H
	DB	029H
	DB	04aH
	DB	049H
	DB	04aH
	DB	049H
	DB	04aH
	DB	049H
	DB	04aH
	DB	049H
	DB	04aH
	DB	028H
	DB	042H
	DB	049H
	DB	04aH
	DB	049H
	DB	04aH
	DB	028H
	DB	042H
	DB	049H
	DB	04aH
	DB	049H
	DB	04aH
	DB	029H
	DB	04aH
	DB	049H
	DB	04aH
	DB	029H
	DB	04aH
	DB	049H
	DB	04aH
	DB	049H
	DB	04aH
	DB	048H
	DB	042H
	DB	049H
	DB	04aH
	DB	049H
	DB	04aH
	DB	049H
	DB	04aH
	DB	029H
	DB	04aH
	DB	049H
	DB	04aH
	DB	0cbH
	DB	05aH
	DB	0cbH
	DB	05aH
	DB	049H
	DB	04aH
	DB	049H
	DB	04aH
	DB	029H
	DB	04aH
	DB	049H
	DB	04aH
	DB	029H
	DB	04aH
	DB	029H
	DB	04aH
	DB	049H
	DB	04aH
	DB	029H
	DB	04aH
	DB	049H
	DB	04aH
	DB	049H
	DB	04aH
	DB	029H
	DB	04aH
	DB	049H
	DB	04aH
	DB	049H
	DB	04aH
	DB	028H
	DB	042H
	DB	049H
	DB	04aH
	DB	029H
	DB	04aH
	DB	029H
	DB	04aH
	DB	049H
	DB	04aH
	DB	029H
	DB	04aH
	DB	028H
	DB	042H
	DB	049H
	DB	04aH
	DB	049H
	DB	04aH
	DB	048H
	DB	042H
	DB	049H
	DB	04aH
	DB	029H
	DB	04aH
	DB	049H
	DB	04aH
	DB	029H
	DB	04aH
	DB	049H
	DB	04aH
	DB	049H
	DB	04aH
	DB	029H
	DB	04aH
	DB	048H
	DB	042H
	DB	049H
	DB	04aH
	DB	049H
	DB	04aH
	DB	029H
	DB	04aH
	DB	049H
	DB	04aH
	DB	049H
	DB	04aH
	DB	0cbH
	DB	05aH
	DB	0cbH
	DB	05aH
	DB	049H
	DB	04aH
	DB	049H
	DB	04aH
	DB	029H
	DB	04aH
	DB	049H
	DB	04aH
	DB	029H
	DB	04aH
	DB	029H
	DB	04aH
	DB	049H
	DB	04aH
	DB	029H
	DB	04aH
	DB	049H
	DB	04aH
	DB	049H
	DB	04aH
	DB	049H
	DB	04aH
	DB	049H
	DB	04aH
	DB	029H
	DB	04aH
	DB	048H
	DB	042H
	DB	049H
	DB	04aH
	DB	029H
	DB	04aH
	DB	029H
	DB	04aH
	DB	049H
	DB	04aH
	DB	049H
	DB	04aH
	DB	048H
	DB	042H
	DB	049H
	DB	04aH
	DB	029H
	DB	04aH
	DB	048H
	DB	042H
	DB	049H
	DB	04aH
	DB	029H
	DB	04aH
	DB	049H
	DB	04aH
	DB	049H
	DB	04aH
	DB	029H
	DB	04aH
	DB	049H
	DB	04aH
	DB	049H
	DB	04aH
	DB	048H
	DB	042H
	DB	049H
	DB	04aH
	DB	049H
	DB	04aH
	DB	029H
	DB	04aH
	DB	049H
	DB	04aH
	DB	049H
	DB	04aH
	DB	0cbH
	DB	05aH
	DB	0cbH
	DB	05aH
	DB	049H
	DB	04aH
	DB	049H
	DB	04aH
	DB	029H
	DB	04aH
	DB	049H
	DB	04aH
	DB	029H
	DB	04aH
	DB	029H
	DB	04aH
	DB	049H
	DB	04aH
	DB	029H
	DB	04aH
	DB	049H
	DB	04aH
	DB	049H
	DB	04aH
	DB	049H
	DB	04aH
	DB	049H
	DB	04aH
	DB	029H
	DB	04aH
	DB	048H
	DB	042H
	DB	049H
	DB	04aH
	DB	029H
	DB	04aH
	DB	029H
	DB	04aH
	DB	049H
	DB	04aH
	DB	049H
	DB	04aH
	DB	048H
	DB	042H
	DB	049H
	DB	04aH
	DB	029H
	DB	04aH
	DB	048H
	DB	042H
	DB	049H
	DB	04aH
	DB	029H
	DB	04aH
	DB	049H
	DB	04aH
	DB	049H
	DB	04aH
	DB	029H
	DB	04aH
	DB	049H
	DB	04aH
	DB	049H
	DB	04aH
	DB	048H
	DB	042H
	DB	049H
	DB	04aH
	DB	049H
	DB	04aH
	DB	029H
	DB	04aH
	DB	049H
	DB	04aH
	DB	049H
	DB	04aH
	DB	0cbH
	DB	05aH
	DB	0cbH
	DB	05aH
	DB	049H
	DB	04aH
	DB	049H
	DB	04aH
	DB	029H
	DB	04aH
	DB	049H
	DB	04aH
	DB	029H
	DB	04aH
	DB	029H
	DB	04aH
	DB	049H
	DB	04aH
	DB	029H
	DB	04aH
	DB	049H
	DB	04aH
	DB	049H
	DB	04aH
	DB	049H
	DB	04aH
	DB	049H
	DB	04aH
	DB	029H
	DB	04aH
	DB	048H
	DB	042H
	DB	049H
	DB	04aH
	DB	029H
	DB	04aH
	DB	029H
	DB	04aH
	DB	049H
	DB	04aH
	DB	049H
	DB	04aH
	DB	048H
	DB	042H
	DB	049H
	DB	04aH
	DB	029H
	DB	04aH
	DB	048H
	DB	042H
	DB	049H
	DB	04aH
	DB	029H
	DB	04aH
	DB	049H
	DB	04aH
	DB	049H
	DB	04aH
	DB	029H
	DB	04aH
	DB	049H
	DB	04aH
	DB	049H
	DB	04aH
	DB	048H
	DB	042H
	DB	049H
	DB	04aH
	DB	049H
	DB	04aH
	DB	029H
	DB	04aH
	DB	049H
	DB	04aH
	DB	049H
	DB	04aH
	DB	0cbH
	DB	05aH
	DB	0cbH
	DB	05aH
	DB	049H
	DB	04aH
	DB	049H
	DB	04aH
	DB	029H
	DB	04aH
	DB	049H
	DB	04aH
	DB	029H
	DB	04aH
	DB	029H
	DB	04aH
	DB	049H
	DB	04aH
	DB	029H
	DB	04aH
	DB	049H
	DB	04aH
	DB	049H
	DB	04aH
	DB	049H
	DB	04aH
	DB	049H
	DB	04aH
	DB	029H
	DB	04aH
	DB	048H
	DB	042H
	DB	049H
	DB	04aH
	DB	029H
	DB	04aH
	DB	029H
	DB	04aH
	DB	049H
	DB	04aH
	DB	049H
	DB	04aH
	DB	048H
	DB	042H
	DB	049H
	DB	04aH
	DB	029H
	DB	04aH
	DB	048H
	DB	042H
	DB	049H
	DB	04aH
	DB	029H
	DB	04aH
	DB	049H
	DB	04aH
	DB	049H
	DB	04aH
	DB	029H
	DB	04aH
	DB	049H
	DB	04aH
	DB	049H
	DB	04aH
	DB	048H
	DB	042H
	DB	049H
	DB	04aH
	DB	049H
	DB	04aH
	DB	029H
	DB	04aH
	DB	049H
	DB	04aH
	DB	049H
	DB	04aH
	DB	0cbH
	DB	05aH
	DB	0cbH
	DB	05aH
	DB	049H
	DB	04aH
	DB	049H
	DB	04aH
	DB	029H
	DB	04aH
	DB	049H
	DB	04aH
	DB	029H
	DB	04aH
	DB	029H
	DB	04aH
	DB	049H
	DB	04aH
	DB	029H
	DB	04aH
	DB	049H
	DB	04aH
	DB	049H
	DB	04aH
	DB	049H
	DB	04aH
	DB	049H
	DB	04aH
	DB	029H
	DB	04aH
	DB	048H
	DB	042H
	DB	049H
	DB	04aH
	DB	029H
	DB	04aH
	DB	029H
	DB	04aH
	DB	049H
	DB	04aH
	DB	049H
	DB	04aH
	DB	048H
	DB	042H
	DB	029H
	DB	04aH
	DB	049H
	DB	04aH
	DB	028H
	DB	042H
	DB	049H
	DB	04aH
	DB	029H
	DB	04aH
	DB	029H
	DB	04aH
	DB	049H
	DB	04aH
	DB	049H
	DB	04aH
	DB	029H
	DB	04aH
	DB	049H
	DB	04aH
	DB	049H
	DB	04aH
	DB	029H
	DB	04aH
	DB	049H
	DB	04aH
	DB	049H
	DB	04aH
	DB	028H
	DB	042H
	DB	049H
	DB	04aH
	DB	08aH
	DB	052H
	DB	0efH
	DB	07bH
	DB	0efH
	DB	07bH
	DB	08aH
	DB	052H
	DB	049H
	DB	04aH
	DB	029H
	DB	04aH
	DB	049H
	DB	04aH
	DB	049H
	DB	04aH
	DB	029H
	DB	04aH
	DB	048H
	DB	042H
	DB	049H
	DB	04aH
	DB	049H
	DB	04aH
	DB	029H
	DB	04aH
	DB	049H
	DB	04aH
	DB	049H
	DB	04aH
	DB	049H
	DB	04aH
	DB	029H
	DB	04aH
	DB	049H
	DB	04aH
	DB	049H
	DB	04aH
	DB	049H
	DB	04aH
	DB	049H
	DB	04aH
	DB	049H
	DB	04aH
	DB	049H
	DB	04aH
	DB	049H
	DB	04aH
	DB	048H
	DB	042H
	DB	049H
	DB	04aH
	DB	049H
	DB	04aH
	DB	049H
	DB	04aH
	DB	049H
	DB	04aH
	DB	029H
	DB	04aH
	DB	049H
	DB	04aH
	DB	048H
	DB	042H
	DB	049H
	DB	04aH
	DB	049H
	DB	04aH
	DB	028H
	DB	042H
	DB	049H
	DB	04aH
	DB	049H
	DB	04aH
	DB	029H
	DB	04aH
	DB	049H
	DB	04aH
	DB	049H
	DB	04aH
	DB	0cbH
	DB	05aH
	DB	0cbH
	DB	05aH
	DB	049H
	DB	04aH
	DB	049H
	DB	04aH
	DB	049H
	DB	04aH
	DB	048H
	DB	042H
	DB	029H
	DB	04aH
	DB	049H
	DB	04aH
	DB	048H
	DB	042H
	DB	029H
	DB	04aH
	DB	049H
	DB	04aH
	DB	048H
	DB	042H
	DB	049H
	DB	04aH
	DB	049H
	DB	04aH
	DB	049H
	DB	04aH
	DB	049H
	DB	04aH
	DB	049H
	DB	04aH
	DB	048H
	DB	042H
	DB	029H
	DB	04aH
	DB	049H
	DB	04aH
	DB	049H
	DB	04aH
	DB	029H
	DB	04aH
	DB	049H
	DB	04aH
	DB	049H
	DB	04aH
	DB	049H
	DB	04aH
	DB	049H
	DB	04aH
	DB	049H
	DB	04aH
	DB	048H
	DB	042H
	DB	029H
	DB	04aH
	DB	049H
	DB	04aH
	DB	028H
	DB	042H
	DB	049H
	DB	04aH
	DB	029H
	DB	04aH
	DB	049H
	DB	04aH
	DB	049H
	DB	04aH
	DB	048H
	DB	042H
	DB	049H
	DB	04aH
	DB	049H
	DB	04aH
	DB	0ebH
	DB	05aH
	DB	0cbH
	DB	05aH
	DB	049H
	DB	04aH
	DB	049H
	DB	04aH
	DB	049H
	DB	04aH
	DB	048H
	DB	042H
	DB	049H
	DB	04aH
	DB	049H
	DB	04aH
	DB	048H
	DB	042H
	DB	029H
	DB	04aH
	DB	049H
	DB	04aH
	DB	048H
	DB	042H
	DB	049H
	DB	04aH
	DB	049H
	DB	04aH
	DB	049H
	DB	04aH
	DB	049H
	DB	04aH
	DB	049H
	DB	04aH
	DB	048H
	DB	042H
	DB	049H
	DB	04aH
	DB	049H
	DB	04aH
	DB	049H
	DB	04aH
	DB	049H
	DB	04aH
	DB	029H
	DB	04aH
	DB	049H
	DB	04aH
	DB	049H
	DB	04aH
	DB	029H
	DB	04aH
	DB	049H
	DB	04aH
	DB	048H
	DB	042H
	DB	049H
	DB	04aH
	DB	029H
	DB	04aH
	DB	048H
	DB	042H
	DB	049H
	DB	04aH
	DB	049H
	DB	04aH
	DB	049H
	DB	04aH
	DB	029H
	DB	04aH
	DB	048H
	DB	042H
	DB	049H
	DB	04aH
	DB	049H
	DB	04aH
	DB	0cbH
	DB	05aH
	DB	0cbH
	DB	05aH
	DB	049H
	DB	04aH
	DB	049H
	DB	04aH
	DB	049H
	DB	04aH
	DB	048H
	DB	042H
	DB	049H
	DB	04aH
	DB	049H
	DB	04aH
	DB	048H
	DB	042H
	DB	049H
	DB	04aH
	DB	029H
	DB	04aH
	DB	048H
	DB	042H
	DB	049H
	DB	04aH
	DB	049H
	DB	04aH
	DB	049H
	DB	04aH
	DB	029H
	DB	04aH
	DB	049H
	DB	04aH
	DB	048H
	DB	042H
	DB	049H
	DB	04aH
	DB	049H
	DB	04aH
	DB	029H
	DB	04aH
	DB	049H
	DB	04aH
	DB	049H
	DB	04aH
	DB	029H
	DB	04aH
	DB	049H
	DB	04aH
	DB	049H
	DB	04aH
	DB	049H
	DB	04aH
	DB	048H
	DB	042H
	DB	049H
	DB	04aH
	DB	029H
	DB	04aH
	DB	048H
	DB	042H
	DB	049H
	DB	04aH
	DB	029H
	DB	04aH
	DB	049H
	DB	04aH
	DB	049H
	DB	04aH
	DB	048H
	DB	042H
	DB	049H
	DB	04aH
	DB	049H
	DB	04aH
	DB	0cbH
	DB	05aH
	DB	0cbH
	DB	05aH
	DB	049H
	DB	04aH
	DB	049H
	DB	04aH
	DB	049H
	DB	04aH
	DB	048H
	DB	042H
	DB	049H
	DB	04aH
	DB	049H
	DB	04aH
	DB	048H
	DB	042H
	DB	049H
	DB	04aH
	DB	029H
	DB	04aH
	DB	048H
	DB	042H
	DB	049H
	DB	04aH
	DB	049H
	DB	04aH
	DB	049H
	DB	04aH
	DB	029H
	DB	04aH
	DB	049H
	DB	04aH
	DB	048H
	DB	042H
	DB	049H
	DB	04aH
	DB	049H
	DB	04aH
	DB	029H
	DB	04aH
	DB	049H
	DB	04aH
	DB	049H
	DB	04aH
	DB	029H
	DB	04aH
	DB	049H
	DB	04aH
	DB	049H
	DB	04aH
	DB	049H
	DB	04aH
	DB	048H
	DB	042H
	DB	049H
	DB	04aH
	DB	029H
	DB	04aH
	DB	048H
	DB	042H
	DB	049H
	DB	04aH
	DB	029H
	DB	04aH
	DB	049H
	DB	04aH
	DB	049H
	DB	04aH
	DB	048H
	DB	042H
	DB	049H
	DB	04aH
	DB	049H
	DB	04aH
	DB	0cbH
	DB	05aH
	DB	0cbH
	DB	05aH
	DB	049H
	DB	04aH
	DB	049H
	DB	04aH
	DB	049H
	DB	04aH
	DB	048H
	DB	042H
	DB	049H
	DB	04aH
	DB	049H
	DB	04aH
	DB	048H
	DB	042H
	DB	049H
	DB	04aH
	DB	029H
	DB	04aH
	DB	048H
	DB	042H
	DB	049H
	DB	04aH
	DB	049H
	DB	04aH
	DB	049H
	DB	04aH
	DB	029H
	DB	04aH
	DB	049H
	DB	04aH
	DB	048H
	DB	042H
	DB	049H
	DB	04aH
	DB	049H
	DB	04aH
	DB	029H
	DB	04aH
	DB	049H
	DB	04aH
	DB	049H
	DB	04aH
	DB	029H
	DB	04aH
	DB	049H
	DB	04aH
	DB	049H
	DB	04aH
	DB	049H
	DB	04aH
	DB	048H
	DB	042H
	DB	049H
	DB	04aH
	DB	029H
	DB	04aH
	DB	048H
	DB	042H
	DB	049H
	DB	04aH
	DB	029H
	DB	04aH
	DB	049H
	DB	04aH
	DB	049H
	DB	04aH
	DB	048H
	DB	042H
	DB	049H
	DB	04aH
	DB	049H
	DB	04aH
	DB	0cbH
	DB	05aH
	DB	0cbH
	DB	05aH
	DB	049H
	DB	04aH
	DB	049H
	DB	04aH
	DB	049H
	DB	04aH
	DB	048H
	DB	042H
	DB	049H
	DB	04aH
	DB	049H
	DB	04aH
	DB	048H
	DB	042H
	DB	049H
	DB	04aH
	DB	029H
	DB	04aH
	DB	048H
	DB	042H
	DB	049H
	DB	04aH
	DB	049H
	DB	04aH
	DB	049H
	DB	04aH
	DB	029H
	DB	04aH
	DB	049H
	DB	04aH
	DB	048H
	DB	042H
	DB	049H
	DB	04aH
	DB	049H
	DB	04aH
	DB	029H
	DB	04aH
	DB	049H
	DB	04aH
	DB	049H
	DB	04aH
	DB	029H
	DB	04aH
	DB	049H
	DB	04aH
	DB	049H
	DB	04aH
	DB	049H
	DB	04aH
	DB	048H
	DB	042H
	DB	049H
	DB	04aH
	DB	029H
	DB	04aH
	DB	048H
	DB	042H
	DB	049H
	DB	04aH
	DB	029H
	DB	04aH
	DB	049H
	DB	04aH
	DB	049H
	DB	04aH
	DB	048H
	DB	042H
	DB	049H
	DB	04aH
	DB	049H
	DB	04aH
	DB	0cbH
	DB	05aH
	DB	0cbH
	DB	05aH
	DB	049H
	DB	04aH
	DB	049H
	DB	04aH
	DB	049H
	DB	04aH
	DB	048H
	DB	042H
	DB	049H
	DB	04aH
	DB	049H
	DB	04aH
	DB	048H
	DB	042H
	DB	049H
	DB	04aH
	DB	029H
	DB	04aH
	DB	048H
	DB	042H
	DB	049H
	DB	04aH
	DB	049H
	DB	04aH
	DB	049H
	DB	04aH
	DB	029H
	DB	04aH
	DB	049H
	DB	04aH
	DB	048H
	DB	042H
	DB	049H
	DB	04aH
	DB	049H
	DB	04aH
	DB	049H
	DB	04aH
	DB	029H
	DB	04aH
	DB	049H
	DB	04aH
	DB	049H
	DB	04aH
	DB	049H
	DB	04aH
	DB	049H
	DB	04aH
	DB	049H
	DB	04aH
	DB	049H
	DB	04aH
	DB	049H
	DB	04aH
	DB	048H
	DB	042H
	DB	049H
	DB	04aH
	DB	029H
	DB	04aH
	DB	048H
	DB	042H
	DB	049H
	DB	04aH
	DB	029H
	DB	04aH
	DB	049H
	DB	04aH
	DB	049H
	DB	04aH
	DB	029H
	DB	04aH
	DB	08aH
	DB	052H
	DB	0efH
	DB	07bH
	DB	0efH
	DB	07bH
	DB	08aH
	DB	052H
	DB	049H
	DB	04aH
	DB	049H
	DB	04aH
	DB	049H
	DB	04aH
	DB	049H
	DB	04aH
	DB	029H
	DB	04aH
	DB	049H
	DB	04aH
	DB	049H
	DB	04aH
	DB	029H
	DB	04aH
	DB	048H
	DB	042H
	DB	049H
	DB	04aH
	DB	029H
	DB	04aH
	DB	049H
	DB	04aH
	DB	049H
	DB	04aH
	DB	048H
	DB	042H
	DB	029H
	DB	04aH
	DB	049H
	DB	04aH
	DB	028H
	DB	042H
	DB	049H
	DB	04aH
	DB	029H
	DB	04aH
	DB	029H
	DB	04aH
	DB	049H
	DB	04aH
	DB	049H
	DB	04aH
	DB	029H
	DB	04aH
	DB	048H
	DB	042H
	DB	049H
	DB	04aH
	DB	049H
	DB	04aH
	DB	029H
	DB	04aH
	DB	049H
	DB	04aH
	DB	049H
	DB	04aH
	DB	029H
	DB	04aH
	DB	049H
	DB	04aH
	DB	049H
	DB	04aH
	DB	049H
	DB	04aH
	DB	049H
	DB	04aH
	DB	049H
	DB	04aH
	DB	049H
	DB	04aH
	DB	0cbH
	DB	05aH
	DB	0cbH
	DB	05aH
	DB	049H
	DB	04aH
	DB	049H
	DB	04aH
	DB	049H
	DB	04aH
	DB	029H
	DB	04aH
	DB	049H
	DB	04aH
	DB	049H
	DB	04aH
	DB	049H
	DB	04aH
	DB	029H
	DB	04aH
	DB	049H
	DB	04aH
	DB	049H
	DB	04aH
	DB	029H
	DB	04aH
	DB	029H
	DB	04aH
	DB	049H
	DB	04aH
	DB	049H
	DB	04aH
	DB	049H
	DB	04aH
	DB	029H
	DB	04aH
	DB	049H
	DB	04aH
	DB	049H
	DB	04aH
	DB	048H
	DB	042H
	DB	049H
	DB	04aH
	DB	029H
	DB	04aH
	DB	049H
	DB	04aH
	DB	049H
	DB	04aH
	DB	029H
	DB	04aH
	DB	049H
	DB	04aH
	DB	049H
	DB	04aH
	DB	049H
	DB	04aH
	DB	049H
	DB	04aH
	DB	049H
	DB	04aH
	DB	049H
	DB	04aH
	DB	049H
	DB	04aH
	DB	029H
	DB	04aH
	DB	049H
	DB	04aH
	DB	029H
	DB	04aH
	DB	049H
	DB	04aH
	DB	049H
	DB	04aH
	DB	0cbH
	DB	05aH
	DB	0cbH
	DB	05aH
	DB	049H
	DB	04aH
	DB	049H
	DB	04aH
	DB	029H
	DB	04aH
	DB	049H
	DB	04aH
	DB	049H
	DB	04aH
	DB	049H
	DB	04aH
	DB	049H
	DB	04aH
	DB	049H
	DB	04aH
	DB	029H
	DB	04aH
	DB	049H
	DB	04aH
	DB	049H
	DB	04aH
	DB	029H
	DB	04aH
	DB	049H
	DB	04aH
	DB	049H
	DB	04aH
	DB	029H
	DB	04aH
	DB	049H
	DB	04aH
	DB	049H
	DB	04aH
	DB	049H
	DB	04aH
	DB	048H
	DB	042H
	DB	049H
	DB	04aH
	DB	049H
	DB	04aH
	DB	029H
	DB	04aH
	DB	049H
	DB	04aH
	DB	049H
	DB	04aH
	DB	049H
	DB	04aH
	DB	049H
	DB	04aH
	DB	049H
	DB	04aH
	DB	029H
	DB	04aH
	DB	049H
	DB	04aH
	DB	049H
	DB	04aH
	DB	029H
	DB	04aH
	DB	049H
	DB	04aH
	DB	049H
	DB	04aH
	DB	049H
	DB	04aH
	DB	049H
	DB	04aH
	DB	049H
	DB	04aH
	DB	0cbH
	DB	05aH
	DB	0ebH
	DB	05aH
	DB	049H
	DB	04aH
	DB	049H
	DB	04aH
	DB	029H
	DB	04aH
	DB	049H
	DB	04aH
	DB	049H
	DB	04aH
	DB	049H
	DB	04aH
	DB	049H
	DB	04aH
	DB	049H
	DB	04aH
	DB	029H
	DB	04aH
	DB	049H
	DB	04aH
	DB	029H
	DB	04aH
	DB	049H
	DB	04aH
	DB	049H
	DB	04aH
	DB	049H
	DB	04aH
	DB	049H
	DB	04aH
	DB	049H
	DB	04aH
	DB	049H
	DB	04aH
	DB	029H
	DB	04aH
	DB	048H
	DB	042H
	DB	049H
	DB	04aH
	DB	049H
	DB	04aH
	DB	049H
	DB	04aH
	DB	029H
	DB	04aH
	DB	049H
	DB	04aH
	DB	049H
	DB	04aH
	DB	029H
	DB	04aH
	DB	049H
	DB	04aH
	DB	049H
	DB	04aH
	DB	049H
	DB	04aH
	DB	029H
	DB	04aH
	DB	049H
	DB	04aH
	DB	029H
	DB	04aH
	DB	049H
	DB	04aH
	DB	029H
	DB	04aH
	DB	049H
	DB	04aH
	DB	049H
	DB	04aH
	DB	0cbH
	DB	05aH
	DB	0ebH
	DB	05aH
	DB	049H
	DB	04aH
	DB	049H
	DB	04aH
	DB	029H
	DB	04aH
	DB	049H
	DB	04aH
	DB	049H
	DB	04aH
	DB	049H
	DB	04aH
	DB	049H
	DB	04aH
	DB	049H
	DB	04aH
	DB	029H
	DB	04aH
	DB	049H
	DB	04aH
	DB	029H
	DB	04aH
	DB	049H
	DB	04aH
	DB	049H
	DB	04aH
	DB	049H
	DB	04aH
	DB	049H
	DB	04aH
	DB	049H
	DB	04aH
	DB	049H
	DB	04aH
	DB	029H
	DB	04aH
	DB	048H
	DB	042H
	DB	049H
	DB	04aH
	DB	049H
	DB	04aH
	DB	049H
	DB	04aH
	DB	029H
	DB	04aH
	DB	049H
	DB	04aH
	DB	049H
	DB	04aH
	DB	029H
	DB	04aH
	DB	049H
	DB	04aH
	DB	049H
	DB	04aH
	DB	049H
	DB	04aH
	DB	029H
	DB	04aH
	DB	049H
	DB	04aH
	DB	029H
	DB	04aH
	DB	049H
	DB	04aH
	DB	029H
	DB	04aH
	DB	049H
	DB	04aH
	DB	049H
	DB	04aH
	DB	0cbH
	DB	05aH
	DB	0ebH
	DB	05aH
	DB	049H
	DB	04aH
	DB	049H
	DB	04aH
	DB	029H
	DB	04aH
	DB	049H
	DB	04aH
	DB	049H
	DB	04aH
	DB	049H
	DB	04aH
	DB	049H
	DB	04aH
	DB	049H
	DB	04aH
	DB	029H
	DB	04aH
	DB	049H
	DB	04aH
	DB	029H
	DB	04aH
	DB	049H
	DB	04aH
	DB	049H
	DB	04aH
	DB	049H
	DB	04aH
	DB	049H
	DB	04aH
	DB	049H
	DB	04aH
	DB	049H
	DB	04aH
	DB	029H
	DB	04aH
	DB	048H
	DB	042H
	DB	049H
	DB	04aH
	DB	049H
	DB	04aH
	DB	049H
	DB	04aH
	DB	029H
	DB	04aH
	DB	049H
	DB	04aH
	DB	049H
	DB	04aH
	DB	029H
	DB	04aH
	DB	049H
	DB	04aH
	DB	049H
	DB	04aH
	DB	049H
	DB	04aH
	DB	029H
	DB	04aH
	DB	049H
	DB	04aH
	DB	029H
	DB	04aH
	DB	049H
	DB	04aH
	DB	029H
	DB	04aH
	DB	049H
	DB	04aH
	DB	049H
	DB	04aH
	DB	0cbH
	DB	05aH
	DB	0ebH
	DB	05aH
	DB	049H
	DB	04aH
	DB	049H
	DB	04aH
	DB	029H
	DB	04aH
	DB	049H
	DB	04aH
	DB	049H
	DB	04aH
	DB	049H
	DB	04aH
	DB	049H
	DB	04aH
	DB	049H
	DB	04aH
	DB	029H
	DB	04aH
	DB	049H
	DB	04aH
	DB	029H
	DB	04aH
	DB	049H
	DB	04aH
	DB	049H
	DB	04aH
	DB	049H
	DB	04aH
	DB	049H
	DB	04aH
	DB	049H
	DB	04aH
	DB	049H
	DB	04aH
	DB	029H
	DB	04aH
	DB	048H
	DB	042H
	DB	049H
	DB	04aH
	DB	049H
	DB	04aH
	DB	049H
	DB	04aH
	DB	029H
	DB	04aH
	DB	049H
	DB	04aH
	DB	049H
	DB	04aH
	DB	029H
	DB	04aH
	DB	049H
	DB	04aH
	DB	049H
	DB	04aH
	DB	049H
	DB	04aH
	DB	029H
	DB	04aH
	DB	049H
	DB	04aH
	DB	029H
	DB	04aH
	DB	049H
	DB	04aH
	DB	029H
	DB	04aH
	DB	049H
	DB	04aH
	DB	049H
	DB	04aH
	DB	0cbH
	DB	05aH
	DB	0ebH
	DB	05aH
	DB	049H
	DB	04aH
	DB	049H
	DB	04aH
	DB	029H
	DB	04aH
	DB	049H
	DB	04aH
	DB	049H
	DB	04aH
	DB	049H
	DB	04aH
	DB	049H
	DB	04aH
	DB	049H
	DB	04aH
	DB	029H
	DB	04aH
	DB	049H
	DB	04aH
	DB	029H
	DB	04aH
	DB	049H
	DB	04aH
	DB	049H
	DB	04aH
	DB	049H
	DB	04aH
	DB	049H
	DB	04aH
	DB	049H
	DB	04aH
	DB	029H
	DB	04aH
	DB	049H
	DB	04aH
	DB	048H
	DB	042H
	DB	049H
	DB	04aH
	DB	049H
	DB	04aH
	DB	029H
	DB	04aH
	DB	049H
	DB	04aH
	DB	048H
	DB	042H
	DB	029H
	DB	04aH
	DB	049H
	DB	04aH
	DB	049H
	DB	04aH
	DB	029H
	DB	04aH
	DB	049H
	DB	04aH
	DB	049H
	DB	04aH
	DB	049H
	DB	04aH
	DB	049H
	DB	04aH
	DB	048H
	DB	042H
	DB	049H
	DB	04aH
	DB	049H
	DB	04aH
	DB	049H
	DB	04aH
	DB	08aH
	DB	052H
	DB	0efH
	DB	07bH
	DB	0cfH
	DB	07bH
	DB	08aH
	DB	052H
	DB	049H
	DB	04aH
	DB	029H
	DB	04aH
	DB	049H
	DB	04aH
	DB	048H
	DB	042H
	DB	049H
	DB	04aH
	DB	049H
	DB	04aH
	DB	029H
	DB	04aH
	DB	049H
	DB	04aH
	DB	049H
	DB	04aH
	DB	049H
	DB	04aH
	DB	049H
	DB	04aH
	DB	028H
	DB	042H
	DB	049H
	DB	04aH
	DB	049H
	DB	04aH
	DB	049H
	DB	04aH
	DB	029H
	DB	04aH
	DB	049H
	DB	04aH
	DB	049H
	DB	04aH
	DB	049H
	DB	04aH
	DB	049H
	DB	04aH
	DB	049H
	DB	04aH
	DB	029H
	DB	04aH
	DB	049H
	DB	04aH
	DB	049H
	DB	04aH
	DB	029H
	DB	04aH
	DB	049H
	DB	04aH
	DB	048H
	DB	042H
	DB	029H
	DB	04aH
	DB	049H
	DB	04aH
	DB	049H
	DB	04aH
	DB	049H
	DB	04aH
	DB	029H
	DB	04aH
	DB	048H
	DB	042H
	DB	049H
	DB	04aH
	DB	029H
	DB	04aH
	DB	049H
	DB	04aH
	DB	0ebH
	DB	05aH
	DB	0cbH
	DB	05aH
	DB	049H
	DB	04aH
	DB	049H
	DB	04aH
	DB	029H
	DB	04aH
	DB	049H
	DB	04aH
	DB	049H
	DB	04aH
	DB	049H
	DB	04aH
	DB	029H
	DB	04aH
	DB	049H
	DB	04aH
	DB	049H
	DB	04aH
	DB	049H
	DB	04aH
	DB	049H
	DB	04aH
	DB	048H
	DB	042H
	DB	029H
	DB	04aH
	DB	049H
	DB	04aH
	DB	029H
	DB	04aH
	DB	049H
	DB	04aH
	DB	049H
	DB	04aH
	DB	029H
	DB	04aH
	DB	049H
	DB	04aH
	DB	049H
	DB	04aH
	DB	049H
	DB	04aH
	DB	028H
	DB	042H
	DB	049H
	DB	04aH
	DB	049H
	DB	04aH
	DB	028H
	DB	042H
	DB	049H
	DB	04aH
	DB	049H
	DB	04aH
	DB	029H
	DB	04aH
	DB	049H
	DB	04aH
	DB	049H
	DB	04aH
	DB	049H
	DB	04aH
	DB	048H
	DB	042H
	DB	049H
	DB	04aH
	DB	029H
	DB	04aH
	DB	049H
	DB	04aH
	DB	049H
	DB	04aH
	DB	0cbH
	DB	05aH
	DB	0ebH
	DB	05aH
	DB	049H
	DB	04aH
	DB	049H
	DB	04aH
	DB	049H
	DB	04aH
	DB	029H
	DB	04aH
	DB	049H
	DB	04aH
	DB	029H
	DB	04aH
	DB	049H
	DB	04aH
	DB	049H
	DB	04aH
	DB	049H
	DB	04aH
	DB	029H
	DB	04aH
	DB	049H
	DB	04aH
	DB	048H
	DB	042H
	DB	029H
	DB	04aH
	DB	049H
	DB	04aH
	DB	049H
	DB	04aH
	DB	029H
	DB	04aH
	DB	049H
	DB	04aH
	DB	029H
	DB	04aH
	DB	029H
	DB	04aH
	DB	049H
	DB	04aH
	DB	049H
	DB	04aH
	DB	048H
	DB	042H
	DB	029H
	DB	04aH
	DB	049H
	DB	04aH
	DB	028H
	DB	042H
	DB	049H
	DB	04aH
	DB	049H
	DB	04aH
	DB	049H
	DB	04aH
	DB	049H
	DB	04aH
	DB	029H
	DB	04aH
	DB	049H
	DB	04aH
	DB	048H
	DB	042H
	DB	029H
	DB	04aH
	DB	049H
	DB	04aH
	DB	049H
	DB	04aH
	DB	029H
	DB	04aH
	DB	0ebH
	DB	05aH
	DB	0cbH
	DB	05aH
	DB	049H
	DB	04aH
	DB	049H
	DB	04aH
	DB	049H
	DB	04aH
	DB	029H
	DB	04aH
	DB	049H
	DB	04aH
	DB	029H
	DB	04aH
	DB	029H
	DB	04aH
	DB	049H
	DB	04aH
	DB	049H
	DB	04aH
	DB	049H
	DB	04aH
	DB	049H
	DB	04aH
	DB	028H
	DB	042H
	DB	049H
	DB	04aH
	DB	029H
	DB	04aH
	DB	049H
	DB	04aH
	DB	029H
	DB	04aH
	DB	049H
	DB	04aH
	DB	049H
	DB	04aH
	DB	049H
	DB	04aH
	DB	029H
	DB	04aH
	DB	049H
	DB	04aH
	DB	048H
	DB	042H
	DB	049H
	DB	04aH
	DB	029H
	DB	04aH
	DB	048H
	DB	042H
	DB	049H
	DB	04aH
	DB	029H
	DB	04aH
	DB	049H
	DB	04aH
	DB	049H
	DB	04aH
	DB	049H
	DB	04aH
	DB	049H
	DB	04aH
	DB	048H
	DB	042H
	DB	049H
	DB	04aH
	DB	049H
	DB	04aH
	DB	029H
	DB	04aH
	DB	049H
	DB	04aH
	DB	0cbH
	DB	05aH
	DB	0cbH
	DB	05aH
	DB	049H
	DB	04aH
	DB	049H
	DB	04aH
	DB	049H
	DB	04aH
	DB	029H
	DB	04aH
	DB	049H
	DB	04aH
	DB	029H
	DB	04aH
	DB	029H
	DB	04aH
	DB	049H
	DB	04aH
	DB	049H
	DB	04aH
	DB	049H
	DB	04aH
	DB	049H
	DB	04aH
	DB	028H
	DB	042H
	DB	049H
	DB	04aH
	DB	029H
	DB	04aH
	DB	049H
	DB	04aH
	DB	029H
	DB	04aH
	DB	049H
	DB	04aH
	DB	049H
	DB	04aH
	DB	049H
	DB	04aH
	DB	029H
	DB	04aH
	DB	049H
	DB	04aH
	DB	048H
	DB	042H
	DB	049H
	DB	04aH
	DB	029H
	DB	04aH
	DB	048H
	DB	042H
	DB	049H
	DB	04aH
	DB	029H
	DB	04aH
	DB	049H
	DB	04aH
	DB	049H
	DB	04aH
	DB	049H
	DB	04aH
	DB	049H
	DB	04aH
	DB	048H
	DB	042H
	DB	049H
	DB	04aH
	DB	049H
	DB	04aH
	DB	029H
	DB	04aH
	DB	049H
	DB	04aH
	DB	0cbH
	DB	05aH
	DB	0cbH
	DB	05aH
	DB	049H
	DB	04aH
	DB	049H
	DB	04aH
	DB	049H
	DB	04aH
	DB	029H
	DB	04aH
	DB	049H
	DB	04aH
	DB	029H
	DB	04aH
	DB	029H
	DB	04aH
	DB	049H
	DB	04aH
	DB	049H
	DB	04aH
	DB	049H
	DB	04aH
	DB	049H
	DB	04aH
	DB	028H
	DB	042H
	DB	049H
	DB	04aH
	DB	029H
	DB	04aH
	DB	049H
	DB	04aH
	DB	029H
	DB	04aH
	DB	049H
	DB	04aH
	DB	049H
	DB	04aH
	DB	049H
	DB	04aH
	DB	029H
	DB	04aH
	DB	049H
	DB	04aH
	DB	048H
	DB	042H
	DB	049H
	DB	04aH
	DB	029H
	DB	04aH
	DB	048H
	DB	042H
	DB	049H
	DB	04aH
	DB	029H
	DB	04aH
	DB	049H
	DB	04aH
	DB	049H
	DB	04aH
	DB	049H
	DB	04aH
	DB	049H
	DB	04aH
	DB	048H
	DB	042H
	DB	049H
	DB	04aH
	DB	049H
	DB	04aH
	DB	029H
	DB	04aH
	DB	049H
	DB	04aH
	DB	0cbH
	DB	05aH
	DB	0cbH
	DB	05aH
	DB	049H
	DB	04aH
	DB	049H
	DB	04aH
	DB	049H
	DB	04aH
	DB	029H
	DB	04aH
	DB	049H
	DB	04aH
	DB	029H
	DB	04aH
	DB	029H
	DB	04aH
	DB	049H
	DB	04aH
	DB	049H
	DB	04aH
	DB	049H
	DB	04aH
	DB	049H
	DB	04aH
	DB	028H
	DB	042H
	DB	049H
	DB	04aH
	DB	029H
	DB	04aH
	DB	049H
	DB	04aH
	DB	029H
	DB	04aH
	DB	049H
	DB	04aH
	DB	049H
	DB	04aH
	DB	049H
	DB	04aH
	DB	029H
	DB	04aH
	DB	049H
	DB	04aH
	DB	048H
	DB	042H
	DB	049H
	DB	04aH
	DB	029H
	DB	04aH
	DB	048H
	DB	042H
	DB	049H
	DB	04aH
	DB	029H
	DB	04aH
	DB	049H
	DB	04aH
	DB	049H
	DB	04aH
	DB	049H
	DB	04aH
	DB	049H
	DB	04aH
	DB	048H
	DB	042H
	DB	049H
	DB	04aH
	DB	049H
	DB	04aH
	DB	029H
	DB	04aH
	DB	049H
	DB	04aH
	DB	0cbH
	DB	05aH
	DB	0cbH
	DB	05aH
	DB	049H
	DB	04aH
	DB	049H
	DB	04aH
	DB	049H
	DB	04aH
	DB	029H
	DB	04aH
	DB	049H
	DB	04aH
	DB	029H
	DB	04aH
	DB	029H
	DB	04aH
	DB	049H
	DB	04aH
	DB	049H
	DB	04aH
	DB	049H
	DB	04aH
	DB	049H
	DB	04aH
	DB	028H
	DB	042H
	DB	049H
	DB	04aH
	DB	029H
	DB	04aH
	DB	049H
	DB	04aH
	DB	049H
	DB	04aH
	DB	029H
	DB	04aH
	DB	049H
	DB	04aH
	DB	049H
	DB	04aH
	DB	029H
	DB	04aH
	DB	049H
	DB	04aH
	DB	048H
	DB	042H
	DB	029H
	DB	04aH
	DB	049H
	DB	04aH
	DB	049H
	DB	04aH
	DB	029H
	DB	04aH
	DB	048H
	DB	042H
	DB	049H
	DB	04aH
	DB	029H
	DB	04aH
	DB	049H
	DB	04aH
	DB	029H
	DB	04aH
	DB	049H
	DB	04aH
	DB	029H
	DB	04aH
	DB	049H
	DB	04aH
	DB	049H
	DB	04aH
	DB	029H
	DB	04aH
	DB	08aH
	DB	052H
	DB	0efH
	DB	07bH
	DB	0efH
	DB	07bH
	DB	08aH
	DB	052H
	DB	049H
	DB	04aH
	DB	029H
	DB	04aH
	DB	049H
	DB	04aH
	DB	029H
	DB	04aH
	DB	049H
	DB	04aH
	DB	049H
	DB	04aH
	DB	048H
	DB	042H
	DB	049H
	DB	04aH
	DB	029H
	DB	04aH
	DB	049H
	DB	04aH
	DB	049H
	DB	04aH
	DB	049H
	DB	04aH
	DB	029H
	DB	04aH
	DB	049H
	DB	04aH
	DB	049H
	DB	04aH
	DB	049H
	DB	04aH
	DB	049H
	DB	04aH
	DB	048H
	DB	042H
	DB	049H
	DB	04aH
	DB	049H
	DB	04aH
	DB	028H
	DB	042H
	DB	049H
	DB	04aH
	DB	049H
	DB	04aH
	DB	049H
	DB	04aH
	DB	049H
	DB	04aH
	DB	049H
	DB	04aH
	DB	049H
	DB	04aH
	DB	049H
	DB	04aH
	DB	029H
	DB	04aH
	DB	048H
	DB	042H
	DB	049H
	DB	04aH
	DB	029H
	DB	04aH
	DB	049H
	DB	04aH
	DB	049H
	DB	04aH
	DB	029H
	DB	04aH
	DB	049H
	DB	04aH
	DB	0cbH
	DB	05aH
	DB	0ebH
	DB	05aH
	DB	049H
	DB	04aH
	DB	049H
	DB	04aH
	DB	049H
	DB	04aH
	DB	048H
	DB	042H
	DB	049H
	DB	04aH
	DB	029H
	DB	04aH
	DB	048H
	DB	042H
	DB	049H
	DB	04aH
	DB	029H
	DB	04aH
	DB	048H
	DB	042H
	DB	049H
	DB	04aH
	DB	049H
	DB	04aH
	DB	049H
	DB	04aH
	DB	048H
	DB	042H
	DB	049H
	DB	04aH
	DB	049H
	DB	04aH
	DB	048H
	DB	042H
	DB	029H
	DB	04aH
	DB	049H
	DB	04aH
	DB	049H
	DB	04aH
	DB	049H
	DB	04aH
	DB	049H
	DB	04aH
	DB	049H
	DB	04aH
	DB	049H
	DB	04aH
	DB	029H
	DB	04aH
	DB	049H
	DB	04aH
	DB	049H
	DB	04aH
	DB	028H
	DB	042H
	DB	049H
	DB	04aH
	DB	029H
	DB	04aH
	DB	029H
	DB	04aH
	DB	049H
	DB	04aH
	DB	049H
	DB	04aH
	DB	049H
	DB	04aH
	DB	049H
	DB	04aH
	DB	049H
	DB	04aH
	DB	0cbH
	DB	05aH
	DB	0cbH
	DB	05aH
	DB	049H
	DB	04aH
	DB	049H
	DB	04aH
	DB	049H
	DB	04aH
	DB	049H
	DB	04aH
	DB	048H
	DB	042H
	DB	029H
	DB	04aH
	DB	049H
	DB	04aH
	DB	048H
	DB	042H
	DB	049H
	DB	04aH
	DB	049H
	DB	04aH
	DB	049H
	DB	04aH
	DB	049H
	DB	04aH
	DB	029H
	DB	04aH
	DB	048H
	DB	042H
	DB	049H
	DB	04aH
	DB	049H
	DB	04aH
	DB	048H
	DB	042H
	DB	049H
	DB	04aH
	DB	049H
	DB	04aH
	DB	029H
	DB	04aH
	DB	049H
	DB	04aH
	DB	049H
	DB	04aH
	DB	049H
	DB	04aH
	DB	049H
	DB	04aH
	DB	049H
	DB	04aH
	DB	029H
	DB	04aH
	DB	049H
	DB	04aH
	DB	048H
	DB	042H
	DB	029H
	DB	04aH
	DB	049H
	DB	04aH
	DB	049H
	DB	04aH
	DB	049H
	DB	04aH
	DB	029H
	DB	04aH
	DB	049H
	DB	04aH
	DB	049H
	DB	04aH
	DB	049H
	DB	04aH
	DB	0cbH
	DB	05aH
	DB	0cbH
	DB	05aH
	DB	049H
	DB	04aH
	DB	049H
	DB	04aH
	DB	049H
	DB	04aH
	DB	049H
	DB	04aH
	DB	048H
	DB	042H
	DB	049H
	DB	04aH
	DB	049H
	DB	04aH
	DB	048H
	DB	042H
	DB	049H
	DB	04aH
	DB	029H
	DB	04aH
	DB	049H
	DB	04aH
	DB	049H
	DB	04aH
	DB	049H
	DB	04aH
	DB	048H
	DB	042H
	DB	029H
	DB	04aH
	DB	049H
	DB	04aH
	DB	048H
	DB	042H
	DB	049H
	DB	04aH
	DB	029H
	DB	04aH
	DB	049H
	DB	04aH
	DB	049H
	DB	04aH
	DB	029H
	DB	04aH
	DB	049H
	DB	04aH
	DB	049H
	DB	04aH
	DB	049H
	DB	04aH
	DB	049H
	DB	04aH
	DB	049H
	DB	04aH
	DB	028H
	DB	042H
	DB	049H
	DB	04aH
	DB	049H
	DB	04aH
	DB	029H
	DB	04aH
	DB	049H
	DB	04aH
	DB	049H
	DB	04aH
	DB	049H
	DB	04aH
	DB	049H
	DB	04aH
	DB	049H
	DB	04aH
	DB	0ebH
	DB	05aH
	DB	0cbH
	DB	05aH
	DB	049H
	DB	04aH
	DB	049H
	DB	04aH
	DB	049H
	DB	04aH
	DB	049H
	DB	04aH
	DB	048H
	DB	042H
	DB	049H
	DB	04aH
	DB	049H
	DB	04aH
	DB	048H
	DB	042H
	DB	049H
	DB	04aH
	DB	029H
	DB	04aH
	DB	049H
	DB	04aH
	DB	049H
	DB	04aH
	DB	049H
	DB	04aH
	DB	048H
	DB	042H
	DB	029H
	DB	04aH
	DB	049H
	DB	04aH
	DB	048H
	DB	042H
	DB	049H
	DB	04aH
	DB	029H
	DB	04aH
	DB	049H
	DB	04aH
	DB	049H
	DB	04aH
	DB	029H
	DB	04aH
	DB	049H
	DB	04aH
	DB	049H
	DB	04aH
	DB	049H
	DB	04aH
	DB	049H
	DB	04aH
	DB	049H
	DB	04aH
	DB	028H
	DB	042H
	DB	049H
	DB	04aH
	DB	049H
	DB	04aH
	DB	029H
	DB	04aH
	DB	049H
	DB	04aH
	DB	049H
	DB	04aH
	DB	049H
	DB	04aH
	DB	049H
	DB	04aH
	DB	049H
	DB	04aH
	DB	0ebH
	DB	05aH
	DB	0cbH
	DB	05aH
	DB	049H
	DB	04aH
	DB	049H
	DB	04aH
	DB	049H
	DB	04aH
	DB	049H
	DB	04aH
	DB	048H
	DB	042H
	DB	049H
	DB	04aH
	DB	049H
	DB	04aH
	DB	048H
	DB	042H
	DB	049H
	DB	04aH
	DB	029H
	DB	04aH
	DB	049H
	DB	04aH
	DB	049H
	DB	04aH
	DB	049H
	DB	04aH
	DB	048H
	DB	042H
	DB	029H
	DB	04aH
	DB	049H
	DB	04aH
	DB	048H
	DB	042H
	DB	049H
	DB	04aH
	DB	029H
	DB	04aH
	DB	049H
	DB	04aH
	DB	049H
	DB	04aH
	DB	029H
	DB	04aH
	DB	049H
	DB	04aH
	DB	049H
	DB	04aH
	DB	049H
	DB	04aH
	DB	049H
	DB	04aH
	DB	049H
	DB	04aH
	DB	028H
	DB	042H
	DB	049H
	DB	04aH
	DB	049H
	DB	04aH
	DB	029H
	DB	04aH
	DB	049H
	DB	04aH
	DB	049H
	DB	04aH
	DB	049H
	DB	04aH
	DB	049H
	DB	04aH
	DB	049H
	DB	04aH
	DB	0ebH
	DB	05aH
	DB	0cbH
	DB	05aH
	DB	049H
	DB	04aH
	DB	049H
	DB	04aH
	DB	049H
	DB	04aH
	DB	049H
	DB	04aH
	DB	048H
	DB	042H
	DB	049H
	DB	04aH
	DB	049H
	DB	04aH
	DB	048H
	DB	042H
	DB	049H
	DB	04aH
	DB	029H
	DB	04aH
	DB	049H
	DB	04aH
	DB	049H
	DB	04aH
	DB	049H
	DB	04aH
	DB	048H
	DB	042H
	DB	029H
	DB	04aH
	DB	049H
	DB	04aH
	DB	048H
	DB	042H
	DB	049H
	DB	04aH
	DB	029H
	DB	04aH
	DB	049H
	DB	04aH
	DB	049H
	DB	04aH
	DB	029H
	DB	04aH
	DB	049H
	DB	04aH
	DB	049H
	DB	04aH
	DB	049H
	DB	04aH
	DB	049H
	DB	04aH
	DB	049H
	DB	04aH
	DB	028H
	DB	042H
	DB	049H
	DB	04aH
	DB	049H
	DB	04aH
	DB	029H
	DB	04aH
	DB	049H
	DB	04aH
	DB	049H
	DB	04aH
	DB	049H
	DB	04aH
	DB	049H
	DB	04aH
	DB	049H
	DB	04aH
	DB	0ebH
	DB	05aH
	DB	0cbH
	DB	05aH
	DB	049H
	DB	04aH
	DB	049H
	DB	04aH
	DB	049H
	DB	04aH
	DB	049H
	DB	04aH
	DB	048H
	DB	042H
	DB	049H
	DB	04aH
	DB	049H
	DB	04aH
	DB	048H
	DB	042H
	DB	049H
	DB	04aH
	DB	029H
	DB	04aH
	DB	049H
	DB	04aH
	DB	049H
	DB	04aH
	DB	049H
	DB	04aH
	DB	048H
	DB	042H
	DB	029H
	DB	04aH
	DB	049H
	DB	04aH
	DB	048H
	DB	042H
	DB	049H
	DB	04aH
	DB	029H
	DB	04aH
	DB	049H
	DB	04aH
	DB	049H
	DB	04aH
	DB	049H
	DB	04aH
	DB	049H
	DB	04aH
	DB	049H
	DB	04aH
	DB	049H
	DB	04aH
	DB	049H
	DB	04aH
	DB	049H
	DB	04aH
	DB	049H
	DB	04aH
	DB	049H
	DB	04aH
	DB	048H
	DB	042H
	DB	049H
	DB	04aH
	DB	029H
	DB	04aH
	DB	049H
	DB	04aH
	DB	049H
	DB	04aH
	DB	029H
	DB	04aH
	DB	049H
	DB	04aH
	DB	08aH
	DB	052H
	DB	0efH
	DB	07bH
	DB	0efH
	DB	07bH
	DB	08aH
	DB	052H
	DB	049H
	DB	04aH
	DB	049H
	DB	04aH
	DB	049H
	DB	04aH
	DB	049H
	DB	04aH
	DB	029H
	DB	04aH
	DB	049H
	DB	04aH
	DB	049H
	DB	04aH
	DB	029H
	DB	04aH
	DB	049H
	DB	04aH
	DB	048H
	DB	042H
	DB	029H
	DB	04aH
	DB	049H
	DB	04aH
	DB	049H
	DB	04aH
	DB	029H
	DB	04aH
	DB	048H
	DB	042H
	DB	049H
	DB	04aH
	DB	029H
	DB	04aH
	DB	029H
	DB	04aH
	DB	049H
	DB	04aH
	DB	049H
	DB	04aH
	DB	049H
	DB	04aH
	DB	049H
	DB	04aH
	DB	028H
	DB	042H
	DB	049H
	DB	04aH
	DB	029H
	DB	04aH
	DB	048H
	DB	042H
	DB	049H
	DB	04aH
	DB	049H
	DB	04aH
	DB	049H
	DB	04aH
	DB	049H
	DB	04aH
	DB	049H
	DB	04aH
	DB	049H
	DB	04aH
	DB	049H
	DB	04aH
	DB	048H
	DB	042H
	DB	049H
	DB	04aH
	DB	049H
	DB	04aH
	DB	0cbH
	DB	05aH
	DB	0cbH
	DB	05aH
	DB	049H
	DB	04aH
	DB	049H
	DB	04aH
	DB	029H
	DB	04aH
	DB	049H
	DB	04aH
	DB	049H
	DB	04aH
	DB	049H
	DB	04aH
	DB	049H
	DB	04aH
	DB	049H
	DB	04aH
	DB	029H
	DB	04aH
	DB	049H
	DB	04aH
	DB	029H
	DB	04aH
	DB	029H
	DB	04aH
	DB	049H
	DB	04aH
	DB	049H
	DB	04aH
	DB	029H
	DB	04aH
	DB	049H
	DB	04aH
	DB	049H
	DB	04aH
	DB	049H
	DB	04aH
	DB	029H
	DB	04aH
	DB	048H
	DB	042H
	DB	029H
	DB	04aH
	DB	049H
	DB	04aH
	DB	049H
	DB	04aH
	DB	029H
	DB	04aH
	DB	049H
	DB	04aH
	DB	049H
	DB	04aH
	DB	049H
	DB	04aH
	DB	049H
	DB	04aH
	DB	049H
	DB	04aH
	DB	049H
	DB	04aH
	DB	048H
	DB	042H
	DB	049H
	DB	04aH
	DB	029H
	DB	04aH
	DB	049H
	DB	04aH
	DB	049H
	DB	04aH
	DB	049H
	DB	04aH
	DB	0cbH
	DB	05aH
	DB	0cbH
	DB	05aH
	DB	049H
	DB	04aH
	DB	049H
	DB	04aH
	DB	029H
	DB	04aH
	DB	049H
	DB	04aH
	DB	049H
	DB	04aH
	DB	049H
	DB	04aH
	DB	029H
	DB	04aH
	DB	049H
	DB	04aH
	DB	029H
	DB	04aH
	DB	048H
	DB	042H
	DB	049H
	DB	04aH
	DB	029H
	DB	04aH
	DB	049H
	DB	04aH
	DB	049H
	DB	04aH
	DB	029H
	DB	04aH
	DB	049H
	DB	04aH
	DB	049H
	DB	04aH
	DB	049H
	DB	04aH
	DB	049H
	DB	04aH
	DB	048H
	DB	042H
	DB	029H
	DB	04aH
	DB	049H
	DB	04aH
	DB	049H
	DB	04aH
	DB	029H
	DB	04aH
	DB	049H
	DB	04aH
	DB	049H
	DB	04aH
	DB	029H
	DB	04aH
	DB	049H
	DB	04aH
	DB	049H
	DB	04aH
	DB	049H
	DB	04aH
	DB	048H
	DB	042H
	DB	029H
	DB	04aH
	DB	049H
	DB	04aH
	DB	049H
	DB	04aH
	DB	049H
	DB	04aH
	DB	049H
	DB	04aH
	DB	0cbH
	DB	05aH
	DB	0ebH
	DB	05aH
	DB	049H
	DB	04aH
	DB	029H
	DB	04aH
	DB	049H
	DB	04aH
	DB	029H
	DB	04aH
	DB	049H
	DB	04aH
	DB	049H
	DB	04aH
	DB	029H
	DB	04aH
	DB	049H
	DB	04aH
	DB	049H
	DB	04aH
	DB	028H
	DB	042H
	DB	049H
	DB	04aH
	DB	049H
	DB	04aH
	DB	049H
	DB	04aH
	DB	049H
	DB	04aH
	DB	049H
	DB	04aH
	DB	049H
	DB	04aH
	DB	029H
	DB	04aH
	DB	049H
	DB	04aH
	DB	049H
	DB	04aH
	DB	048H
	DB	042H
	DB	049H
	DB	04aH
	DB	029H
	DB	04aH
	DB	049H
	DB	04aH
	DB	049H
	DB	04aH
	DB	029H
	DB	04aH
	DB	049H
	DB	04aH
	DB	049H
	DB	04aH
	DB	049H
	DB	04aH
	DB	029H
	DB	04aH
	DB	049H
	DB	04aH
	DB	048H
	DB	042H
	DB	029H
	DB	04aH
	DB	029H
	DB	04aH
	DB	049H
	DB	04aH
	DB	049H
	DB	04aH
	DB	049H
	DB	04aH
	DB	0cbH
	DB	05aH
	DB	0cbH
	DB	05aH
	DB	049H
	DB	04aH
	DB	049H
	DB	04aH
	DB	029H
	DB	04aH
	DB	049H
	DB	04aH
	DB	049H
	DB	04aH
	DB	029H
	DB	04aH
	DB	049H
	DB	04aH
	DB	049H
	DB	04aH
	DB	029H
	DB	04aH
	DB	048H
	DB	042H
	DB	049H
	DB	04aH
	DB	049H
	DB	04aH
	DB	029H
	DB	04aH
	DB	049H
	DB	04aH
	DB	049H
	DB	04aH
	DB	049H
	DB	04aH
	DB	029H
	DB	04aH
	DB	049H
	DB	04aH
	DB	049H
	DB	04aH
	DB	048H
	DB	042H
	DB	049H
	DB	04aH
	DB	029H
	DB	04aH
	DB	049H
	DB	04aH
	DB	049H
	DB	04aH
	DB	029H
	DB	04aH
	DB	049H
	DB	04aH
	DB	049H
	DB	04aH
	DB	049H
	DB	04aH
	DB	029H
	DB	04aH
	DB	049H
	DB	04aH
	DB	048H
	DB	042H
	DB	029H
	DB	04aH
	DB	029H
	DB	04aH
	DB	049H
	DB	04aH
	DB	049H
	DB	04aH
	DB	049H
	DB	04aH
	DB	0cbH
	DB	05aH
	DB	0cbH
	DB	05aH
	DB	049H
	DB	04aH
	DB	049H
	DB	04aH
	DB	029H
	DB	04aH
	DB	049H
	DB	04aH
	DB	049H
	DB	04aH
	DB	029H
	DB	04aH
	DB	049H
	DB	04aH
	DB	049H
	DB	04aH
	DB	029H
	DB	04aH
	DB	048H
	DB	042H
	DB	049H
	DB	04aH
	DB	049H
	DB	04aH
	DB	029H
	DB	04aH
	DB	049H
	DB	04aH
	DB	049H
	DB	04aH
	DB	049H
	DB	04aH
	DB	029H
	DB	04aH
	DB	049H
	DB	04aH
	DB	049H
	DB	04aH
	DB	048H
	DB	042H
	DB	049H
	DB	04aH
	DB	029H
	DB	04aH
	DB	049H
	DB	04aH
	DB	049H
	DB	04aH
	DB	029H
	DB	04aH
	DB	049H
	DB	04aH
	DB	049H
	DB	04aH
	DB	049H
	DB	04aH
	DB	029H
	DB	04aH
	DB	049H
	DB	04aH
	DB	048H
	DB	042H
	DB	029H
	DB	04aH
	DB	029H
	DB	04aH
	DB	049H
	DB	04aH
	DB	049H
	DB	04aH
	DB	049H
	DB	04aH
	DB	0cbH
	DB	05aH
	DB	0cbH
	DB	05aH
	DB	049H
	DB	04aH
	DB	049H
	DB	04aH
	DB	029H
	DB	04aH
	DB	049H
	DB	04aH
	DB	049H
	DB	04aH
	DB	029H
	DB	04aH
	DB	049H
	DB	04aH
	DB	049H
	DB	04aH
	DB	029H
	DB	04aH
	DB	048H
	DB	042H
	DB	049H
	DB	04aH
	DB	049H
	DB	04aH
	DB	029H
	DB	04aH
	DB	049H
	DB	04aH
	DB	049H
	DB	04aH
	DB	049H
	DB	04aH
	DB	029H
	DB	04aH
	DB	049H
	DB	04aH
	DB	049H
	DB	04aH
	DB	048H
	DB	042H
	DB	049H
	DB	04aH
	DB	029H
	DB	04aH
	DB	049H
	DB	04aH
	DB	049H
	DB	04aH
	DB	029H
	DB	04aH
	DB	049H
	DB	04aH
	DB	049H
	DB	04aH
	DB	049H
	DB	04aH
	DB	029H
	DB	04aH
	DB	049H
	DB	04aH
	DB	048H
	DB	042H
	DB	029H
	DB	04aH
	DB	029H
	DB	04aH
	DB	049H
	DB	04aH
	DB	049H
	DB	04aH
	DB	049H
	DB	04aH
	DB	0cbH
	DB	05aH
	DB	0cbH
	DB	05aH
	DB	049H
	DB	04aH
	DB	049H
	DB	04aH
	DB	029H
	DB	04aH
	DB	049H
	DB	04aH
	DB	049H
	DB	04aH
	DB	029H
	DB	04aH
	DB	049H
	DB	04aH
	DB	049H
	DB	04aH
	DB	029H
	DB	04aH
	DB	048H
	DB	042H
	DB	049H
	DB	04aH
	DB	049H
	DB	04aH
	DB	029H
	DB	04aH
	DB	049H
	DB	04aH
	DB	049H
	DB	04aH
	DB	049H
	DB	04aH
	DB	049H
	DB	04aH
	DB	029H
	DB	04aH
	DB	049H
	DB	04aH
	DB	048H
	DB	042H
	DB	029H
	DB	04aH
	DB	049H
	DB	04aH
	DB	029H
	DB	04aH
	DB	049H
	DB	04aH
	DB	028H
	DB	042H
	DB	049H
	DB	04aH
	DB	029H
	DB	04aH
	DB	029H
	DB	04aH
	DB	049H
	DB	04aH
	DB	049H
	DB	04aH
	DB	049H
	DB	04aH
	DB	048H
	DB	042H
	DB	049H
	DB	04aH
	DB	049H
	DB	04aH
	DB	048H
	DB	042H
	DB	049H
	DB	04aH
	DB	08aH
	DB	052H
	DB	0cfH
	DB	07bH
	DB	0efH
	DB	07bH
	DB	08aH
	DB	052H
	DB	029H
	DB	04aH
	DB	049H
	DB	04aH
	DB	049H
	DB	04aH
	DB	048H
	DB	042H
	DB	029H
	DB	04aH
	DB	049H
	DB	04aH
	DB	049H
	DB	04aH
	DB	049H
	DB	04aH
	DB	049H
	DB	04aH
	DB	049H
	DB	04aH
	DB	029H
	DB	04aH
	DB	049H
	DB	04aH
	DB	049H
	DB	04aH
	DB	049H
	DB	04aH
	DB	049H
	DB	04aH
	DB	049H
	DB	04aH
	DB	049H
	DB	04aH
	DB	049H
	DB	04aH
	DB	029H
	DB	04aH
	DB	049H
	DB	04aH
	DB	049H
	DB	04aH
	DB	029H
	DB	04aH
	DB	049H
	DB	04aH
	DB	049H
	DB	04aH
	DB	049H
	DB	04aH
	DB	029H
	DB	04aH
	DB	029H
	DB	04aH
	DB	049H
	DB	04aH
	DB	029H
	DB	04aH
	DB	049H
	DB	04aH
	DB	029H
	DB	04aH
	DB	049H
	DB	04aH
	DB	029H
	DB	04aH
	DB	049H
	DB	04aH
	DB	049H
	DB	04aH
	DB	049H
	DB	04aH
	DB	0cbH
	DB	05aH
	DB	0cbH
	DB	05aH
	DB	049H
	DB	04aH
	DB	049H
	DB	04aH
	DB	029H
	DB	04aH
	DB	049H
	DB	04aH
	DB	029H
	DB	04aH
	DB	049H
	DB	04aH
	DB	049H
	DB	04aH
	DB	028H
	DB	042H
	DB	049H
	DB	04aH
	DB	049H
	DB	04aH
	DB	049H
	DB	04aH
	DB	049H
	DB	04aH
	DB	049H
	DB	04aH
	DB	029H
	DB	04aH
	DB	049H
	DB	04aH
	DB	049H
	DB	04aH
	DB	029H
	DB	04aH
	DB	049H
	DB	04aH
	DB	049H
	DB	04aH
	DB	049H
	DB	04aH
	DB	029H
	DB	04aH
	DB	048H
	DB	042H
	DB	049H
	DB	04aH
	DB	029H
	DB	04aH
	DB	048H
	DB	042H
	DB	049H
	DB	04aH
	DB	029H
	DB	04aH
	DB	049H
	DB	04aH
	DB	049H
	DB	04aH
	DB	029H
	DB	04aH
	DB	049H
	DB	04aH
	DB	049H
	DB	04aH
	DB	029H
	DB	04aH
	DB	048H
	DB	042H
	DB	049H
	DB	04aH
	DB	049H
	DB	04aH
	DB	0cbH
	DB	05aH
	DB	0ebH
	DB	05aH
	DB	049H
	DB	04aH
	DB	049H
	DB	04aH
	DB	029H
	DB	04aH
	DB	049H
	DB	04aH
	DB	049H
	DB	04aH
	DB	028H
	DB	042H
	DB	049H
	DB	04aH
	DB	049H
	DB	04aH
	DB	029H
	DB	04aH
	DB	049H
	DB	04aH
	DB	049H
	DB	04aH
	DB	049H
	DB	04aH
	DB	049H
	DB	04aH
	DB	049H
	DB	04aH
	DB	049H
	DB	04aH
	DB	029H
	DB	04aH
	DB	049H
	DB	04aH
	DB	029H
	DB	04aH
	DB	049H
	DB	04aH
	DB	049H
	DB	04aH
	DB	049H
	DB	04aH
	DB	028H
	DB	042H
	DB	049H
	DB	04aH
	DB	049H
	DB	04aH
	DB	048H
	DB	042H
	DB	049H
	DB	04aH
	DB	049H
	DB	04aH
	DB	029H
	DB	04aH
	DB	049H
	DB	04aH
	DB	049H
	DB	04aH
	DB	029H
	DB	04aH
	DB	049H
	DB	04aH
	DB	049H
	DB	04aH
	DB	028H
	DB	042H
	DB	049H
	DB	04aH
	DB	049H
	DB	04aH
	DB	0cbH
	DB	05aH
	DB	0cbH
	DB	05aH
	DB	049H
	DB	04aH
	DB	049H
	DB	04aH
	DB	049H
	DB	04aH
	DB	029H
	DB	04aH
	DB	049H
	DB	04aH
	DB	048H
	DB	042H
	DB	029H
	DB	04aH
	DB	049H
	DB	04aH
	DB	049H
	DB	04aH
	DB	049H
	DB	04aH
	DB	029H
	DB	04aH
	DB	049H
	DB	04aH
	DB	029H
	DB	04aH
	DB	029H
	DB	04aH
	DB	049H
	DB	04aH
	DB	049H
	DB	04aH
	DB	049H
	DB	04aH
	DB	029H
	DB	04aH
	DB	049H
	DB	04aH
	DB	049H
	DB	04aH
	DB	029H
	DB	04aH
	DB	048H
	DB	042H
	DB	049H
	DB	04aH
	DB	049H
	DB	04aH
	DB	028H
	DB	042H
	DB	049H
	DB	04aH
	DB	049H
	DB	04aH
	DB	029H
	DB	04aH
	DB	049H
	DB	04aH
	DB	049H
	DB	04aH
	DB	049H
	DB	04aH
	DB	049H
	DB	04aH
	DB	049H
	DB	04aH
	DB	028H
	DB	042H
	DB	049H
	DB	04aH
	DB	049H
	DB	04aH
	DB	0cbH
	DB	05aH
	DB	0ebH
	DB	05aH
	DB	049H
	DB	04aH
	DB	049H
	DB	04aH
	DB	029H
	DB	04aH
	DB	049H
	DB	04aH
	DB	049H
	DB	04aH
	DB	028H
	DB	042H
	DB	049H
	DB	04aH
	DB	049H
	DB	04aH
	DB	049H
	DB	04aH
	DB	049H
	DB	04aH
	DB	029H
	DB	04aH
	DB	049H
	DB	04aH
	DB	049H
	DB	04aH
	DB	029H
	DB	04aH
	DB	049H
	DB	04aH
	DB	049H
	DB	04aH
	DB	049H
	DB	04aH
	DB	029H
	DB	04aH
	DB	049H
	DB	04aH
	DB	049H
	DB	04aH
	DB	029H
	DB	04aH
	DB	048H
	DB	042H
	DB	049H
	DB	04aH
	DB	049H
	DB	04aH
	DB	028H
	DB	042H
	DB	049H
	DB	04aH
	DB	049H
	DB	04aH
	DB	029H
	DB	04aH
	DB	049H
	DB	04aH
	DB	049H
	DB	04aH
	DB	049H
	DB	04aH
	DB	049H
	DB	04aH
	DB	049H
	DB	04aH
	DB	028H
	DB	042H
	DB	049H
	DB	04aH
	DB	049H
	DB	04aH
	DB	0cbH
	DB	05aH
	DB	0ebH
	DB	05aH
	DB	049H
	DB	04aH
	DB	049H
	DB	04aH
	DB	029H
	DB	04aH
	DB	049H
	DB	04aH
	DB	049H
	DB	04aH
	DB	028H
	DB	042H
	DB	049H
	DB	04aH
	DB	049H
	DB	04aH
	DB	049H
	DB	04aH
	DB	049H
	DB	04aH
	DB	029H
	DB	04aH
	DB	049H
	DB	04aH
	DB	049H
	DB	04aH
	DB	029H
	DB	04aH
	DB	049H
	DB	04aH
	DB	049H
	DB	04aH
	DB	049H
	DB	04aH
	DB	029H
	DB	04aH
	DB	049H
	DB	04aH
	DB	049H
	DB	04aH
	DB	029H
	DB	04aH
	DB	048H
	DB	042H
	DB	049H
	DB	04aH
	DB	049H
	DB	04aH
	DB	028H
	DB	042H
	DB	049H
	DB	04aH
	DB	049H
	DB	04aH
	DB	029H
	DB	04aH
	DB	049H
	DB	04aH
	DB	049H
	DB	04aH
	DB	049H
	DB	04aH
	DB	049H
	DB	04aH
	DB	049H
	DB	04aH
	DB	028H
	DB	042H
	DB	049H
	DB	04aH
	DB	049H
	DB	04aH
	DB	0cbH
	DB	05aH
	DB	0ebH
	DB	05aH
	DB	049H
	DB	04aH
	DB	049H
	DB	04aH
	DB	029H
	DB	04aH
	DB	049H
	DB	04aH
	DB	049H
	DB	04aH
	DB	028H
	DB	042H
	DB	049H
	DB	04aH
	DB	049H
	DB	04aH
	DB	049H
	DB	04aH
	DB	049H
	DB	04aH
	DB	029H
	DB	04aH
	DB	049H
	DB	04aH
	DB	049H
	DB	04aH
	DB	029H
	DB	04aH
	DB	049H
	DB	04aH
	DB	049H
	DB	04aH
	DB	049H
	DB	04aH
	DB	029H
	DB	04aH
	DB	049H
	DB	04aH
	DB	049H
	DB	04aH
	DB	029H
	DB	04aH
	DB	048H
	DB	042H
	DB	049H
	DB	04aH
	DB	049H
	DB	04aH
	DB	028H
	DB	042H
	DB	049H
	DB	04aH
	DB	049H
	DB	04aH
	DB	029H
	DB	04aH
	DB	049H
	DB	04aH
	DB	049H
	DB	04aH
	DB	049H
	DB	04aH
	DB	049H
	DB	04aH
	DB	049H
	DB	04aH
	DB	028H
	DB	042H
	DB	049H
	DB	04aH
	DB	049H
	DB	04aH
	DB	0cbH
	DB	05aH
	DB	0ebH
	DB	05aH
	DB	049H
	DB	04aH
	DB	049H
	DB	04aH
	DB	029H
	DB	04aH
	DB	049H
	DB	04aH
	DB	049H
	DB	04aH
	DB	028H
	DB	042H
	DB	049H
	DB	04aH
	DB	049H
	DB	04aH
	DB	049H
	DB	04aH
	DB	049H
	DB	04aH
	DB	029H
	DB	04aH
	DB	049H
	DB	04aH
	DB	049H
	DB	04aH
	DB	029H
	DB	04aH
	DB	049H
	DB	04aH
	DB	049H
	DB	04aH
	DB	029H
	DB	04aH
	DB	049H
	DB	04aH
	DB	049H
	DB	04aH
	DB	049H
	DB	04aH
	DB	049H
	DB	04aH
	DB	049H
	DB	04aH
	DB	049H
	DB	04aH
	DB	029H
	DB	04aH
	DB	049H
	DB	04aH
	DB	049H
	DB	04aH
	DB	049H
	DB	04aH
	DB	048H
	DB	042H
	DB	029H
	DB	04aH
	DB	049H
	DB	04aH
	DB	029H
	DB	04aH
	DB	049H
	DB	04aH
	DB	029H
	DB	04aH
	DB	049H
	DB	04aH
	DB	049H
	DB	04aH
	DB	029H
	DB	04aH
	DB	08aH
	DB	052H
	DB	0efH
	DB	07bH
	DB	0efH
	DB	07bH
	DB	08aH
	DB	052H
	DB	049H
	DB	04aH
	DB	029H
	DB	04aH
	DB	049H
	DB	04aH
	DB	049H
	DB	04aH
	DB	049H
	DB	04aH
	DB	029H
	DB	04aH
	DB	048H
	DB	042H
	DB	029H
	DB	04aH
	DB	049H
	DB	04aH
	DB	049H
	DB	04aH
	DB	048H
	DB	042H
	DB	049H
	DB	04aH
	DB	029H
	DB	04aH
	DB	048H
	DB	042H
	DB	029H
	DB	04aH
	DB	049H
	DB	04aH
	DB	048H
	DB	042H
	DB	049H
	DB	04aH
	DB	049H
	DB	04aH
	DB	028H
	DB	042H
	DB	049H
	DB	04aH
	DB	049H
	DB	04aH
	DB	049H
	DB	04aH
	DB	049H
	DB	04aH
	DB	049H
	DB	04aH
	DB	049H
	DB	04aH
	DB	049H
	DB	04aH
	DB	048H
	DB	042H
	DB	049H
	DB	04aH
	DB	029H
	DB	04aH
	DB	048H
	DB	042H
	DB	049H
	DB	04aH
	DB	049H
	DB	04aH
	DB	029H
	DB	04aH
	DB	049H
	DB	04aH
	DB	049H
	DB	04aH
	DB	0cbH
	DB	05aH
	DB	0ebH
	DB	05aH
	DB	049H
	DB	04aH
	DB	049H
	DB	04aH
	DB	049H
	DB	04aH
	DB	048H
	DB	042H
	DB	049H
	DB	04aH
	DB	029H
	DB	04aH
	DB	049H
	DB	04aH
	DB	049H
	DB	04aH
	DB	049H
	DB	04aH
	DB	049H
	DB	04aH
	DB	048H
	DB	042H
	DB	049H
	DB	04aH
	DB	049H
	DB	04aH
	DB	048H
	DB	042H
	DB	049H
	DB	04aH
	DB	049H
	DB	04aH
	DB	028H
	DB	042H
	DB	049H
	DB	04aH
	DB	049H
	DB	04aH
	DB	049H
	DB	04aH
	DB	049H
	DB	04aH
	DB	049H
	DB	04aH
	DB	049H
	DB	04aH
	DB	049H
	DB	04aH
	DB	049H
	DB	04aH
	DB	029H
	DB	04aH
	DB	048H
	DB	042H
	DB	049H
	DB	04aH
	DB	029H
	DB	04aH
	DB	048H
	DB	042H
	DB	049H
	DB	04aH
	DB	049H
	DB	04aH
	DB	049H
	DB	04aH
	DB	029H
	DB	04aH
	DB	049H
	DB	04aH
	DB	049H
	DB	04aH
	DB	0cbH
	DB	05aH
	DB	0cbH
	DB	05aH
	DB	049H
	DB	04aH
	DB	049H
	DB	04aH
	DB	049H
	DB	04aH
	DB	049H
	DB	04aH
	DB	049H
	DB	04aH
	DB	049H
	DB	04aH
	DB	049H
	DB	04aH
	DB	049H
	DB	04aH
	DB	049H
	DB	04aH
	DB	029H
	DB	04aH
	DB	048H
	DB	042H
	DB	049H
	DB	04aH
	DB	029H
	DB	04aH
	DB	048H
	DB	042H
	DB	049H
	DB	04aH
	DB	049H
	DB	04aH
	DB	028H
	DB	042H
	DB	049H
	DB	04aH
	DB	049H
	DB	04aH
	DB	029H
	DB	04aH
	DB	049H
	DB	04aH
	DB	049H
	DB	04aH
	DB	049H
	DB	04aH
	DB	029H
	DB	04aH
	DB	049H
	DB	04aH
	DB	049H
	DB	04aH
	DB	028H
	DB	042H
	DB	049H
	DB	04aH
	DB	049H
	DB	04aH
	DB	048H
	DB	042H
	DB	049H
	DB	04aH
	DB	049H
	DB	04aH
	DB	049H
	DB	04aH
	DB	029H
	DB	04aH
	DB	049H
	DB	04aH
	DB	049H
	DB	04aH
	DB	0cbH
	DB	05aH
	DB	0cbH
	DB	05aH
	DB	049H
	DB	04aH
	DB	049H
	DB	04aH
	DB	049H
	DB	04aH
	DB	049H
	DB	04aH
	DB	049H
	DB	04aH
	DB	049H
	DB	04aH
	DB	049H
	DB	04aH
	DB	029H
	DB	04aH
	DB	049H
	DB	04aH
	DB	049H
	DB	04aH
	DB	048H
	DB	042H
	DB	049H
	DB	04aH
	DB	049H
	DB	04aH
	DB	048H
	DB	042H
	DB	029H
	DB	04aH
	DB	049H
	DB	04aH
	DB	048H
	DB	042H
	DB	049H
	DB	04aH
	DB	029H
	DB	04aH
	DB	049H
	DB	04aH
	DB	049H
	DB	04aH
	DB	049H
	DB	04aH
	DB	049H
	DB	04aH
	DB	029H
	DB	04aH
	DB	049H
	DB	04aH
	DB	049H
	DB	04aH
	DB	048H
	DB	042H
	DB	049H
	DB	04aH
	DB	049H
	DB	04aH
	DB	028H
	DB	042H
	DB	049H
	DB	04aH
	DB	049H
	DB	04aH
	DB	049H
	DB	04aH
	DB	049H
	DB	04aH
	DB	029H
	DB	04aH
	DB	049H
	DB	04aH
	DB	0cbH
	DB	05aH
	DB	0cbH
	DB	05aH
	DB	049H
	DB	04aH
	DB	049H
	DB	04aH
	DB	049H
	DB	04aH
	DB	049H
	DB	04aH
	DB	049H
	DB	04aH
	DB	049H
	DB	04aH
	DB	029H
	DB	04aH
	DB	049H
	DB	04aH
	DB	049H
	DB	04aH
	DB	029H
	DB	04aH
	DB	048H
	DB	042H
	DB	049H
	DB	04aH
	DB	049H
	DB	04aH
	DB	048H
	DB	042H
	DB	029H
	DB	04aH
	DB	049H
	DB	04aH
	DB	048H
	DB	042H
	DB	049H
	DB	04aH
	DB	029H
	DB	04aH
	DB	049H
	DB	04aH
	DB	049H
	DB	04aH
	DB	049H
	DB	04aH
	DB	049H
	DB	04aH
	DB	029H
	DB	04aH
	DB	049H
	DB	04aH
	DB	049H
	DB	04aH
	DB	048H
	DB	042H
	DB	049H
	DB	04aH
	DB	049H
	DB	04aH
	DB	028H
	DB	042H
	DB	049H
	DB	04aH
	DB	049H
	DB	04aH
	DB	049H
	DB	04aH
	DB	049H
	DB	04aH
	DB	029H
	DB	04aH
	DB	049H
	DB	04aH
	DB	0cbH
	DB	05aH
	DB	0cbH
	DB	05aH
	DB	049H
	DB	04aH
	DB	049H
	DB	04aH
	DB	049H
	DB	04aH
	DB	049H
	DB	04aH
	DB	049H
	DB	04aH
	DB	049H
	DB	04aH
	DB	029H
	DB	04aH
	DB	049H
	DB	04aH
	DB	049H
	DB	04aH
	DB	029H
	DB	04aH
	DB	048H
	DB	042H
	DB	049H
	DB	04aH
	DB	049H
	DB	04aH
	DB	048H
	DB	042H
	DB	029H
	DB	04aH
	DB	049H
	DB	04aH
	DB	048H
	DB	042H
	DB	049H
	DB	04aH
	DB	029H
	DB	04aH
	DB	049H
	DB	04aH
	DB	049H
	DB	04aH
	DB	049H
	DB	04aH
	DB	049H
	DB	04aH
	DB	029H
	DB	04aH
	DB	049H
	DB	04aH
	DB	049H
	DB	04aH
	DB	048H
	DB	042H
	DB	049H
	DB	04aH
	DB	049H
	DB	04aH
	DB	028H
	DB	042H
	DB	049H
	DB	04aH
	DB	049H
	DB	04aH
	DB	049H
	DB	04aH
	DB	049H
	DB	04aH
	DB	029H
	DB	04aH
	DB	049H
	DB	04aH
	DB	0cbH
	DB	05aH
	DB	0cbH
	DB	05aH
	DB	049H
	DB	04aH
	DB	049H
	DB	04aH
	DB	049H
	DB	04aH
	DB	049H
	DB	04aH
	DB	049H
	DB	04aH
	DB	049H
	DB	04aH
	DB	029H
	DB	04aH
	DB	049H
	DB	04aH
	DB	049H
	DB	04aH
	DB	029H
	DB	04aH
	DB	048H
	DB	042H
	DB	049H
	DB	04aH
	DB	049H
	DB	04aH
	DB	048H
	DB	042H
	DB	029H
	DB	04aH
	DB	049H
	DB	04aH
	DB	048H
	DB	042H
	DB	049H
	DB	04aH
	DB	029H
	DB	04aH
	DB	049H
	DB	04aH
	DB	049H
	DB	04aH
	DB	049H
	DB	04aH
	DB	049H
	DB	04aH
	DB	029H
	DB	04aH
	DB	049H
	DB	04aH
	DB	049H
	DB	04aH
	DB	048H
	DB	042H
	DB	049H
	DB	04aH
	DB	049H
	DB	04aH
	DB	028H
	DB	042H
	DB	049H
	DB	04aH
	DB	049H
	DB	04aH
	DB	049H
	DB	04aH
	DB	049H
	DB	04aH
	DB	029H
	DB	04aH
	DB	049H
	DB	04aH
	DB	0cbH
	DB	05aH
	DB	0cbH
	DB	05aH
	DB	049H
	DB	04aH
	DB	049H
	DB	04aH
	DB	049H
	DB	04aH
	DB	049H
	DB	04aH
	DB	049H
	DB	04aH
	DB	049H
	DB	04aH
	DB	029H
	DB	04aH
	DB	049H
	DB	04aH
	DB	049H
	DB	04aH
	DB	029H
	DB	04aH
	DB	048H
	DB	042H
	DB	049H
	DB	04aH
	DB	049H
	DB	04aH
	DB	048H
	DB	042H
	DB	029H
	DB	04aH
	DB	049H
	DB	04aH
	DB	048H
	DB	042H
	DB	049H
	DB	04aH
	DB	029H
	DB	04aH
	DB	049H
	DB	04aH
	DB	048H
	DB	042H
	DB	029H
	DB	04aH
	DB	049H
	DB	04aH
	DB	048H
	DB	042H
	DB	049H
	DB	04aH
	DB	049H
	DB	04aH
	DB	049H
	DB	04aH
	DB	049H
	DB	04aH
	DB	049H
	DB	04aH
	DB	049H
	DB	04aH
	DB	049H
	DB	04aH
	DB	029H
	DB	04aH
	DB	049H
	DB	04aH
	DB	049H
	DB	04aH
	DB	029H
	DB	04aH
	DB	049H
	DB	04aH
	DB	08aH
	DB	052H
	DB	0efH
	DB	07bH
	DB	0efH
	DB	07bH
	DB	08aH
	DB	052H
	DB	049H
	DB	04aH
	DB	049H
	DB	04aH
	DB	029H
	DB	04aH
	DB	049H
	DB	04aH
	DB	049H
	DB	04aH
	DB	049H
	DB	04aH
	DB	049H
	DB	04aH
	DB	049H
	DB	04aH
	DB	029H
	DB	04aH
	DB	049H
	DB	04aH
	DB	049H
	DB	04aH
	DB	029H
	DB	04aH
	DB	049H
	DB	04aH
	DB	049H
	DB	04aH
	DB	049H
	DB	04aH
	DB	029H
	DB	04aH
	DB	029H
	DB	04aH
	DB	049H
	DB	04aH
	DB	049H
	DB	04aH
	DB	049H
	DB	04aH
	DB	029H
	DB	04aH
	DB	048H
	DB	042H
	DB	029H
	DB	04aH
	DB	029H
	DB	04aH
	DB	048H
	DB	042H
	DB	049H
	DB	04aH
	DB	029H
	DB	04aH
	DB	049H
	DB	04aH
	DB	049H
	DB	04aH
	DB	049H
	DB	04aH
	DB	049H
	DB	04aH
	DB	049H
	DB	04aH
	DB	048H
	DB	042H
	DB	029H
	DB	04aH
	DB	049H
	DB	04aH
	DB	049H
	DB	04aH
	DB	0cbH
	DB	05aH
	DB	0cbH
	DB	05aH
	DB	049H
	DB	04aH
	DB	049H
	DB	04aH
	DB	029H
	DB	04aH
	DB	049H
	DB	04aH
	DB	049H
	DB	04aH
	DB	049H
	DB	04aH
	DB	028H
	DB	042H
	DB	049H
	DB	04aH
	DB	049H
	DB	04aH
	DB	029H
	DB	04aH
	DB	029H
	DB	04aH
	DB	049H
	DB	04aH
	DB	029H
	DB	04aH
	DB	049H
	DB	04aH
	DB	049H
	DB	04aH
	DB	029H
	DB	04aH
	DB	049H
	DB	04aH
	DB	049H
	DB	04aH
	DB	028H
	DB	042H
	DB	049H
	DB	04aH
	DB	029H
	DB	04aH
	DB	049H
	DB	04aH
	DB	029H
	DB	04aH
	DB	049H
	DB	04aH
	DB	049H
	DB	04aH
	DB	049H
	DB	04aH
	DB	049H
	DB	04aH
	DB	049H
	DB	04aH
	DB	049H
	DB	04aH
	DB	049H
	DB	04aH
	DB	029H
	DB	04aH
	DB	049H
	DB	04aH
	DB	049H
	DB	04aH
	DB	029H
	DB	04aH
	DB	049H
	DB	04aH
	DB	049H
	DB	04aH
	DB	0cbH
	DB	05aH
	DB	0cbH
	DB	05aH
	DB	049H
	DB	04aH
	DB	049H
	DB	04aH
	DB	029H
	DB	04aH
	DB	028H
	DB	042H
	DB	049H
	DB	04aH
	DB	049H
	DB	04aH
	DB	029H
	DB	04aH
	DB	048H
	DB	042H
	DB	049H
	DB	04aH
	DB	049H
	DB	04aH
	DB	029H
	DB	04aH
	DB	049H
	DB	04aH
	DB	049H
	DB	04aH
	DB	029H
	DB	04aH
	DB	049H
	DB	04aH
	DB	049H
	DB	04aH
	DB	049H
	DB	04aH
	DB	049H
	DB	04aH
	DB	048H
	DB	042H
	DB	029H
	DB	04aH
	DB	049H
	DB	04aH
	DB	049H
	DB	04aH
	DB	029H
	DB	04aH
	DB	049H
	DB	04aH
	DB	049H
	DB	04aH
	DB	029H
	DB	04aH
	DB	049H
	DB	04aH
	DB	049H
	DB	04aH
	DB	029H
	DB	04aH
	DB	049H
	DB	04aH
	DB	029H
	DB	04aH
	DB	049H
	DB	04aH
	DB	049H
	DB	04aH
	DB	049H
	DB	04aH
	DB	049H
	DB	04aH
	DB	049H
	DB	04aH
	DB	0cbH
	DB	05aH
	DB	0ebH
	DB	05aH
	DB	049H
	DB	04aH
	DB	029H
	DB	04aH
	DB	049H
	DB	04aH
	DB	048H
	DB	042H
	DB	029H
	DB	04aH
	DB	049H
	DB	04aH
	DB	049H
	DB	04aH
	DB	048H
	DB	042H
	DB	029H
	DB	04aH
	DB	049H
	DB	04aH
	DB	049H
	DB	04aH
	DB	029H
	DB	04aH
	DB	049H
	DB	04aH
	DB	049H
	DB	04aH
	DB	049H
	DB	04aH
	DB	029H
	DB	04aH
	DB	049H
	DB	04aH
	DB	049H
	DB	04aH
	DB	048H
	DB	042H
	DB	029H
	DB	04aH
	DB	049H
	DB	04aH
	DB	049H
	DB	04aH
	DB	029H
	DB	04aH
	DB	049H
	DB	04aH
	DB	049H
	DB	04aH
	DB	029H
	DB	04aH
	DB	049H
	DB	04aH
	DB	049H
	DB	04aH
	DB	029H
	DB	04aH
	DB	049H
	DB	04aH
	DB	049H
	DB	04aH
	DB	029H
	DB	04aH
	DB	049H
	DB	04aH
	DB	049H
	DB	04aH
	DB	049H
	DB	04aH
	DB	049H
	DB	04aH
	DB	0cbH
	DB	05aH
	DB	0cbH
	DB	05aH
	DB	049H
	DB	04aH
	DB	049H
	DB	04aH
	DB	029H
	DB	04aH
	DB	048H
	DB	042H
	DB	049H
	DB	04aH
	DB	029H
	DB	04aH
	DB	049H
	DB	04aH
	DB	048H
	DB	042H
	DB	029H
	DB	04aH
	DB	049H
	DB	04aH
	DB	049H
	DB	04aH
	DB	029H
	DB	04aH
	DB	049H
	DB	04aH
	DB	049H
	DB	04aH
	DB	049H
	DB	04aH
	DB	029H
	DB	04aH
	DB	049H
	DB	04aH
	DB	049H
	DB	04aH
	DB	048H
	DB	042H
	DB	049H
	DB	04aH
	DB	029H
	DB	04aH
	DB	049H
	DB	04aH
	DB	049H
	DB	04aH
	DB	049H
	DB	04aH
	DB	049H
	DB	04aH
	DB	029H
	DB	04aH
	DB	049H
	DB	04aH
	DB	049H
	DB	04aH
	DB	029H
	DB	04aH
	DB	049H
	DB	04aH
	DB	049H
	DB	04aH
	DB	029H
	DB	04aH
	DB	049H
	DB	04aH
	DB	049H
	DB	04aH
	DB	049H
	DB	04aH
	DB	049H
	DB	04aH
	DB	0cbH
	DB	05aH
	DB	0cbH
	DB	05aH
	DB	049H
	DB	04aH
	DB	049H
	DB	04aH
	DB	029H
	DB	04aH
	DB	048H
	DB	042H
	DB	049H
	DB	04aH
	DB	029H
	DB	04aH
	DB	049H
	DB	04aH
	DB	048H
	DB	042H
	DB	029H
	DB	04aH
	DB	049H
	DB	04aH
	DB	049H
	DB	04aH
	DB	029H
	DB	04aH
	DB	049H
	DB	04aH
	DB	049H
	DB	04aH
	DB	049H
	DB	04aH
	DB	029H
	DB	04aH
	DB	049H
	DB	04aH
	DB	049H
	DB	04aH
	DB	048H
	DB	042H
	DB	049H
	DB	04aH
	DB	029H
	DB	04aH
	DB	049H
	DB	04aH
	DB	049H
	DB	04aH
	DB	049H
	DB	04aH
	DB	049H
	DB	04aH
	DB	029H
	DB	04aH
	DB	049H
	DB	04aH
	DB	049H
	DB	04aH
	DB	029H
	DB	04aH
	DB	049H
	DB	04aH
	DB	049H
	DB	04aH
	DB	029H
	DB	04aH
	DB	049H
	DB	04aH
	DB	049H
	DB	04aH
	DB	049H
	DB	04aH
	DB	049H
	DB	04aH
	DB	0cbH
	DB	05aH
	DB	0cbH
	DB	05aH
	DB	049H
	DB	04aH
	DB	049H
	DB	04aH
	DB	029H
	DB	04aH
	DB	048H
	DB	042H
	DB	049H
	DB	04aH
	DB	029H
	DB	04aH
	DB	049H
	DB	04aH
	DB	048H
	DB	042H
	DB	029H
	DB	04aH
	DB	049H
	DB	04aH
	DB	049H
	DB	04aH
	DB	029H
	DB	04aH
	DB	049H
	DB	04aH
	DB	049H
	DB	04aH
	DB	049H
	DB	04aH
	DB	029H
	DB	04aH
	DB	049H
	DB	04aH
	DB	049H
	DB	04aH
	DB	048H
	DB	042H
	DB	049H
	DB	04aH
	DB	029H
	DB	04aH
	DB	049H
	DB	04aH
	DB	049H
	DB	04aH
	DB	049H
	DB	04aH
	DB	049H
	DB	04aH
	DB	029H
	DB	04aH
	DB	049H
	DB	04aH
	DB	049H
	DB	04aH
	DB	029H
	DB	04aH
	DB	049H
	DB	04aH
	DB	049H
	DB	04aH
	DB	029H
	DB	04aH
	DB	049H
	DB	04aH
	DB	049H
	DB	04aH
	DB	049H
	DB	04aH
	DB	049H
	DB	04aH
	DB	0cbH
	DB	05aH
	DB	0cbH
	DB	05aH
	DB	049H
	DB	04aH
	DB	049H
	DB	04aH
	DB	029H
	DB	04aH
	DB	048H
	DB	042H
	DB	049H
	DB	04aH
	DB	029H
	DB	04aH
	DB	049H
	DB	04aH
	DB	048H
	DB	042H
	DB	029H
	DB	04aH
	DB	049H
	DB	04aH
	DB	049H
	DB	04aH
	DB	029H
	DB	04aH
	DB	049H
	DB	04aH
	DB	049H
	DB	04aH
	DB	049H
	DB	04aH
	DB	029H
	DB	04aH
	DB	049H
	DB	04aH
	DB	049H
	DB	04aH
	DB	029H
	DB	04aH
	DB	049H
	DB	04aH
	DB	049H
	DB	04aH
	DB	029H
	DB	04aH
	DB	049H
	DB	04aH
	DB	049H
	DB	04aH
	DB	029H
	DB	04aH
	DB	029H
	DB	04aH
	DB	049H
	DB	04aH
	DB	029H
	DB	04aH
	DB	048H
	DB	042H
	DB	049H
	DB	04aH
	DB	049H
	DB	04aH
	DB	048H
	DB	042H
	DB	049H
	DB	04aH
	DB	049H
	DB	04aH
	DB	048H
	DB	042H
	DB	049H
	DB	04aH
	DB	08aH
	DB	052H
	DB	0efH
	DB	07bH
	DB	0cfH
	DB	07bH
	DB	08aH
	DB	052H
	DB	049H
	DB	04aH
	DB	049H
	DB	04aH
	DB	029H
	DB	04aH
	DB	048H
	DB	042H
	DB	049H
	DB	04aH
	DB	029H
	DB	04aH
	DB	049H
	DB	04aH
	DB	048H
	DB	042H
	DB	029H
	DB	04aH
	DB	049H
	DB	04aH
	DB	049H
	DB	04aH
	DB	049H
	DB	04aH
	DB	049H
	DB	04aH
	DB	049H
	DB	04aH
	DB	049H
	DB	04aH
	DB	049H
	DB	04aH
	DB	049H
	DB	04aH
	DB	029H
	DB	04aH
	DB	049H
	DB	04aH
	DB	049H
	DB	04aH
	DB	049H
	DB	04aH
	DB	049H
	DB	04aH
	DB	049H
	DB	04aH
	DB	049H
	DB	04aH
	DB	049H
	DB	04aH
	DB	029H
	DB	04aH
	DB	049H
	DB	04aH
	DB	049H
	DB	04aH
	DB	029H
	DB	04aH
	DB	048H
	DB	042H
	DB	029H
	DB	04aH
	DB	049H
	DB	04aH
	DB	049H
	DB	04aH
	DB	049H
	DB	04aH
	DB	049H
	DB	04aH
	DB	049H
	DB	04aH
	DB	0cbH
	DB	05aH
	DB	0ebH
	DB	05aH
	DB	049H
	DB	04aH
	DB	049H
	DB	04aH
	DB	029H
	DB	04aH
	DB	049H
	DB	04aH
	DB	049H
	DB	04aH
	DB	049H
	DB	04aH
	DB	049H
	DB	04aH
	DB	029H
	DB	04aH
	DB	049H
	DB	04aH
	DB	049H
	DB	04aH
	DB	049H
	DB	04aH
	DB	049H
	DB	04aH
	DB	028H
	DB	042H
	DB	049H
	DB	04aH
	DB	049H
	DB	04aH
	DB	029H
	DB	04aH
	DB	049H
	DB	04aH
	DB	049H
	DB	04aH
	DB	049H
	DB	04aH
	DB	049H
	DB	04aH
	DB	049H
	DB	04aH
	DB	028H
	DB	042H
	DB	049H
	DB	04aH
	DB	049H
	DB	04aH
	DB	028H
	DB	042H
	DB	049H
	DB	04aH
	DB	029H
	DB	04aH
	DB	049H
	DB	04aH
	DB	049H
	DB	04aH
	DB	029H
	DB	04aH
	DB	049H
	DB	04aH
	DB	048H
	DB	042H
	DB	049H
	DB	04aH
	DB	049H
	DB	04aH
	DB	048H
	DB	042H
	DB	049H
	DB	04aH
	DB	0cbH
	DB	05aH
	DB	0ebH
	DB	05aH
	DB	049H
	DB	04aH
	DB	049H
	DB	04aH
	DB	049H
	DB	04aH
	DB	049H
	DB	04aH
	DB	029H
	DB	04aH
	DB	049H
	DB	04aH
	DB	049H
	DB	04aH
	DB	029H
	DB	04aH
	DB	049H
	DB	04aH
	DB	049H
	DB	04aH
	DB	049H
	DB	04aH
	DB	049H
	DB	04aH
	DB	049H
	DB	04aH
	DB	029H
	DB	04aH
	DB	048H
	DB	042H
	DB	049H
	DB	04aH
	DB	029H
	DB	04aH
	DB	049H
	DB	04aH
	DB	049H
	DB	04aH
	DB	049H
	DB	04aH
	DB	049H
	DB	04aH
	DB	048H
	DB	042H
	DB	049H
	DB	04aH
	DB	049H
	DB	04aH
	DB	048H
	DB	042H
	DB	049H
	DB	04aH
	DB	049H
	DB	04aH
	DB	049H
	DB	04aH
	DB	049H
	DB	04aH
	DB	029H
	DB	04aH
	DB	048H
	DB	042H
	DB	049H
	DB	04aH
	DB	029H
	DB	04aH
	DB	048H
	DB	042H
	DB	049H
	DB	04aH
	DB	049H
	DB	04aH
	DB	0cbH
	DB	05aH
	DB	0ebH
	DB	05aH
	DB	049H
	DB	04aH
	DB	049H
	DB	04aH
	DB	029H
	DB	04aH
	DB	049H
	DB	04aH
	DB	049H
	DB	04aH
	DB	029H
	DB	04aH
	DB	049H
	DB	04aH
	DB	049H
	DB	04aH
	DB	049H
	DB	04aH
	DB	029H
	DB	04aH
	DB	049H
	DB	04aH
	DB	049H
	DB	04aH
	DB	029H
	DB	04aH
	DB	049H
	DB	04aH
	DB	048H
	DB	042H
	DB	049H
	DB	04aH
	DB	029H
	DB	04aH
	DB	049H
	DB	04aH
	DB	049H
	DB	04aH
	DB	049H
	DB	04aH
	DB	049H
	DB	04aH
	DB	028H
	DB	042H
	DB	049H
	DB	04aH
	DB	049H
	DB	04aH
	DB	048H
	DB	042H
	DB	029H
	DB	04aH
	DB	049H
	DB	04aH
	DB	049H
	DB	04aH
	DB	029H
	DB	04aH
	DB	049H
	DB	04aH
	DB	048H
	DB	042H
	DB	029H
	DB	04aH
	DB	049H
	DB	04aH
	DB	048H
	DB	042H
	DB	029H
	DB	04aH
	DB	049H
	DB	04aH
	DB	0ebH
	DB	05aH
	DB	0cbH
	DB	05aH
	DB	049H
	DB	04aH
	DB	049H
	DB	04aH
	DB	029H
	DB	04aH
	DB	049H
	DB	04aH
	DB	049H
	DB	04aH
	DB	029H
	DB	04aH
	DB	049H
	DB	04aH
	DB	049H
	DB	04aH
	DB	049H
	DB	04aH
	DB	049H
	DB	04aH
	DB	049H
	DB	04aH
	DB	029H
	DB	04aH
	DB	049H
	DB	04aH
	DB	049H
	DB	04aH
	DB	048H
	DB	042H
	DB	049H
	DB	04aH
	DB	029H
	DB	04aH
	DB	049H
	DB	04aH
	DB	049H
	DB	04aH
	DB	029H
	DB	04aH
	DB	049H
	DB	04aH
	DB	048H
	DB	042H
	DB	029H
	DB	04aH
	DB	049H
	DB	04aH
	DB	048H
	DB	042H
	DB	029H
	DB	04aH
	DB	049H
	DB	04aH
	DB	049H
	DB	04aH
	DB	029H
	DB	04aH
	DB	049H
	DB	04aH
	DB	048H
	DB	042H
	DB	029H
	DB	04aH
	DB	049H
	DB	04aH
	DB	048H
	DB	042H
	DB	029H
	DB	04aH
	DB	049H
	DB	04aH
	DB	0ebH
	DB	05aH
	DB	0cbH
	DB	05aH
	DB	049H
	DB	04aH
	DB	049H
	DB	04aH
	DB	029H
	DB	04aH
	DB	049H
	DB	04aH
	DB	049H
	DB	04aH
	DB	029H
	DB	04aH
	DB	049H
	DB	04aH
	DB	049H
	DB	04aH
	DB	049H
	DB	04aH
	DB	049H
	DB	04aH
	DB	049H
	DB	04aH
	DB	029H
	DB	04aH
	DB	049H
	DB	04aH
	DB	049H
	DB	04aH
	DB	048H
	DB	042H
	DB	049H
	DB	04aH
	DB	029H
	DB	04aH
	DB	049H
	DB	04aH
	DB	049H
	DB	04aH
	DB	029H
	DB	04aH
	DB	049H
	DB	04aH
	DB	048H
	DB	042H
	DB	029H
	DB	04aH
	DB	049H
	DB	04aH
	DB	048H
	DB	042H
	DB	029H
	DB	04aH
	DB	049H
	DB	04aH
	DB	049H
	DB	04aH
	DB	029H
	DB	04aH
	DB	049H
	DB	04aH
	DB	048H
	DB	042H
	DB	029H
	DB	04aH
	DB	049H
	DB	04aH
	DB	048H
	DB	042H
	DB	029H
	DB	04aH
	DB	049H
	DB	04aH
	DB	0ebH
	DB	05aH
	DB	0cbH
	DB	05aH
	DB	049H
	DB	04aH
	DB	049H
	DB	04aH
	DB	029H
	DB	04aH
	DB	049H
	DB	04aH
	DB	049H
	DB	04aH
	DB	029H
	DB	04aH
	DB	049H
	DB	04aH
	DB	049H
	DB	04aH
	DB	049H
	DB	04aH
	DB	049H
	DB	04aH
	DB	049H
	DB	04aH
	DB	029H
	DB	04aH
	DB	049H
	DB	04aH
	DB	049H
	DB	04aH
	DB	048H
	DB	042H
	DB	049H
	DB	04aH
	DB	029H
	DB	04aH
	DB	049H
	DB	04aH
	DB	049H
	DB	04aH
	DB	029H
	DB	04aH
	DB	049H
	DB	04aH
	DB	048H
	DB	042H
	DB	029H
	DB	04aH
	DB	049H
	DB	04aH
	DB	048H
	DB	042H
	DB	029H
	DB	04aH
	DB	049H
	DB	04aH
	DB	049H
	DB	04aH
	DB	029H
	DB	04aH
	DB	049H
	DB	04aH
	DB	048H
	DB	042H
	DB	029H
	DB	04aH
	DB	049H
	DB	04aH
	DB	048H
	DB	042H
	DB	029H
	DB	04aH
	DB	049H
	DB	04aH
	DB	0ebH
	DB	05aH
	DB	0cbH
	DB	05aH
	DB	049H
	DB	04aH
	DB	049H
	DB	04aH
	DB	029H
	DB	04aH
	DB	049H
	DB	04aH
	DB	049H
	DB	04aH
	DB	029H
	DB	04aH
	DB	049H
	DB	04aH
	DB	049H
	DB	04aH
	DB	049H
	DB	04aH
	DB	049H
	DB	04aH
	DB	049H
	DB	04aH
	DB	029H
	DB	04aH
	DB	049H
	DB	04aH
	DB	049H
	DB	04aH
	DB	048H
	DB	042H
	DB	049H
	DB	04aH
	DB	049H
	DB	04aH
	DB	048H
	DB	042H
	DB	049H
	DB	04aH
	DB	049H
	DB	04aH
	DB	049H
	DB	04aH
	DB	049H
	DB	04aH
	DB	049H
	DB	04aH
	DB	049H
	DB	04aH
	DB	049H
	DB	04aH
	DB	048H
	DB	042H
	DB	049H
	DB	04aH
	DB	049H
	DB	04aH
	DB	029H
	DB	04aH
	DB	049H
	DB	04aH
	DB	029H
	DB	04aH
	DB	049H
	DB	04aH
	DB	029H
	DB	04aH
	DB	049H
	DB	04aH
	DB	049H
	DB	04aH
	DB	029H
	DB	04aH
	DB	08aH
	DB	052H
	DB	0efH
	DB	07bH
	DB	0efH
	DB	07bH
	DB	08aH
	DB	052H
	DB	049H
	DB	04aH
	DB	029H
	DB	04aH
	DB	049H
	DB	04aH
	DB	049H
	DB	04aH
	DB	049H
	DB	04aH
	DB	029H
	DB	04aH
	DB	049H
	DB	04aH
	DB	049H
	DB	04aH
	DB	049H
	DB	04aH
	DB	028H
	DB	042H
	DB	049H
	DB	04aH
	DB	049H
	DB	04aH
	DB	028H
	DB	042H
	DB	029H
	DB	04aH
	DB	049H
	DB	04aH
	DB	048H
	DB	042H
	DB	049H
	DB	04aH
	DB	049H
	DB	04aH
	DB	028H
	DB	042H
	DB	049H
	DB	04aH
	DB	049H
	DB	04aH
	DB	029H
	DB	04aH
	DB	049H
	DB	04aH
	DB	049H
	DB	04aH
	DB	049H
	DB	04aH
	DB	048H
	DB	042H
	DB	049H
	DB	04aH
	DB	049H
	DB	04aH
	DB	049H
	DB	04aH
	DB	029H
	DB	04aH
	DB	049H
	DB	04aH
	DB	049H
	DB	04aH
	DB	029H
	DB	04aH
	DB	049H
	DB	04aH
	DB	049H
	DB	04aH
	DB	029H
	DB	04aH
	DB	0cbH
	DB	05aH
	DB	0ebH
	DB	05aH
	DB	049H
	DB	04aH
	DB	049H
	DB	04aH
	DB	049H
	DB	04aH
	DB	028H
	DB	042H
	DB	049H
	DB	04aH
	DB	049H
	DB	04aH
	DB	029H
	DB	04aH
	DB	049H
	DB	04aH
	DB	048H
	DB	042H
	DB	049H
	DB	04aH
	DB	049H
	DB	04aH
	DB	049H
	DB	04aH
	DB	049H
	DB	04aH
	DB	049H
	DB	04aH
	DB	049H
	DB	04aH
	DB	048H
	DB	042H
	DB	049H
	DB	04aH
	DB	029H
	DB	04aH
	DB	049H
	DB	04aH
	DB	049H
	DB	04aH
	DB	049H
	DB	04aH
	DB	049H
	DB	04aH
	DB	049H
	DB	04aH
	DB	049H
	DB	04aH
	DB	049H
	DB	04aH
	DB	029H
	DB	04aH
	DB	049H
	DB	04aH
	DB	048H
	DB	042H
	DB	029H
	DB	04aH
	DB	049H
	DB	04aH
	DB	049H
	DB	04aH
	DB	029H
	DB	04aH
	DB	049H
	DB	04aH
	DB	049H
	DB	04aH
	DB	029H
	DB	04aH
	DB	049H
	DB	04aH
	DB	0cbH
	DB	05aH
	DB	0cbH
	DB	05aH
	DB	049H
	DB	04aH
	DB	049H
	DB	04aH
	DB	049H
	DB	04aH
	DB	049H
	DB	04aH
	DB	049H
	DB	04aH
	DB	048H
	DB	042H
	DB	049H
	DB	04aH
	DB	029H
	DB	04aH
	DB	049H
	DB	04aH
	DB	048H
	DB	042H
	DB	029H
	DB	04aH
	DB	049H
	DB	04aH
	DB	048H
	DB	042H
	DB	049H
	DB	04aH
	DB	049H
	DB	04aH
	DB	029H
	DB	04aH
	DB	049H
	DB	04aH
	DB	049H
	DB	04aH
	DB	029H
	DB	04aH
	DB	049H
	DB	04aH
	DB	029H
	DB	04aH
	DB	049H
	DB	04aH
	DB	029H
	DB	04aH
	DB	049H
	DB	04aH
	DB	029H
	DB	04aH
	DB	049H
	DB	04aH
	DB	029H
	DB	04aH
	DB	048H
	DB	042H
	DB	049H
	DB	04aH
	DB	049H
	DB	04aH
	DB	049H
	DB	04aH
	DB	049H
	DB	04aH
	DB	029H
	DB	04aH
	DB	049H
	DB	04aH
	DB	049H
	DB	04aH
	DB	029H
	DB	04aH
	DB	0cbH
	DB	05aH
	DB	0cbH
	DB	05aH
	DB	049H
	DB	04aH
	DB	049H
	DB	04aH
	DB	049H
	DB	04aH
	DB	049H
	DB	04aH
	DB	049H
	DB	04aH
	DB	028H
	DB	042H
	DB	049H
	DB	04aH
	DB	049H
	DB	04aH
	DB	049H
	DB	04aH
	DB	048H
	DB	042H
	DB	049H
	DB	04aH
	DB	049H
	DB	04aH
	DB	048H
	DB	042H
	DB	029H
	DB	04aH
	DB	049H
	DB	04aH
	DB	049H
	DB	04aH
	DB	049H
	DB	04aH
	DB	029H
	DB	04aH
	DB	049H
	DB	04aH
	DB	049H
	DB	04aH
	DB	029H
	DB	04aH
	DB	049H
	DB	04aH
	DB	049H
	DB	04aH
	DB	049H
	DB	04aH
	DB	049H
	DB	04aH
	DB	049H
	DB	04aH
	DB	049H
	DB	04aH
	DB	048H
	DB	042H
	DB	049H
	DB	04aH
	DB	049H
	DB	04aH
	DB	049H
	DB	04aH
	DB	049H
	DB	04aH
	DB	049H
	DB	04aH
	DB	029H
	DB	04aH
	DB	049H
	DB	04aH
	DB	049H
	DB	04aH
	DB	0cbH
	DB	05aH
	DB	0ebH
	DB	05aH
	DB	049H
	DB	04aH
	DB	049H
	DB	04aH
	DB	049H
	DB	04aH
	DB	049H
	DB	04aH
	DB	049H
	DB	04aH
	DB	048H
	DB	042H
	DB	049H
	DB	04aH
	DB	029H
	DB	04aH
	DB	049H
	DB	04aH
	DB	048H
	DB	042H
	DB	049H
	DB	04aH
	DB	049H
	DB	04aH
	DB	028H
	DB	042H
	DB	049H
	DB	04aH
	DB	049H
	DB	04aH
	DB	029H
	DB	04aH
	DB	049H
	DB	04aH
	DB	049H
	DB	04aH
	DB	049H
	DB	04aH
	DB	029H
	DB	04aH
	DB	049H
	DB	04aH
	DB	049H
	DB	04aH
	DB	029H
	DB	04aH
	DB	049H
	DB	04aH
	DB	049H
	DB	04aH
	DB	049H
	DB	04aH
	DB	049H
	DB	04aH
	DB	048H
	DB	042H
	DB	049H
	DB	04aH
	DB	049H
	DB	04aH
	DB	049H
	DB	04aH
	DB	049H
	DB	04aH
	DB	049H
	DB	04aH
	DB	029H
	DB	04aH
	DB	049H
	DB	04aH
	DB	049H
	DB	04aH
	DB	0cbH
	DB	05aH
	DB	0ebH
	DB	05aH
	DB	049H
	DB	04aH
	DB	049H
	DB	04aH
	DB	049H
	DB	04aH
	DB	049H
	DB	04aH
	DB	049H
	DB	04aH
	DB	048H
	DB	042H
	DB	049H
	DB	04aH
	DB	029H
	DB	04aH
	DB	049H
	DB	04aH
	DB	048H
	DB	042H
	DB	049H
	DB	04aH
	DB	049H
	DB	04aH
	DB	028H
	DB	042H
	DB	049H
	DB	04aH
	DB	049H
	DB	04aH
	DB	029H
	DB	04aH
	DB	049H
	DB	04aH
	DB	049H
	DB	04aH
	DB	049H
	DB	04aH
	DB	029H
	DB	04aH
	DB	049H
	DB	04aH
	DB	049H
	DB	04aH
	DB	029H
	DB	04aH
	DB	049H
	DB	04aH
	DB	049H
	DB	04aH
	DB	049H
	DB	04aH
	DB	049H
	DB	04aH
	DB	048H
	DB	042H
	DB	049H
	DB	04aH
	DB	049H
	DB	04aH
	DB	049H
	DB	04aH
	DB	049H
	DB	04aH
	DB	049H
	DB	04aH
	DB	029H
	DB	04aH
	DB	049H
	DB	04aH
	DB	049H
	DB	04aH
	DB	0cbH
	DB	05aH
	DB	0ebH
	DB	05aH
	DB	049H
	DB	04aH
	DB	049H
	DB	04aH
	DB	049H
	DB	04aH
	DB	049H
	DB	04aH
	DB	049H
	DB	04aH
	DB	048H
	DB	042H
	DB	049H
	DB	04aH
	DB	029H
	DB	04aH
	DB	049H
	DB	04aH
	DB	048H
	DB	042H
	DB	049H
	DB	04aH
	DB	049H
	DB	04aH
	DB	028H
	DB	042H
	DB	049H
	DB	04aH
	DB	049H
	DB	04aH
	DB	029H
	DB	04aH
	DB	049H
	DB	04aH
	DB	049H
	DB	04aH
	DB	049H
	DB	04aH
	DB	029H
	DB	04aH
	DB	049H
	DB	04aH
	DB	049H
	DB	04aH
	DB	029H
	DB	04aH
	DB	049H
	DB	04aH
	DB	049H
	DB	04aH
	DB	049H
	DB	04aH
	DB	049H
	DB	04aH
	DB	048H
	DB	042H
	DB	049H
	DB	04aH
	DB	049H
	DB	04aH
	DB	049H
	DB	04aH
	DB	049H
	DB	04aH
	DB	049H
	DB	04aH
	DB	029H
	DB	04aH
	DB	049H
	DB	04aH
	DB	049H
	DB	04aH
	DB	0cbH
	DB	05aH
	DB	0ebH
	DB	05aH
	DB	049H
	DB	04aH
	DB	049H
	DB	04aH
	DB	049H
	DB	04aH
	DB	049H
	DB	04aH
	DB	049H
	DB	04aH
	DB	048H
	DB	042H
	DB	049H
	DB	04aH
	DB	029H
	DB	04aH
	DB	049H
	DB	04aH
	DB	048H
	DB	042H
	DB	049H
	DB	04aH
	DB	049H
	DB	04aH
	DB	028H
	DB	042H
	DB	049H
	DB	04aH
	DB	029H
	DB	04aH
	DB	049H
	DB	04aH
	DB	029H
	DB	04aH
	DB	049H
	DB	04aH
	DB	029H
	DB	04aH
	DB	048H
	DB	042H
	DB	029H
	DB	04aH
	DB	049H
	DB	04aH
	DB	028H
	DB	042H
	DB	049H
	DB	04aH
	DB	049H
	DB	04aH
	DB	029H
	DB	04aH
	DB	049H
	DB	04aH
	DB	049H
	DB	04aH
	DB	049H
	DB	04aH
	DB	029H
	DB	04aH
	DB	049H
	DB	04aH
	DB	049H
	DB	04aH
	DB	049H
	DB	04aH
	DB	029H
	DB	04aH
	DB	049H
	DB	04aH
	DB	049H
	DB	04aH
	DB	08aH
	DB	052H
	DB	0efH
	DB	07bH
	DB	0efH
	DB	07bH
	DB	08aH
	DB	052H
	DB	049H
	DB	04aH
	DB	049H
	DB	04aH
	DB	049H
	DB	04aH
	DB	049H
	DB	04aH
	DB	029H
	DB	04aH
	DB	048H
	DB	042H
	DB	049H
	DB	04aH
	DB	049H
	DB	04aH
	DB	049H
	DB	04aH
	DB	049H
	DB	04aH
	DB	029H
	DB	04aH
	DB	049H
	DB	04aH
	DB	049H
	DB	04aH
	DB	049H
	DB	04aH
	DB	029H
	DB	04aH
	DB	049H
	DB	04aH
	DB	049H
	DB	04aH
	DB	049H
	DB	04aH
	DB	029H
	DB	04aH
	DB	049H
	DB	04aH
	DB	048H
	DB	042H
	DB	029H
	DB	04aH
	DB	049H
	DB	04aH
	DB	028H
	DB	042H
	DB	049H
	DB	04aH
	DB	029H
	DB	04aH
	DB	049H
	DB	04aH
	DB	049H
	DB	04aH
	DB	048H
	DB	042H
	DB	049H
	DB	04aH
	DB	049H
	DB	04aH
	DB	049H
	DB	04aH
	DB	028H
	DB	042H
	DB	049H
	DB	04aH
	DB	049H
	DB	04aH
	DB	049H
	DB	04aH
	DB	0cbH
	DB	05aH
	DB	0cbH
	DB	05aH
	DB	049H
	DB	04aH
	DB	049H
	DB	04aH
	DB	029H
	DB	04aH
	DB	049H
	DB	04aH
	DB	049H
	DB	04aH
	DB	029H
	DB	04aH
	DB	048H
	DB	042H
	DB	049H
	DB	04aH
	DB	029H
	DB	04aH
	DB	029H
	DB	04aH
	DB	049H
	DB	04aH
	DB	028H
	DB	042H
	DB	049H
	DB	04aH
	DB	029H
	DB	04aH
	DB	049H
	DB	04aH
	DB	049H
	DB	04aH
	DB	029H
	DB	04aH
	DB	048H
	DB	042H
	DB	049H
	DB	04aH
	DB	029H
	DB	04aH
	DB	028H
	DB	042H
	DB	049H
	DB	04aH
	DB	029H
	DB	04aH
	DB	049H
	DB	04aH
	DB	049H
	DB	04aH
	DB	049H
	DB	04aH
	DB	049H
	DB	04aH
	DB	049H
	DB	04aH
	DB	049H
	DB	04aH
	DB	048H
	DB	042H
	DB	049H
	DB	04aH
	DB	029H
	DB	04aH
	DB	049H
	DB	04aH
	DB	049H
	DB	04aH
	DB	049H
	DB	04aH
	DB	049H
	DB	04aH
	DB	0cbH
	DB	05aH
	DB	0ebH
	DB	05aH
	DB	049H
	DB	04aH
	DB	029H
	DB	04aH
	DB	029H
	DB	04aH
	DB	049H
	DB	04aH
	DB	029H
	DB	04aH
	DB	049H
	DB	04aH
	DB	049H
	DB	04aH
	DB	049H
	DB	04aH
	DB	049H
	DB	04aH
	DB	029H
	DB	04aH
	DB	049H
	DB	04aH
	DB	029H
	DB	04aH
	DB	049H
	DB	04aH
	DB	049H
	DB	04aH
	DB	029H
	DB	04aH
	DB	049H
	DB	04aH
	DB	048H
	DB	042H
	DB	049H
	DB	04aH
	DB	049H
	DB	04aH
	DB	028H
	DB	042H
	DB	049H
	DB	04aH
	DB	049H
	DB	04aH
	DB	049H
	DB	04aH
	DB	029H
	DB	04aH
	DB	049H
	DB	04aH
	DB	049H
	DB	04aH
	DB	049H
	DB	04aH
	DB	029H
	DB	04aH
	DB	049H
	DB	04aH
	DB	049H
	DB	04aH
	DB	029H
	DB	04aH
	DB	049H
	DB	04aH
	DB	049H
	DB	04aH
	DB	049H
	DB	04aH
	DB	049H
	DB	04aH
	DB	049H
	DB	04aH
	DB	0cbH
	DB	05aH
	DB	0ebH
	DB	05aH
	DB	049H
	DB	04aH
	DB	029H
	DB	04aH
	DB	049H
	DB	04aH
	DB	049H
	DB	04aH
	DB	029H
	DB	04aH
	DB	049H
	DB	04aH
	DB	049H
	DB	04aH
	DB	029H
	DB	04aH
	DB	029H
	DB	04aH
	DB	049H
	DB	04aH
	DB	029H
	DB	04aH
	DB	049H
	DB	04aH
	DB	049H
	DB	04aH
	DB	049H
	DB	04aH
	DB	029H
	DB	04aH
	DB	049H
	DB	04aH
	DB	048H
	DB	042H
	DB	049H
	DB	04aH
	DB	029H
	DB	04aH
	DB	048H
	DB	042H
	DB	049H
	DB	04aH
	DB	049H
	DB	04aH
	DB	029H
	DB	04aH
	DB	049H
	DB	04aH
	DB	029H
	DB	04aH
	DB	049H
	DB	04aH
	DB	029H
	DB	04aH
	DB	049H
	DB	04aH
	DB	049H
	DB	04aH
	DB	029H
	DB	04aH
	DB	049H
	DB	04aH
	DB	049H
	DB	04aH
	DB	029H
	DB	04aH
	DB	049H
	DB	04aH
	DB	049H
	DB	04aH
	DB	049H
	DB	04aH
	DB	0cbH
	DB	05aH
	DB	0cbH
	DB	05aH
	DB	049H
	DB	04aH
	DB	049H
	DB	04aH
	DB	029H
	DB	04aH
	DB	049H
	DB	04aH
	DB	029H
	DB	04aH
	DB	049H
	DB	04aH
	DB	049H
	DB	04aH
	DB	029H
	DB	04aH
	DB	049H
	DB	04aH
	DB	029H
	DB	04aH
	DB	049H
	DB	04aH
	DB	049H
	DB	04aH
	DB	049H
	DB	04aH
	DB	029H
	DB	04aH
	DB	049H
	DB	04aH
	DB	049H
	DB	04aH
	DB	048H
	DB	042H
	DB	049H
	DB	04aH
	DB	029H
	DB	04aH
	DB	048H
	DB	042H
	DB	049H
	DB	04aH
	DB	049H
	DB	04aH
	DB	049H
	DB	04aH
	DB	049H
	DB	04aH
	DB	029H
	DB	04aH
	DB	049H
	DB	04aH
	DB	029H
	DB	04aH
	DB	049H
	DB	04aH
	DB	029H
	DB	04aH
	DB	049H
	DB	04aH
	DB	029H
	DB	04aH
	DB	049H
	DB	04aH
	DB	049H
	DB	04aH
	DB	049H
	DB	04aH
	DB	049H
	DB	04aH
	DB	049H
	DB	04aH
	DB	0cbH
	DB	05aH
	DB	0cbH
	DB	05aH
	DB	049H
	DB	04aH
	DB	049H
	DB	04aH
	DB	029H
	DB	04aH
	DB	049H
	DB	04aH
	DB	029H
	DB	04aH
	DB	049H
	DB	04aH
	DB	049H
	DB	04aH
	DB	029H
	DB	04aH
	DB	049H
	DB	04aH
	DB	029H
	DB	04aH
	DB	049H
	DB	04aH
	DB	049H
	DB	04aH
	DB	049H
	DB	04aH
	DB	029H
	DB	04aH
	DB	049H
	DB	04aH
	DB	049H
	DB	04aH
	DB	048H
	DB	042H
	DB	049H
	DB	04aH
	DB	029H
	DB	04aH
	DB	048H
	DB	042H
	DB	049H
	DB	04aH
	DB	049H
	DB	04aH
	DB	049H
	DB	04aH
	DB	049H
	DB	04aH
	DB	029H
	DB	04aH
	DB	049H
	DB	04aH
	DB	029H
	DB	04aH
	DB	049H
	DB	04aH
	DB	029H
	DB	04aH
	DB	049H
	DB	04aH
	DB	029H
	DB	04aH
	DB	049H
	DB	04aH
	DB	049H
	DB	04aH
	DB	049H
	DB	04aH
	DB	049H
	DB	04aH
	DB	049H
	DB	04aH
	DB	0cbH
	DB	05aH
	DB	0cbH
	DB	05aH
	DB	049H
	DB	04aH
	DB	049H
	DB	04aH
	DB	029H
	DB	04aH
	DB	049H
	DB	04aH
	DB	029H
	DB	04aH
	DB	049H
	DB	04aH
	DB	049H
	DB	04aH
	DB	029H
	DB	04aH
	DB	049H
	DB	04aH
	DB	029H
	DB	04aH
	DB	049H
	DB	04aH
	DB	049H
	DB	04aH
	DB	049H
	DB	04aH
	DB	029H
	DB	04aH
	DB	049H
	DB	04aH
	DB	049H
	DB	04aH
	DB	048H
	DB	042H
	DB	049H
	DB	04aH
	DB	029H
	DB	04aH
	DB	048H
	DB	042H
	DB	049H
	DB	04aH
	DB	049H
	DB	04aH
	DB	049H
	DB	04aH
	DB	049H
	DB	04aH
	DB	029H
	DB	04aH
	DB	049H
	DB	04aH
	DB	029H
	DB	04aH
	DB	049H
	DB	04aH
	DB	029H
	DB	04aH
	DB	049H
	DB	04aH
	DB	029H
	DB	04aH
	DB	049H
	DB	04aH
	DB	049H
	DB	04aH
	DB	049H
	DB	04aH
	DB	049H
	DB	04aH
	DB	049H
	DB	04aH
	DB	0cbH
	DB	05aH
	DB	0cbH
	DB	05aH
	DB	049H
	DB	04aH
	DB	049H
	DB	04aH
	DB	029H
	DB	04aH
	DB	049H
	DB	04aH
	DB	029H
	DB	04aH
	DB	049H
	DB	04aH
	DB	049H
	DB	04aH
	DB	029H
	DB	04aH
	DB	049H
	DB	04aH
	DB	029H
	DB	04aH
	DB	049H
	DB	04aH
	DB	049H
	DB	04aH
	DB	049H
	DB	04aH
	DB	049H
	DB	04aH
	DB	049H
	DB	04aH
	DB	029H
	DB	04aH
	DB	049H
	DB	04aH
	DB	049H
	DB	04aH
	DB	049H
	DB	04aH
	DB	029H
	DB	04aH
	DB	049H
	DB	04aH
	DB	049H
	DB	04aH
	DB	049H
	DB	04aH
	DB	029H
	DB	04aH
	DB	049H
	DB	04aH
	DB	049H
	DB	04aH
	DB	029H
	DB	04aH
	DB	048H
	DB	042H
	DB	049H
	DB	04aH
	DB	049H
	DB	04aH
	DB	048H
	DB	042H
	DB	049H
	DB	04aH
	DB	049H
	DB	04aH
	DB	048H
	DB	042H
	DB	029H
	DB	04aH
	DB	049H
	DB	04aH
	DB	08aH
	DB	052H
	DB	0cfH
	DB	07bH
	DB	0efH
	DB	07bH
	DB	08aH
	DB	052H
	DB	029H
	DB	04aH
	DB	049H
	DB	04aH
	DB	049H
	DB	04aH
	DB	029H
	DB	04aH
	DB	049H
	DB	04aH
	DB	049H
	DB	04aH
	DB	029H
	DB	04aH
	DB	029H
	DB	04aH
	DB	049H
	DB	04aH
	DB	049H
	DB	04aH
	DB	049H
	DB	04aH
	DB	049H
	DB	04aH
	DB	049H
	DB	04aH
	DB	048H
	DB	042H
	DB	049H
	DB	04aH
	DB	029H
	DB	04aH
	DB	049H
	DB	04aH
	DB	049H
	DB	04aH
	DB	049H
	DB	04aH
	DB	049H
	DB	04aH
	DB	049H
	DB	04aH
	DB	049H
	DB	04aH
	DB	049H
	DB	04aH
	DB	049H
	DB	04aH
	DB	029H
	DB	04aH
	DB	049H
	DB	04aH
	DB	029H
	DB	04aH
	DB	049H
	DB	04aH
	DB	029H
	DB	04aH
	DB	049H
	DB	04aH
	DB	049H
	DB	04aH
	DB	029H
	DB	04aH
	DB	049H
	DB	04aH
	DB	049H
	DB	04aH
	DB	049H
	DB	04aH
	DB	049H
	DB	04aH
	DB	0cbH
	DB	05aH
	DB	0cbH
	DB	05aH
	DB	049H
	DB	04aH
	DB	049H
	DB	04aH
	DB	049H
	DB	04aH
	DB	049H
	DB	04aH
	DB	049H
	DB	04aH
	DB	049H
	DB	04aH
	DB	049H
	DB	04aH
	DB	049H
	DB	04aH
	DB	049H
	DB	04aH
	DB	049H
	DB	04aH
	DB	049H
	DB	04aH
	DB	049H
	DB	04aH
	DB	029H
	DB	04aH
	DB	049H
	DB	04aH
	DB	048H
	DB	042H
	DB	029H
	DB	04aH
	DB	049H
	DB	04aH
	DB	049H
	DB	04aH
	DB	049H
	DB	04aH
	DB	049H
	DB	04aH
	DB	049H
	DB	04aH
	DB	049H
	DB	04aH
	DB	049H
	DB	04aH
	DB	028H
	DB	042H
	DB	049H
	DB	04aH
	DB	029H
	DB	04aH
	DB	048H
	DB	042H
	DB	029H
	DB	04aH
	DB	049H
	DB	04aH
	DB	049H
	DB	04aH
	DB	029H
	DB	04aH
	DB	049H
	DB	04aH
	DB	048H
	DB	042H
	DB	029H
	DB	04aH
	DB	049H
	DB	04aH
	DB	049H
	DB	04aH
	DB	0cbH
	DB	05aH
	DB	0ebH
	DB	05aH
	DB	049H
	DB	04aH
	DB	049H
	DB	04aH
	DB	049H
	DB	04aH
	DB	048H
	DB	042H
	DB	049H
	DB	04aH
	DB	029H
	DB	04aH
	DB	049H
	DB	04aH
	DB	048H
	DB	042H
	DB	029H
	DB	04aH
	DB	049H
	DB	04aH
	DB	049H
	DB	04aH
	DB	049H
	DB	04aH
	DB	029H
	DB	04aH
	DB	049H
	DB	04aH
	DB	049H
	DB	04aH
	DB	049H
	DB	04aH
	DB	029H
	DB	04aH
	DB	049H
	DB	04aH
	DB	049H
	DB	04aH
	DB	049H
	DB	04aH
	DB	049H
	DB	04aH
	DB	048H
	DB	042H
	DB	049H
	DB	04aH
	DB	049H
	DB	04aH
	DB	048H
	DB	042H
	DB	049H
	DB	04aH
	DB	049H
	DB	04aH
	DB	029H
	DB	04aH
	DB	048H
	DB	042H
	DB	049H
	DB	04aH
	DB	029H
	DB	04aH
	DB	048H
	DB	042H
	DB	049H
	DB	04aH
	DB	029H
	DB	04aH
	DB	048H
	DB	042H
	DB	049H
	DB	04aH
	DB	0cbH
	DB	05aH
	DB	0ebH
	DB	05aH
	DB	049H
	DB	04aH
	DB	029H
	DB	04aH
	DB	049H
	DB	04aH
	DB	048H
	DB	042H
	DB	049H
	DB	04aH
	DB	049H
	DB	04aH
	DB	049H
	DB	04aH
	DB	048H
	DB	042H
	DB	049H
	DB	04aH
	DB	049H
	DB	04aH
	DB	049H
	DB	04aH
	DB	029H
	DB	04aH
	DB	049H
	DB	04aH
	DB	049H
	DB	04aH
	DB	049H
	DB	04aH
	DB	029H
	DB	04aH
	DB	049H
	DB	04aH
	DB	049H
	DB	04aH
	DB	049H
	DB	04aH
	DB	049H
	DB	04aH
	DB	049H
	DB	04aH
	DB	028H
	DB	042H
	DB	049H
	DB	04aH
	DB	049H
	DB	04aH
	DB	048H
	DB	042H
	DB	029H
	DB	04aH
	DB	049H
	DB	04aH
	DB	049H
	DB	04aH
	DB	028H
	DB	042H
	DB	049H
	DB	04aH
	DB	049H
	DB	04aH
	DB	028H
	DB	042H
	DB	049H
	DB	04aH
	DB	049H
	DB	04aH
	DB	048H
	DB	042H
	DB	049H
	DB	04aH
	DB	0cbH
	DB	05aH
	DB	0cbH
	DB	05aH
	DB	049H
	DB	04aH
	DB	049H
	DB	04aH
	DB	049H
	DB	04aH
	DB	028H
	DB	042H
	DB	049H
	DB	04aH
	DB	049H
	DB	04aH
	DB	049H
	DB	04aH
	DB	048H
	DB	042H
	DB	049H
	DB	04aH
	DB	049H
	DB	04aH
	DB	029H
	DB	04aH
	DB	049H
	DB	04aH
	DB	049H
	DB	04aH
	DB	049H
	DB	04aH
	DB	029H
	DB	04aH
	DB	049H
	DB	04aH
	DB	049H
	DB	04aH
	DB	029H
	DB	04aH
	DB	049H
	DB	04aH
	DB	049H
	DB	04aH
	DB	049H
	DB	04aH
	DB	028H
	DB	042H
	DB	049H
	DB	04aH
	DB	049H
	DB	04aH
	DB	048H
	DB	042H
	DB	029H
	DB	04aH
	DB	049H
	DB	04aH
	DB	049H
	DB	04aH
	DB	048H
	DB	042H
	DB	049H
	DB	04aH
	DB	029H
	DB	04aH
	DB	048H
	DB	042H
	DB	049H
	DB	04aH
	DB	029H
	DB	04aH
	DB	048H
	DB	042H
	DB	049H
	DB	04aH
	DB	0cbH
	DB	05aH
	DB	0cbH
	DB	05aH
	DB	049H
	DB	04aH
	DB	049H
	DB	04aH
	DB	049H
	DB	04aH
	DB	028H
	DB	042H
	DB	049H
	DB	04aH
	DB	049H
	DB	04aH
	DB	049H
	DB	04aH
	DB	048H
	DB	042H
	DB	049H
	DB	04aH
	DB	049H
	DB	04aH
	DB	029H
	DB	04aH
	DB	049H
	DB	04aH
	DB	049H
	DB	04aH
	DB	049H
	DB	04aH
	DB	029H
	DB	04aH
	DB	049H
	DB	04aH
	DB	049H
	DB	04aH
	DB	029H
	DB	04aH
	DB	049H
	DB	04aH
	DB	049H
	DB	04aH
	DB	049H
	DB	04aH
	DB	028H
	DB	042H
	DB	049H
	DB	04aH
	DB	049H
	DB	04aH
	DB	048H
	DB	042H
	DB	029H
	DB	04aH
	DB	049H
	DB	04aH
	DB	049H
	DB	04aH
	DB	048H
	DB	042H
	DB	049H
	DB	04aH
	DB	029H
	DB	04aH
	DB	048H
	DB	042H
	DB	049H
	DB	04aH
	DB	029H
	DB	04aH
	DB	048H
	DB	042H
	DB	049H
	DB	04aH
	DB	0cbH
	DB	05aH
	DB	0cbH
	DB	05aH
	DB	049H
	DB	04aH
	DB	049H
	DB	04aH
	DB	049H
	DB	04aH
	DB	028H
	DB	042H
	DB	049H
	DB	04aH
	DB	049H
	DB	04aH
	DB	049H
	DB	04aH
	DB	048H
	DB	042H
	DB	049H
	DB	04aH
	DB	049H
	DB	04aH
	DB	029H
	DB	04aH
	DB	049H
	DB	04aH
	DB	049H
	DB	04aH
	DB	049H
	DB	04aH
	DB	029H
	DB	04aH
	DB	049H
	DB	04aH
	DB	049H
	DB	04aH
	DB	029H
	DB	04aH
	DB	049H
	DB	04aH
	DB	049H
	DB	04aH
	DB	049H
	DB	04aH
	DB	028H
	DB	042H
	DB	049H
	DB	04aH
	DB	049H
	DB	04aH
	DB	048H
	DB	042H
	DB	029H
	DB	04aH
	DB	049H
	DB	04aH
	DB	049H
	DB	04aH
	DB	048H
	DB	042H
	DB	049H
	DB	04aH
	DB	029H
	DB	04aH
	DB	048H
	DB	042H
	DB	049H
	DB	04aH
	DB	029H
	DB	04aH
	DB	048H
	DB	042H
	DB	049H
	DB	04aH
	DB	0cbH
	DB	05aH
	DB	0cbH
	DB	05aH
	DB	049H
	DB	04aH
	DB	049H
	DB	04aH
	DB	049H
	DB	04aH
	DB	028H
	DB	042H
	DB	049H
	DB	04aH
	DB	049H
	DB	04aH
	DB	049H
	DB	04aH
	DB	048H
	DB	042H
	DB	049H
	DB	04aH
	DB	049H
	DB	04aH
	DB	029H
	DB	04aH
	DB	049H
	DB	04aH
	DB	049H
	DB	04aH
	DB	029H
	DB	04aH
	DB	048H
	DB	042H
	DB	049H
	DB	04aH
	DB	049H
	DB	04aH
	DB	048H
	DB	042H
	DB	049H
	DB	04aH
	DB	049H
	DB	04aH
	DB	049H
	DB	04aH
	DB	049H
	DB	04aH
	DB	049H
	DB	04aH
	DB	048H
	DB	042H
	DB	049H
	DB	04aH
	DB	049H
	DB	04aH
	DB	049H
	DB	04aH
	DB	029H
	DB	04aH
	DB	049H
	DB	04aH
	DB	049H
	DB	04aH
	DB	029H
	DB	04aH
	DB	029H
	DB	04aH
	DB	049H
	DB	04aH
	DB	049H
	DB	04aH
	DB	049H
	DB	04aH
	DB	049H
	DB	04aH
	DB	08aH
	DB	052H
	DB	0efH
	DB	07bH
	DB	0efH
	DB	07bH
	DB	08aH
	DB	052H
	DB	029H
	DB	04aH
	DB	049H
	DB	04aH
	DB	049H
	DB	04aH
	DB	048H
	DB	042H
	DB	049H
	DB	04aH
	DB	049H
	DB	04aH
	DB	049H
	DB	04aH
	DB	048H
	DB	042H
	DB	029H
	DB	04aH
	DB	049H
	DB	04aH
	DB	048H
	DB	042H
	DB	029H
	DB	04aH
	DB	029H
	DB	04aH
	DB	049H
	DB	04aH
	DB	049H
	DB	04aH
	DB	029H
	DB	04aH
	DB	048H
	DB	042H
	DB	049H
	DB	04aH
	DB	029H
	DB	04aH
	DB	048H
	DB	042H
	DB	029H
	DB	04aH
	DB	049H
	DB	04aH
	DB	049H
	DB	04aH
	DB	049H
	DB	04aH
	DB	049H
	DB	04aH
	DB	048H
	DB	042H
	DB	049H
	DB	04aH
	DB	049H
	DB	04aH
	DB	029H
	DB	04aH
	DB	049H
	DB	04aH
	DB	048H
	DB	042H
	DB	029H
	DB	04aH
	DB	049H
	DB	04aH
	DB	049H
	DB	04aH
	DB	028H
	DB	042H
	DB	049H
	DB	04aH
	DB	0ebH
	DB	05aH
	DB	0cbH
	DB	05aH
	DB	049H
	DB	04aH
	DB	049H
	DB	04aH
	DB	029H
	DB	04aH
	DB	048H
	DB	042H
	DB	029H
	DB	04aH
	DB	049H
	DB	04aH
	DB	049H
	DB	04aH
	DB	029H
	DB	04aH
	DB	048H
	DB	042H
	DB	049H
	DB	04aH
	DB	049H
	DB	04aH
	DB	049H
	DB	04aH
	DB	049H
	DB	04aH
	DB	049H
	DB	04aH
	DB	049H
	DB	04aH
	DB	049H
	DB	04aH
	DB	049H
	DB	04aH
	DB	029H
	DB	04aH
	DB	049H
	DB	04aH
	DB	049H
	DB	04aH
	DB	029H
	DB	04aH
	DB	049H
	DB	04aH
	DB	049H
	DB	04aH
	DB	049H
	DB	04aH
	DB	049H
	DB	04aH
	DB	049H
	DB	04aH
	DB	029H
	DB	04aH
	DB	049H
	DB	04aH
	DB	049H
	DB	04aH
	DB	029H
	DB	04aH
	DB	049H
	DB	04aH
	DB	049H
	DB	04aH
	DB	049H
	DB	04aH
	DB	029H
	DB	04aH
	DB	049H
	DB	04aH
	DB	049H
	DB	04aH
	DB	0cbH
	DB	05aH
	DB	0cbH
	DB	05aH
	DB	049H
	DB	04aH
	DB	049H
	DB	04aH
	DB	049H
	DB	04aH
	DB	029H
	DB	04aH
	DB	049H
	DB	04aH
	DB	049H
	DB	04aH
	DB	029H
	DB	04aH
	DB	049H
	DB	04aH
	DB	049H
	DB	04aH
	DB	048H
	DB	042H
	DB	049H
	DB	04aH
	DB	049H
	DB	04aH
	DB	048H
	DB	042H
	DB	029H
	DB	04aH
	DB	049H
	DB	04aH
	DB	048H
	DB	042H
	DB	029H
	DB	04aH
	DB	049H
	DB	04aH
	DB	049H
	DB	04aH
	DB	029H
	DB	04aH
	DB	029H
	DB	04aH
	DB	049H
	DB	04aH
	DB	029H
	DB	04aH
	DB	049H
	DB	04aH
	DB	029H
	DB	04aH
	DB	049H
	DB	04aH
	DB	049H
	DB	04aH
	DB	049H
	DB	04aH
	DB	049H
	DB	04aH
	DB	049H
	DB	04aH
	DB	049H
	DB	04aH
	DB	049H
	DB	04aH
	DB	029H
	DB	04aH
	DB	049H
	DB	04aH
	DB	049H
	DB	04aH
	DB	049H
	DB	04aH
	DB	0cbH
	DB	05aH
	DB	0cbH
	DB	05aH
	DB	049H
	DB	04aH
	DB	049H
	DB	04aH
	DB	049H
	DB	04aH
	DB	029H
	DB	04aH
	DB	049H
	DB	04aH
	DB	029H
	DB	04aH
	DB	049H
	DB	04aH
	DB	049H
	DB	04aH
	DB	029H
	DB	04aH
	DB	048H
	DB	042H
	DB	049H
	DB	04aH
	DB	049H
	DB	04aH
	DB	028H
	DB	042H
	DB	049H
	DB	04aH
	DB	049H
	DB	04aH
	DB	048H
	DB	042H
	DB	029H
	DB	04aH
	DB	049H
	DB	04aH
	DB	049H
	DB	04aH
	DB	029H
	DB	04aH
	DB	049H
	DB	04aH
	DB	049H
	DB	04aH
	DB	049H
	DB	04aH
	DB	049H
	DB	04aH
	DB	049H
	DB	04aH
	DB	049H
	DB	04aH
	DB	049H
	DB	04aH
	DB	049H
	DB	04aH
	DB	049H
	DB	04aH
	DB	049H
	DB	04aH
	DB	049H
	DB	04aH
	DB	049H
	DB	04aH
	DB	049H
	DB	04aH
	DB	029H
	DB	04aH
	DB	049H
	DB	04aH
	DB	049H
	DB	04aH
	DB	0cbH
	DB	05aH
	DB	0ebH
	DB	05aH
	DB	049H
	DB	04aH
	DB	049H
	DB	04aH
	DB	049H
	DB	04aH
	DB	049H
	DB	04aH
	DB	049H
	DB	04aH
	DB	029H
	DB	04aH
	DB	049H
	DB	04aH
	DB	049H
	DB	04aH
	DB	029H
	DB	04aH
	DB	048H
	DB	042H
	DB	049H
	DB	04aH
	DB	029H
	DB	04aH
	DB	048H
	DB	042H
	DB	049H
	DB	04aH
	DB	049H
	DB	04aH
	DB	028H
	DB	042H
	DB	049H
	DB	04aH
	DB	049H
	DB	04aH
	DB	049H
	DB	04aH
	DB	049H
	DB	04aH
	DB	029H
	DB	04aH
	DB	049H
	DB	04aH
	DB	049H
	DB	04aH
	DB	029H
	DB	04aH
	DB	049H
	DB	04aH
	DB	049H
	DB	04aH
	DB	049H
	DB	04aH
	DB	049H
	DB	04aH
	DB	049H
	DB	04aH
	DB	049H
	DB	04aH
	DB	049H
	DB	04aH
	DB	049H
	DB	04aH
	DB	029H
	DB	04aH
	DB	049H
	DB	04aH
	DB	049H
	DB	04aH
	DB	049H
	DB	04aH
	DB	0cbH
	DB	05aH
	DB	0ebH
	DB	05aH
	DB	049H
	DB	04aH
	DB	049H
	DB	04aH
	DB	049H
	DB	04aH
	DB	049H
	DB	04aH
	DB	049H
	DB	04aH
	DB	029H
	DB	04aH
	DB	049H
	DB	04aH
	DB	049H
	DB	04aH
	DB	029H
	DB	04aH
	DB	048H
	DB	042H
	DB	049H
	DB	04aH
	DB	029H
	DB	04aH
	DB	048H
	DB	042H
	DB	049H
	DB	04aH
	DB	049H
	DB	04aH
	DB	028H
	DB	042H
	DB	049H
	DB	04aH
	DB	049H
	DB	04aH
	DB	049H
	DB	04aH
	DB	049H
	DB	04aH
	DB	029H
	DB	04aH
	DB	049H
	DB	04aH
	DB	049H
	DB	04aH
	DB	029H
	DB	04aH
	DB	049H
	DB	04aH
	DB	049H
	DB	04aH
	DB	049H
	DB	04aH
	DB	049H
	DB	04aH
	DB	049H
	DB	04aH
	DB	049H
	DB	04aH
	DB	049H
	DB	04aH
	DB	049H
	DB	04aH
	DB	029H
	DB	04aH
	DB	049H
	DB	04aH
	DB	049H
	DB	04aH
	DB	049H
	DB	04aH
	DB	0cbH
	DB	05aH
	DB	0ebH
	DB	05aH
	DB	049H
	DB	04aH
	DB	049H
	DB	04aH
	DB	049H
	DB	04aH
	DB	049H
	DB	04aH
	DB	049H
	DB	04aH
	DB	029H
	DB	04aH
	DB	049H
	DB	04aH
	DB	049H
	DB	04aH
	DB	029H
	DB	04aH
	DB	048H
	DB	042H
	DB	049H
	DB	04aH
	DB	029H
	DB	04aH
	DB	048H
	DB	042H
	DB	049H
	DB	04aH
	DB	049H
	DB	04aH
	DB	028H
	DB	042H
	DB	049H
	DB	04aH
	DB	049H
	DB	04aH
	DB	049H
	DB	04aH
	DB	049H
	DB	04aH
	DB	029H
	DB	04aH
	DB	049H
	DB	04aH
	DB	049H
	DB	04aH
	DB	029H
	DB	04aH
	DB	049H
	DB	04aH
	DB	049H
	DB	04aH
	DB	049H
	DB	04aH
	DB	049H
	DB	04aH
	DB	049H
	DB	04aH
	DB	049H
	DB	04aH
	DB	049H
	DB	04aH
	DB	049H
	DB	04aH
	DB	029H
	DB	04aH
	DB	049H
	DB	04aH
	DB	049H
	DB	04aH
	DB	049H
	DB	04aH
	DB	0cbH
	DB	05aH
	DB	0ebH
	DB	05aH
	DB	049H
	DB	04aH
	DB	049H
	DB	04aH
	DB	049H
	DB	04aH
	DB	049H
	DB	04aH
	DB	049H
	DB	04aH
	DB	029H
	DB	04aH
	DB	049H
	DB	04aH
	DB	049H
	DB	04aH
	DB	029H
	DB	04aH
	DB	048H
	DB	042H
	DB	049H
	DB	04aH
	DB	029H
	DB	04aH
	DB	048H
	DB	042H
	DB	049H
	DB	04aH
	DB	029H
	DB	04aH
	DB	049H
	DB	04aH
	DB	049H
	DB	04aH
	DB	029H
	DB	04aH
	DB	029H
	DB	04aH
	DB	049H
	DB	04aH
	DB	028H
	DB	042H
	DB	029H
	DB	04aH
	DB	049H
	DB	04aH
	DB	029H
	DB	04aH
	DB	049H
	DB	04aH
	DB	049H
	DB	04aH
	DB	028H
	DB	042H
	DB	049H
	DB	04aH
	DB	049H
	DB	04aH
	DB	049H
	DB	04aH
	DB	049H
	DB	04aH
	DB	048H
	DB	042H
	DB	029H
	DB	04aH
	DB	049H
	DB	04aH
	DB	049H
	DB	04aH
	DB	029H
	DB	04aH
	DB	08aH
	DB	052H
	DB	0efH
	DB	07bH
	DB	0efH
	DB	07bH
	DB	08aH
	DB	052H
	DB	049H
	DB	04aH
	DB	049H
	DB	04aH
	DB	029H
	DB	04aH
	DB	049H
	DB	04aH
	DB	029H
	DB	04aH
	DB	049H
	DB	04aH
	DB	049H
	DB	04aH
	DB	049H
	DB	04aH
	DB	049H
	DB	04aH
	DB	029H
	DB	04aH
	DB	049H
	DB	04aH
	DB	049H
	DB	04aH
	DB	049H
	DB	04aH
	DB	049H
	DB	04aH
	DB	049H
	DB	04aH
	DB	049H
	DB	04aH
	DB	029H
	DB	04aH
	DB	049H
	DB	04aH
	DB	049H
	DB	04aH
	DB	029H
	DB	04aH
	DB	049H
	DB	04aH
	DB	049H
	DB	04aH
	DB	028H
	DB	042H
	DB	049H
	DB	04aH
	DB	049H
	DB	04aH
	DB	029H
	DB	04aH
	DB	049H
	DB	04aH
	DB	049H
	DB	04aH
	DB	049H
	DB	04aH
	DB	049H
	DB	04aH
	DB	049H
	DB	04aH
	DB	049H
	DB	04aH
	DB	049H
	DB	04aH
	DB	029H
	DB	04aH
	DB	049H
	DB	04aH
	DB	049H
	DB	04aH
	DB	0cbH
	DB	05aH
	DB	0ebH
	DB	05aH
	DB	049H
	DB	04aH
	DB	049H
	DB	04aH
	DB	049H
	DB	04aH
	DB	029H
	DB	04aH
	DB	049H
	DB	04aH
	DB	049H
	DB	04aH
	DB	028H
	DB	042H
	DB	049H
	DB	04aH
	DB	049H
	DB	04aH
	DB	029H
	DB	04aH
	DB	029H
	DB	04aH
	DB	048H
	DB	042H
	DB	049H
	DB	04aH
	DB	029H
	DB	04aH
	DB	029H
	DB	04aH
	DB	049H
	DB	04aH
	DB	048H
	DB	042H
	DB	029H
	DB	04aH
	DB	049H
	DB	04aH
	DB	048H
	DB	042H
	DB	029H
	DB	04aH
	DB	049H
	DB	04aH
	DB	048H
	DB	042H
	DB	029H
	DB	04aH
	DB	049H
	DB	04aH
	DB	049H
	DB	04aH
	DB	049H
	DB	04aH
	DB	049H
	DB	04aH
	DB	048H
	DB	042H
	DB	049H
	DB	04aH
	DB	049H
	DB	04aH
	DB	048H
	DB	042H
	DB	049H
	DB	04aH
	DB	049H
	DB	04aH
	DB	049H
	DB	04aH
	DB	049H
	DB	04aH
	DB	0cbH
	DB	05aH
	DB	0cbH
	DB	05aH
	DB	049H
	DB	04aH
	DB	049H
	DB	04aH
	DB	029H
	DB	04aH
	DB	049H
	DB	04aH
	DB	049H
	DB	04aH
	DB	048H
	DB	042H
	DB	049H
	DB	04aH
	DB	029H
	DB	04aH
	DB	049H
	DB	04aH
	DB	049H
	DB	04aH
	DB	029H
	DB	04aH
	DB	049H
	DB	04aH
	DB	049H
	DB	04aH
	DB	049H
	DB	04aH
	DB	049H
	DB	04aH
	DB	049H
	DB	04aH
	DB	049H
	DB	04aH
	DB	049H
	DB	04aH
	DB	048H
	DB	042H
	DB	049H
	DB	04aH
	DB	049H
	DB	04aH
	DB	049H
	DB	04aH
	DB	049H
	DB	04aH
	DB	028H
	DB	042H
	DB	049H
	DB	04aH
	DB	049H
	DB	04aH
	DB	028H
	DB	042H
	DB	049H
	DB	04aH
	DB	029H
	DB	04aH
	DB	049H
	DB	04aH
	DB	049H
	DB	04aH
	DB	029H
	DB	04aH
	DB	049H
	DB	04aH
	DB	049H
	DB	04aH
	DB	029H
	DB	04aH
	DB	049H
	DB	04aH
	DB	0cbH
	DB	05aH
	DB	0cbH
	DB	05aH
	DB	049H
	DB	04aH
	DB	049H
	DB	04aH
	DB	049H
	DB	04aH
	DB	049H
	DB	04aH
	DB	029H
	DB	04aH
	DB	048H
	DB	042H
	DB	049H
	DB	04aH
	DB	029H
	DB	04aH
	DB	049H
	DB	04aH
	DB	049H
	DB	04aH
	DB	029H
	DB	04aH
	DB	049H
	DB	04aH
	DB	049H
	DB	04aH
	DB	029H
	DB	04aH
	DB	049H
	DB	04aH
	DB	049H
	DB	04aH
	DB	049H
	DB	04aH
	DB	029H
	DB	04aH
	DB	048H
	DB	042H
	DB	049H
	DB	04aH
	DB	029H
	DB	04aH
	DB	049H
	DB	04aH
	DB	029H
	DB	04aH
	DB	048H
	DB	042H
	DB	029H
	DB	04aH
	DB	049H
	DB	04aH
	DB	028H
	DB	042H
	DB	049H
	DB	04aH
	DB	029H
	DB	04aH
	DB	029H
	DB	04aH
	DB	049H
	DB	04aH
	DB	049H
	DB	04aH
	DB	029H
	DB	04aH
	DB	049H
	DB	04aH
	DB	049H
	DB	04aH
	DB	049H
	DB	04aH
	DB	0cbH
	DB	05aH
	DB	0cbH
	DB	05aH
	DB	049H
	DB	04aH
	DB	029H
	DB	04aH
	DB	049H
	DB	04aH
	DB	049H
	DB	04aH
	DB	029H
	DB	04aH
	DB	048H
	DB	042H
	DB	049H
	DB	04aH
	DB	029H
	DB	04aH
	DB	049H
	DB	04aH
	DB	049H
	DB	04aH
	DB	049H
	DB	04aH
	DB	049H
	DB	04aH
	DB	029H
	DB	04aH
	DB	049H
	DB	04aH
	DB	049H
	DB	04aH
	DB	049H
	DB	04aH
	DB	029H
	DB	04aH
	DB	049H
	DB	04aH
	DB	048H
	DB	042H
	DB	029H
	DB	04aH
	DB	049H
	DB	04aH
	DB	049H
	DB	04aH
	DB	049H
	DB	04aH
	DB	028H
	DB	042H
	DB	049H
	DB	04aH
	DB	049H
	DB	04aH
	DB	028H
	DB	042H
	DB	029H
	DB	04aH
	DB	049H
	DB	04aH
	DB	029H
	DB	04aH
	DB	049H
	DB	04aH
	DB	049H
	DB	04aH
	DB	049H
	DB	04aH
	DB	029H
	DB	04aH
	DB	049H
	DB	04aH
	DB	049H
	DB	04aH
	DB	0cbH
	DB	05aH
	DB	0cbH
	DB	05aH
	DB	049H
	DB	04aH
	DB	029H
	DB	04aH
	DB	049H
	DB	04aH
	DB	049H
	DB	04aH
	DB	029H
	DB	04aH
	DB	048H
	DB	042H
	DB	049H
	DB	04aH
	DB	029H
	DB	04aH
	DB	049H
	DB	04aH
	DB	049H
	DB	04aH
	DB	049H
	DB	04aH
	DB	049H
	DB	04aH
	DB	029H
	DB	04aH
	DB	049H
	DB	04aH
	DB	049H
	DB	04aH
	DB	049H
	DB	04aH
	DB	029H
	DB	04aH
	DB	049H
	DB	04aH
	DB	048H
	DB	042H
	DB	029H
	DB	04aH
	DB	049H
	DB	04aH
	DB	049H
	DB	04aH
	DB	049H
	DB	04aH
	DB	028H
	DB	042H
	DB	049H
	DB	04aH
	DB	049H
	DB	04aH
	DB	028H
	DB	042H
	DB	029H
	DB	04aH
	DB	049H
	DB	04aH
	DB	029H
	DB	04aH
	DB	049H
	DB	04aH
	DB	049H
	DB	04aH
	DB	049H
	DB	04aH
	DB	029H
	DB	04aH
	DB	049H
	DB	04aH
	DB	049H
	DB	04aH
	DB	0cbH
	DB	05aH
	DB	0cbH
	DB	05aH
	DB	049H
	DB	04aH
	DB	029H
	DB	04aH
	DB	049H
	DB	04aH
	DB	049H
	DB	04aH
	DB	029H
	DB	04aH
	DB	048H
	DB	042H
	DB	049H
	DB	04aH
	DB	029H
	DB	04aH
	DB	049H
	DB	04aH
	DB	049H
	DB	04aH
	DB	049H
	DB	04aH
	DB	049H
	DB	04aH
	DB	029H
	DB	04aH
	DB	049H
	DB	04aH
	DB	049H
	DB	04aH
	DB	049H
	DB	04aH
	DB	029H
	DB	04aH
	DB	049H
	DB	04aH
	DB	048H
	DB	042H
	DB	029H
	DB	04aH
	DB	049H
	DB	04aH
	DB	049H
	DB	04aH
	DB	049H
	DB	04aH
	DB	028H
	DB	042H
	DB	049H
	DB	04aH
	DB	049H
	DB	04aH
	DB	028H
	DB	042H
	DB	029H
	DB	04aH
	DB	049H
	DB	04aH
	DB	029H
	DB	04aH
	DB	049H
	DB	04aH
	DB	049H
	DB	04aH
	DB	049H
	DB	04aH
	DB	029H
	DB	04aH
	DB	049H
	DB	04aH
	DB	049H
	DB	04aH
	DB	0cbH
	DB	05aH
	DB	0cbH
	DB	05aH
	DB	049H
	DB	04aH
	DB	029H
	DB	04aH
	DB	049H
	DB	04aH
	DB	049H
	DB	04aH
	DB	029H
	DB	04aH
	DB	048H
	DB	042H
	DB	049H
	DB	04aH
	DB	029H
	DB	04aH
	DB	049H
	DB	04aH
	DB	049H
	DB	04aH
	DB	049H
	DB	04aH
	DB	049H
	DB	04aH
	DB	049H
	DB	04aH
	DB	049H
	DB	04aH
	DB	049H
	DB	04aH
	DB	029H
	DB	04aH
	DB	049H
	DB	04aH
	DB	049H
	DB	04aH
	DB	049H
	DB	04aH
	DB	049H
	DB	04aH
	DB	049H
	DB	04aH
	DB	049H
	DB	04aH
	DB	049H
	DB	04aH
	DB	029H
	DB	04aH
	DB	049H
	DB	04aH
	DB	049H
	DB	04aH
	DB	029H
	DB	04aH
	DB	049H
	DB	04aH
	DB	049H
	DB	04aH
	DB	028H
	DB	042H
	DB	049H
	DB	04aH
	DB	049H
	DB	04aH
	DB	049H
	DB	04aH
	DB	029H
	DB	04aH
	DB	048H
	DB	042H
	DB	049H
	DB	04aH
	DB	08aH
	DB	052H
	DB	0efH
	DB	07bH
	DB	0efH
	DB	07bH
	DB	08aH
	DB	052H
	DB	049H
	DB	04aH
	DB	029H
	DB	04aH
	DB	049H
	DB	04aH
	DB	049H
	DB	04aH
	DB	049H
	DB	04aH
	DB	028H
	DB	042H
	DB	049H
	DB	04aH
	DB	049H
	DB	04aH
	DB	049H
	DB	04aH
	DB	049H
	DB	04aH
	DB	029H
	DB	04aH
	DB	048H
	DB	042H
	DB	049H
	DB	04aH
	DB	029H
	DB	04aH
	DB	048H
	DB	042H
	DB	049H
	DB	04aH
	DB	049H
	DB	04aH
	DB	049H
	DB	04aH
	DB	049H
	DB	04aH
	DB	049H
	DB	04aH
	DB	049H
	DB	04aH
	DB	049H
	DB	04aH
	DB	029H
	DB	04aH
	DB	049H
	DB	04aH
	DB	049H
	DB	04aH
	DB	029H
	DB	04aH
	DB	049H
	DB	04aH
	DB	048H
	DB	042H
	DB	029H
	DB	04aH
	DB	049H
	DB	04aH
	DB	029H
	DB	04aH
	DB	048H
	DB	042H
	DB	049H
	DB	04aH
	DB	049H
	DB	04aH
	DB	049H
	DB	04aH
	DB	049H
	DB	04aH
	DB	0cbH
	DB	05aH
	DB	0cbH
	DB	05aH
	DB	049H
	DB	04aH
	DB	049H
	DB	04aH
	DB	049H
	DB	04aH
	DB	049H
	DB	04aH
	DB	049H
	DB	04aH
	DB	049H
	DB	04aH
	DB	049H
	DB	04aH
	DB	049H
	DB	04aH
	DB	049H
	DB	04aH
	DB	049H
	DB	04aH
	DB	049H
	DB	04aH
	DB	029H
	DB	04aH
	DB	049H
	DB	04aH
	DB	048H
	DB	042H
	DB	049H
	DB	04aH
	DB	049H
	DB	04aH
	DB	049H
	DB	04aH
	DB	049H
	DB	04aH
	DB	049H
	DB	04aH
	DB	049H
	DB	04aH
	DB	049H
	DB	04aH
	DB	049H
	DB	04aH
	DB	029H
	DB	04aH
	DB	049H
	DB	04aH
	DB	049H
	DB	04aH
	DB	028H
	DB	042H
	DB	049H
	DB	04aH
	DB	029H
	DB	04aH
	DB	049H
	DB	04aH
	DB	029H
	DB	04aH
	DB	049H
	DB	04aH
	DB	029H
	DB	04aH
	DB	029H
	DB	04aH
	DB	049H
	DB	04aH
	DB	049H
	DB	04aH
	DB	049H
	DB	04aH
	DB	0cbH
	DB	05aH
	DB	0ebH
	DB	05aH
	DB	049H
	DB	04aH
	DB	049H
	DB	04aH
	DB	049H
	DB	04aH
	DB	049H
	DB	04aH
	DB	029H
	DB	04aH
	DB	049H
	DB	04aH
	DB	049H
	DB	04aH
	DB	049H
	DB	04aH
	DB	029H
	DB	04aH
	DB	049H
	DB	04aH
	DB	049H
	DB	04aH
	DB	029H
	DB	04aH
	DB	049H
	DB	04aH
	DB	029H
	DB	04aH
	DB	049H
	DB	04aH
	DB	029H
	DB	04aH
	DB	049H
	DB	04aH
	DB	029H
	DB	04aH
	DB	049H
	DB	04aH
	DB	049H
	DB	04aH
	DB	029H
	DB	04aH
	DB	048H
	DB	042H
	DB	049H
	DB	04aH
	DB	049H
	DB	04aH
	DB	049H
	DB	04aH
	DB	049H
	DB	04aH
	DB	029H
	DB	04aH
	DB	049H
	DB	04aH
	DB	049H
	DB	04aH
	DB	028H
	DB	042H
	DB	049H
	DB	04aH
	DB	049H
	DB	04aH
	DB	048H
	DB	042H
	DB	049H
	DB	04aH
	DB	049H
	DB	04aH
	DB	049H
	DB	04aH
	DB	0ebH
	DB	05aH
	DB	0cbH
	DB	05aH
	DB	049H
	DB	04aH
	DB	049H
	DB	04aH
	DB	029H
	DB	04aH
	DB	049H
	DB	04aH
	DB	049H
	DB	04aH
	DB	049H
	DB	04aH
	DB	049H
	DB	04aH
	DB	049H
	DB	04aH
	DB	049H
	DB	04aH
	DB	049H
	DB	04aH
	DB	049H
	DB	04aH
	DB	049H
	DB	04aH
	DB	049H
	DB	04aH
	DB	049H
	DB	04aH
	DB	029H
	DB	04aH
	DB	049H
	DB	04aH
	DB	049H
	DB	04aH
	DB	049H
	DB	04aH
	DB	049H
	DB	04aH
	DB	049H
	DB	04aH
	DB	049H
	DB	04aH
	DB	048H
	DB	042H
	DB	049H
	DB	04aH
	DB	029H
	DB	04aH
	DB	049H
	DB	04aH
	DB	049H
	DB	04aH
	DB	049H
	DB	04aH
	DB	049H
	DB	04aH
	DB	049H
	DB	04aH
	DB	048H
	DB	042H
	DB	049H
	DB	04aH
	DB	029H
	DB	04aH
	DB	048H
	DB	042H
	DB	049H
	DB	04aH
	DB	049H
	DB	04aH
	DB	049H
	DB	04aH
	DB	0cbH
	DB	05aH
	DB	0ebH
	DB	05aH
	DB	049H
	DB	04aH
	DB	049H
	DB	04aH
	DB	029H
	DB	04aH
	DB	049H
	DB	04aH
	DB	049H
	DB	04aH
	DB	049H
	DB	04aH
	DB	049H
	DB	04aH
	DB	049H
	DB	04aH
	DB	049H
	DB	04aH
	DB	029H
	DB	04aH
	DB	049H
	DB	04aH
	DB	049H
	DB	04aH
	DB	049H
	DB	04aH
	DB	029H
	DB	04aH
	DB	049H
	DB	04aH
	DB	049H
	DB	04aH
	DB	049H
	DB	04aH
	DB	029H
	DB	04aH
	DB	049H
	DB	04aH
	DB	049H
	DB	04aH
	DB	049H
	DB	04aH
	DB	048H
	DB	042H
	DB	029H
	DB	04aH
	DB	049H
	DB	04aH
	DB	049H
	DB	04aH
	DB	049H
	DB	04aH
	DB	049H
	DB	04aH
	DB	049H
	DB	04aH
	DB	049H
	DB	04aH
	DB	028H
	DB	042H
	DB	049H
	DB	04aH
	DB	049H
	DB	04aH
	DB	028H
	DB	042H
	DB	049H
	DB	04aH
	DB	049H
	DB	04aH
	DB	049H
	DB	04aH
	DB	0cbH
	DB	05aH
	DB	0ebH
	DB	05aH
	DB	049H
	DB	04aH
	DB	049H
	DB	04aH
	DB	029H
	DB	04aH
	DB	049H
	DB	04aH
	DB	049H
	DB	04aH
	DB	049H
	DB	04aH
	DB	049H
	DB	04aH
	DB	049H
	DB	04aH
	DB	049H
	DB	04aH
	DB	029H
	DB	04aH
	DB	049H
	DB	04aH
	DB	049H
	DB	04aH
	DB	049H
	DB	04aH
	DB	029H
	DB	04aH
	DB	049H
	DB	04aH
	DB	049H
	DB	04aH
	DB	049H
	DB	04aH
	DB	029H
	DB	04aH
	DB	049H
	DB	04aH
	DB	049H
	DB	04aH
	DB	049H
	DB	04aH
	DB	048H
	DB	042H
	DB	029H
	DB	04aH
	DB	049H
	DB	04aH
	DB	049H
	DB	04aH
	DB	049H
	DB	04aH
	DB	049H
	DB	04aH
	DB	049H
	DB	04aH
	DB	049H
	DB	04aH
	DB	028H
	DB	042H
	DB	049H
	DB	04aH
	DB	049H
	DB	04aH
	DB	028H
	DB	042H
	DB	049H
	DB	04aH
	DB	049H
	DB	04aH
	DB	049H
	DB	04aH
	DB	0cbH
	DB	05aH
	DB	0ebH
	DB	05aH
	DB	049H
	DB	04aH
	DB	049H
	DB	04aH
	DB	029H
	DB	04aH
	DB	049H
	DB	04aH
	DB	049H
	DB	04aH
	DB	049H
	DB	04aH
	DB	049H
	DB	04aH
	DB	049H
	DB	04aH
	DB	049H
	DB	04aH
	DB	029H
	DB	04aH
	DB	049H
	DB	04aH
	DB	049H
	DB	04aH
	DB	049H
	DB	04aH
	DB	029H
	DB	04aH
	DB	049H
	DB	04aH
	DB	049H
	DB	04aH
	DB	049H
	DB	04aH
	DB	029H
	DB	04aH
	DB	049H
	DB	04aH
	DB	049H
	DB	04aH
	DB	049H
	DB	04aH
	DB	048H
	DB	042H
	DB	029H
	DB	04aH
	DB	049H
	DB	04aH
	DB	049H
	DB	04aH
	DB	049H
	DB	04aH
	DB	049H
	DB	04aH
	DB	049H
	DB	04aH
	DB	049H
	DB	04aH
	DB	028H
	DB	042H
	DB	049H
	DB	04aH
	DB	049H
	DB	04aH
	DB	028H
	DB	042H
	DB	049H
	DB	04aH
	DB	049H
	DB	04aH
	DB	049H
	DB	04aH
	DB	0cbH
	DB	05aH
	DB	0ebH
	DB	05aH
	DB	049H
	DB	04aH
	DB	049H
	DB	04aH
	DB	029H
	DB	04aH
	DB	049H
	DB	04aH
	DB	049H
	DB	04aH
	DB	049H
	DB	04aH
	DB	049H
	DB	04aH
	DB	049H
	DB	04aH
	DB	049H
	DB	04aH
	DB	029H
	DB	04aH
	DB	049H
	DB	04aH
	DB	029H
	DB	04aH
	DB	049H
	DB	04aH
	DB	049H
	DB	04aH
	DB	029H
	DB	04aH
	DB	048H
	DB	042H
	DB	049H
	DB	04aH
	DB	049H
	DB	04aH
	DB	048H
	DB	042H
	DB	049H
	DB	04aH
	DB	049H
	DB	04aH
	DB	049H
	DB	04aH
	DB	048H
	DB	042H
	DB	049H
	DB	04aH
	DB	049H
	DB	04aH
	DB	048H
	DB	042H
	DB	049H
	DB	04aH
	DB	049H
	DB	04aH
	DB	029H
	DB	04aH
	DB	049H
	DB	04aH
	DB	049H
	DB	04aH
	DB	029H
	DB	04aH
	DB	049H
	DB	04aH
	DB	049H
	DB	04aH
	DB	049H
	DB	04aH
	DB	029H
	DB	04aH
	DB	08aH
	DB	052H
	DB	0efH
	DB	07bH
	DB	0cfH
	DB	07bH
	DB	08aH
	DB	052H
	DB	049H
	DB	04aH
	DB	049H
	DB	04aH
	DB	049H
	DB	04aH
	DB	049H
	DB	04aH
	DB	049H
	DB	04aH
	DB	029H
	DB	04aH
	DB	049H
	DB	04aH
	DB	029H
	DB	04aH
	DB	048H
	DB	042H
	DB	049H
	DB	04aH
	DB	049H
	DB	04aH
	DB	029H
	DB	04aH
	DB	049H
	DB	04aH
	DB	049H
	DB	04aH
	DB	029H
	DB	04aH
	DB	049H
	DB	04aH
	DB	028H
	DB	042H
	DB	049H
	DB	04aH
	DB	029H
	DB	04aH
	DB	048H
	DB	042H
	DB	049H
	DB	04aH
	DB	029H
	DB	04aH
	DB	049H
	DB	04aH
	DB	049H
	DB	04aH
	DB	048H
	DB	042H
	DB	049H
	DB	04aH
	DB	049H
	DB	04aH
	DB	029H
	DB	04aH
	DB	049H
	DB	04aH
	DB	049H
	DB	04aH
	DB	029H
	DB	04aH
	DB	049H
	DB	04aH
	DB	049H
	DB	04aH
	DB	029H
	DB	04aH
	DB	049H
	DB	04aH
	DB	049H
	DB	04aH
	DB	0cbH
	DB	05aH
	DB	0cbH
	DB	05aH
	DB	049H
	DB	04aH
	DB	029H
	DB	04aH
	DB	049H
	DB	04aH
	DB	028H
	DB	042H
	DB	049H
	DB	04aH
	DB	029H
	DB	04aH
	DB	049H
	DB	04aH
	DB	029H
	DB	04aH
	DB	048H
	DB	042H
	DB	049H
	DB	04aH
	DB	049H
	DB	04aH
	DB	049H
	DB	04aH
	DB	049H
	DB	04aH
	DB	049H
	DB	04aH
	DB	029H
	DB	04aH
	DB	049H
	DB	04aH
	DB	029H
	DB	04aH
	DB	049H
	DB	04aH
	DB	029H
	DB	04aH
	DB	049H
	DB	04aH
	DB	049H
	DB	04aH
	DB	029H
	DB	04aH
	DB	049H
	DB	04aH
	DB	049H
	DB	04aH
	DB	049H
	DB	04aH
	DB	049H
	DB	04aH
	DB	029H
	DB	04aH
	DB	049H
	DB	04aH
	DB	049H
	DB	04aH
	DB	049H
	DB	04aH
	DB	049H
	DB	04aH
	DB	049H
	DB	04aH
	DB	048H
	DB	042H
	DB	029H
	DB	04aH
	DB	049H
	DB	04aH
	DB	049H
	DB	04aH
	DB	0cbH
	DB	05aH
	DB	0cbH
	DB	05aH
	DB	049H
	DB	04aH
	DB	029H
	DB	04aH
	DB	049H
	DB	04aH
	DB	048H
	DB	042H
	DB	029H
	DB	04aH
	DB	049H
	DB	04aH
	DB	049H
	DB	04aH
	DB	048H
	DB	042H
	DB	049H
	DB	04aH
	DB	049H
	DB	04aH
	DB	048H
	DB	042H
	DB	049H
	DB	04aH
	DB	029H
	DB	04aH
	DB	048H
	DB	042H
	DB	049H
	DB	04aH
	DB	049H
	DB	04aH
	DB	028H
	DB	042H
	DB	049H
	DB	04aH
	DB	049H
	DB	04aH
	DB	029H
	DB	04aH
	DB	049H
	DB	04aH
	DB	049H
	DB	04aH
	DB	029H
	DB	04aH
	DB	049H
	DB	04aH
	DB	049H
	DB	04aH
	DB	029H
	DB	04aH
	DB	049H
	DB	04aH
	DB	049H
	DB	04aH
	DB	049H
	DB	04aH
	DB	049H
	DB	04aH
	DB	029H
	DB	04aH
	DB	049H
	DB	04aH
	DB	049H
	DB	04aH
	DB	029H
	DB	04aH
	DB	049H
	DB	04aH
	DB	049H
	DB	04aH
	DB	0cbH
	DB	05aH
	DB	0ebH
	DB	05aH
	DB	049H
	DB	04aH
	DB	049H
	DB	04aH
	DB	049H
	DB	04aH
	DB	028H
	DB	042H
	DB	049H
	DB	04aH
	DB	049H
	DB	04aH
	DB	029H
	DB	04aH
	DB	048H
	DB	042H
	DB	029H
	DB	04aH
	DB	049H
	DB	04aH
	DB	028H
	DB	042H
	DB	049H
	DB	04aH
	DB	049H
	DB	04aH
	DB	048H
	DB	042H
	DB	049H
	DB	04aH
	DB	029H
	DB	04aH
	DB	048H
	DB	042H
	DB	049H
	DB	04aH
	DB	029H
	DB	04aH
	DB	029H
	DB	04aH
	DB	049H
	DB	04aH
	DB	049H
	DB	04aH
	DB	049H
	DB	04aH
	DB	049H
	DB	04aH
	DB	049H
	DB	04aH
	DB	029H
	DB	04aH
	DB	049H
	DB	04aH
	DB	049H
	DB	04aH
	DB	029H
	DB	04aH
	DB	049H
	DB	04aH
	DB	049H
	DB	04aH
	DB	049H
	DB	04aH
	DB	049H
	DB	04aH
	DB	029H
	DB	04aH
	DB	049H
	DB	04aH
	DB	049H
	DB	04aH
	DB	0cbH
	DB	05aH
	DB	0cbH
	DB	05aH
	DB	049H
	DB	04aH
	DB	049H
	DB	04aH
	DB	049H
	DB	04aH
	DB	048H
	DB	042H
	DB	029H
	DB	04aH
	DB	049H
	DB	04aH
	DB	029H
	DB	04aH
	DB	048H
	DB	042H
	DB	049H
	DB	04aH
	DB	029H
	DB	04aH
	DB	048H
	DB	042H
	DB	049H
	DB	04aH
	DB	049H
	DB	04aH
	DB	048H
	DB	042H
	DB	029H
	DB	04aH
	DB	049H
	DB	04aH
	DB	048H
	DB	042H
	DB	049H
	DB	04aH
	DB	049H
	DB	04aH
	DB	029H
	DB	04aH
	DB	049H
	DB	04aH
	DB	049H
	DB	04aH
	DB	049H
	DB	04aH
	DB	049H
	DB	04aH
	DB	029H
	DB	04aH
	DB	049H
	DB	04aH
	DB	049H
	DB	04aH
	DB	049H
	DB	04aH
	DB	049H
	DB	04aH
	DB	049H
	DB	04aH
	DB	049H
	DB	04aH
	DB	029H
	DB	04aH
	DB	049H
	DB	04aH
	DB	049H
	DB	04aH
	DB	049H
	DB	04aH
	DB	049H
	DB	04aH
	DB	0cbH
	DB	05aH
	DB	0cbH
	DB	05aH
	DB	049H
	DB	04aH
	DB	049H
	DB	04aH
	DB	049H
	DB	04aH
	DB	048H
	DB	042H
	DB	029H
	DB	04aH
	DB	049H
	DB	04aH
	DB	029H
	DB	04aH
	DB	048H
	DB	042H
	DB	049H
	DB	04aH
	DB	029H
	DB	04aH
	DB	048H
	DB	042H
	DB	049H
	DB	04aH
	DB	049H
	DB	04aH
	DB	048H
	DB	042H
	DB	029H
	DB	04aH
	DB	049H
	DB	04aH
	DB	048H
	DB	042H
	DB	049H
	DB	04aH
	DB	049H
	DB	04aH
	DB	029H
	DB	04aH
	DB	049H
	DB	04aH
	DB	049H
	DB	04aH
	DB	049H
	DB	04aH
	DB	049H
	DB	04aH
	DB	029H
	DB	04aH
	DB	049H
	DB	04aH
	DB	049H
	DB	04aH
	DB	049H
	DB	04aH
	DB	049H
	DB	04aH
	DB	049H
	DB	04aH
	DB	049H
	DB	04aH
	DB	029H
	DB	04aH
	DB	049H
	DB	04aH
	DB	049H
	DB	04aH
	DB	049H
	DB	04aH
	DB	049H
	DB	04aH
	DB	0cbH
	DB	05aH
	DB	0cbH
	DB	05aH
	DB	049H
	DB	04aH
	DB	049H
	DB	04aH
	DB	049H
	DB	04aH
	DB	048H
	DB	042H
	DB	029H
	DB	04aH
	DB	049H
	DB	04aH
	DB	029H
	DB	04aH
	DB	048H
	DB	042H
	DB	049H
	DB	04aH
	DB	029H
	DB	04aH
	DB	048H
	DB	042H
	DB	049H
	DB	04aH
	DB	049H
	DB	04aH
	DB	048H
	DB	042H
	DB	029H
	DB	04aH
	DB	049H
	DB	04aH
	DB	048H
	DB	042H
	DB	049H
	DB	04aH
	DB	049H
	DB	04aH
	DB	029H
	DB	04aH
	DB	049H
	DB	04aH
	DB	049H
	DB	04aH
	DB	049H
	DB	04aH
	DB	049H
	DB	04aH
	DB	029H
	DB	04aH
	DB	049H
	DB	04aH
	DB	049H
	DB	04aH
	DB	049H
	DB	04aH
	DB	049H
	DB	04aH
	DB	049H
	DB	04aH
	DB	049H
	DB	04aH
	DB	029H
	DB	04aH
	DB	049H
	DB	04aH
	DB	049H
	DB	04aH
	DB	049H
	DB	04aH
	DB	049H
	DB	04aH
	DB	0cbH
	DB	05aH
	DB	0cbH
	DB	05aH
	DB	049H
	DB	04aH
	DB	049H
	DB	04aH
	DB	049H
	DB	04aH
	DB	048H
	DB	042H
	DB	029H
	DB	04aH
	DB	049H
	DB	04aH
	DB	029H
	DB	04aH
	DB	048H
	DB	042H
	DB	049H
	DB	04aH
	DB	049H
	DB	04aH
	DB	028H
	DB	042H
	DB	049H
	DB	04aH
	DB	049H
	DB	04aH
	DB	028H
	DB	042H
	DB	049H
	DB	04aH
	DB	049H
	DB	04aH
	DB	029H
	DB	04aH
	DB	049H
	DB	04aH
	DB	029H
	DB	04aH
	DB	029H
	DB	04aH
	DB	049H
	DB	04aH
	DB	029H
	DB	04aH
	DB	029H
	DB	04aH
	DB	049H
	DB	04aH
	DB	029H
	DB	04aH
	DB	049H
	DB	04aH
	DB	049H
	DB	04aH
	DB	029H
	DB	04aH
	DB	049H
	DB	04aH
	DB	049H
	DB	04aH
	DB	049H
	DB	04aH
	DB	048H
	DB	042H
	DB	029H
	DB	04aH
	DB	049H
	DB	04aH
	DB	049H
	DB	04aH
	DB	049H
	DB	04aH
	DB	08aH
	DB	052H
	DB	0efH
	DB	07bH
	DB	0efH
	DB	07bH
	DB	08aH
	DB	052H
	DB	049H
	DB	04aH
	DB	029H
	DB	04aH
	DB	029H
	DB	04aH
	DB	048H
	DB	042H
	DB	049H
	DB	04aH
	DB	049H
	DB	04aH
	DB	049H
	DB	04aH
	DB	049H
	DB	04aH
	DB	029H
	DB	04aH
	DB	049H
	DB	04aH
	DB	049H
	DB	04aH
	DB	049H
	DB	04aH
	DB	049H
	DB	04aH
	DB	049H
	DB	04aH
	DB	049H
	DB	04aH
	DB	049H
	DB	04aH
	DB	049H
	DB	04aH
	DB	029H
	DB	04aH
	DB	049H
	DB	04aH
	DB	049H
	DB	04aH
	DB	029H
	DB	04aH
	DB	048H
	DB	042H
	DB	049H
	DB	04aH
	DB	029H
	DB	04aH
	DB	049H
	DB	04aH
	DB	049H
	DB	04aH
	DB	029H
	DB	04aH
	DB	049H
	DB	04aH
	DB	048H
	DB	042H
	DB	049H
	DB	04aH
	DB	049H
	DB	04aH
	DB	049H
	DB	04aH
	DB	028H
	DB	042H
	DB	049H
	DB	04aH
	DB	049H
	DB	04aH
	DB	049H
	DB	04aH
	DB	0cbH
	DB	05aH
	DB	0ebH
	DB	05aH
	DB	049H
	DB	04aH
	DB	049H
	DB	04aH
	DB	049H
	DB	04aH
	DB	049H
	DB	04aH
	DB	029H
	DB	04aH
	DB	049H
	DB	04aH
	DB	049H
	DB	04aH
	DB	029H
	DB	04aH
	DB	049H
	DB	04aH
	DB	029H
	DB	04aH
	DB	029H
	DB	04aH
	DB	048H
	DB	042H
	DB	049H
	DB	04aH
	DB	029H
	DB	04aH
	DB	049H
	DB	04aH
	DB	048H
	DB	042H
	DB	049H
	DB	04aH
	DB	029H
	DB	04aH
	DB	048H
	DB	042H
	DB	049H
	DB	04aH
	DB	029H
	DB	04aH
	DB	048H
	DB	042H
	DB	049H
	DB	04aH
	DB	029H
	DB	04aH
	DB	048H
	DB	042H
	DB	049H
	DB	04aH
	DB	049H
	DB	04aH
	DB	048H
	DB	042H
	DB	049H
	DB	04aH
	DB	029H
	DB	04aH
	DB	048H
	DB	042H
	DB	049H
	DB	04aH
	DB	049H
	DB	04aH
	DB	049H
	DB	04aH
	DB	029H
	DB	04aH
	DB	049H
	DB	04aH
	DB	0cbH
	DB	05aH
	DB	0ebH
	DB	05aH
	DB	049H
	DB	04aH
	DB	049H
	DB	04aH
	DB	029H
	DB	04aH
	DB	049H
	DB	04aH
	DB	049H
	DB	04aH
	DB	029H
	DB	04aH
	DB	049H
	DB	04aH
	DB	029H
	DB	04aH
	DB	049H
	DB	04aH
	DB	029H
	DB	04aH
	DB	049H
	DB	04aH
	DB	049H
	DB	04aH
	DB	049H
	DB	04aH
	DB	049H
	DB	04aH
	DB	049H
	DB	04aH
	DB	049H
	DB	04aH
	DB	049H
	DB	04aH
	DB	049H
	DB	04aH
	DB	048H
	DB	042H
	DB	049H
	DB	04aH
	DB	049H
	DB	04aH
	DB	049H
	DB	04aH
	DB	029H
	DB	04aH
	DB	049H
	DB	04aH
	DB	048H
	DB	042H
	DB	049H
	DB	04aH
	DB	049H
	DB	04aH
	DB	028H
	DB	042H
	DB	049H
	DB	04aH
	DB	049H
	DB	04aH
	DB	049H
	DB	04aH
	DB	028H
	DB	042H
	DB	049H
	DB	04aH
	DB	049H
	DB	04aH
	DB	029H
	DB	04aH
	DB	049H
	DB	04aH
	DB	0cbH
	DB	05aH
	DB	0cbH
	DB	05aH
	DB	049H
	DB	04aH
	DB	049H
	DB	04aH
	DB	049H
	DB	04aH
	DB	049H
	DB	04aH
	DB	029H
	DB	04aH
	DB	049H
	DB	04aH
	DB	049H
	DB	04aH
	DB	029H
	DB	04aH
	DB	049H
	DB	04aH
	DB	049H
	DB	04aH
	DB	049H
	DB	04aH
	DB	029H
	DB	04aH
	DB	029H
	DB	04aH
	DB	049H
	DB	04aH
	DB	049H
	DB	04aH
	DB	049H
	DB	04aH
	DB	029H
	DB	04aH
	DB	049H
	DB	04aH
	DB	048H
	DB	042H
	DB	049H
	DB	04aH
	DB	029H
	DB	04aH
	DB	049H
	DB	04aH
	DB	029H
	DB	04aH
	DB	049H
	DB	04aH
	DB	048H
	DB	042H
	DB	029H
	DB	04aH
	DB	049H
	DB	04aH
	DB	048H
	DB	042H
	DB	029H
	DB	04aH
	DB	049H
	DB	04aH
	DB	049H
	DB	04aH
	DB	028H
	DB	042H
	DB	049H
	DB	04aH
	DB	049H
	DB	04aH
	DB	029H
	DB	04aH
	DB	049H
	DB	04aH
	DB	0cbH
	DB	05aH
	DB	0cbH
	DB	05aH
	DB	049H
	DB	04aH
	DB	049H
	DB	04aH
	DB	049H
	DB	04aH
	DB	029H
	DB	04aH
	DB	049H
	DB	04aH
	DB	049H
	DB	04aH
	DB	049H
	DB	04aH
	DB	029H
	DB	04aH
	DB	049H
	DB	04aH
	DB	049H
	DB	04aH
	DB	029H
	DB	04aH
	DB	049H
	DB	04aH
	DB	049H
	DB	04aH
	DB	029H
	DB	04aH
	DB	049H
	DB	04aH
	DB	049H
	DB	04aH
	DB	029H
	DB	04aH
	DB	049H
	DB	04aH
	DB	048H
	DB	042H
	DB	029H
	DB	04aH
	DB	049H
	DB	04aH
	DB	049H
	DB	04aH
	DB	029H
	DB	04aH
	DB	049H
	DB	04aH
	DB	048H
	DB	042H
	DB	029H
	DB	04aH
	DB	029H
	DB	04aH
	DB	048H
	DB	042H
	DB	029H
	DB	04aH
	DB	049H
	DB	04aH
	DB	049H
	DB	04aH
	DB	048H
	DB	042H
	DB	049H
	DB	04aH
	DB	029H
	DB	04aH
	DB	049H
	DB	04aH
	DB	049H
	DB	04aH
	DB	0cbH
	DB	05aH
	DB	0cbH
	DB	05aH
	DB	049H
	DB	04aH
	DB	049H
	DB	04aH
	DB	049H
	DB	04aH
	DB	029H
	DB	04aH
	DB	049H
	DB	04aH
	DB	049H
	DB	04aH
	DB	049H
	DB	04aH
	DB	029H
	DB	04aH
	DB	049H
	DB	04aH
	DB	049H
	DB	04aH
	DB	029H
	DB	04aH
	DB	049H
	DB	04aH
	DB	049H
	DB	04aH
	DB	029H
	DB	04aH
	DB	049H
	DB	04aH
	DB	049H
	DB	04aH
	DB	029H
	DB	04aH
	DB	049H
	DB	04aH
	DB	048H
	DB	042H
	DB	029H
	DB	04aH
	DB	049H
	DB	04aH
	DB	049H
	DB	04aH
	DB	029H
	DB	04aH
	DB	049H
	DB	04aH
	DB	048H
	DB	042H
	DB	029H
	DB	04aH
	DB	029H
	DB	04aH
	DB	048H
	DB	042H
	DB	029H
	DB	04aH
	DB	049H
	DB	04aH
	DB	049H
	DB	04aH
	DB	048H
	DB	042H
	DB	049H
	DB	04aH
	DB	029H
	DB	04aH
	DB	049H
	DB	04aH
	DB	049H
	DB	04aH
	DB	0cbH
	DB	05aH
	DB	0cbH
	DB	05aH
	DB	049H
	DB	04aH
	DB	049H
	DB	04aH
	DB	049H
	DB	04aH
	DB	029H
	DB	04aH
	DB	049H
	DB	04aH
	DB	049H
	DB	04aH
	DB	049H
	DB	04aH
	DB	029H
	DB	04aH
	DB	049H
	DB	04aH
	DB	049H
	DB	04aH
	DB	029H
	DB	04aH
	DB	049H
	DB	04aH
	DB	049H
	DB	04aH
	DB	029H
	DB	04aH
	DB	049H
	DB	04aH
	DB	049H
	DB	04aH
	DB	029H
	DB	04aH
	DB	049H
	DB	04aH
	DB	048H
	DB	042H
	DB	029H
	DB	04aH
	DB	049H
	DB	04aH
	DB	049H
	DB	04aH
	DB	029H
	DB	04aH
	DB	049H
	DB	04aH
	DB	048H
	DB	042H
	DB	029H
	DB	04aH
	DB	029H
	DB	04aH
	DB	048H
	DB	042H
	DB	029H
	DB	04aH
	DB	049H
	DB	04aH
	DB	049H
	DB	04aH
	DB	048H
	DB	042H
	DB	049H
	DB	04aH
	DB	029H
	DB	04aH
	DB	049H
	DB	04aH
	DB	049H
	DB	04aH
	DB	0cbH
	DB	05aH
	DB	0cbH
	DB	05aH
	DB	049H
	DB	04aH
	DB	049H
	DB	04aH
	DB	049H
	DB	04aH
	DB	029H
	DB	04aH
	DB	049H
	DB	04aH
	DB	049H
	DB	04aH
	DB	049H
	DB	04aH
	DB	029H
	DB	04aH
	DB	049H
	DB	04aH
	DB	049H
	DB	04aH
	DB	049H
	DB	04aH
	DB	049H
	DB	04aH
	DB	049H
	DB	04aH
	DB	049H
	DB	04aH
	DB	049H
	DB	04aH
	DB	049H
	DB	04aH
	DB	049H
	DB	04aH
	DB	049H
	DB	04aH
	DB	049H
	DB	04aH
	DB	049H
	DB	04aH
	DB	048H
	DB	042H
	DB	049H
	DB	04aH
	DB	049H
	DB	04aH
	DB	049H
	DB	04aH
	DB	049H
	DB	04aH
	DB	029H
	DB	04aH
	DB	048H
	DB	042H
	DB	049H
	DB	04aH
	DB	049H
	DB	04aH
	DB	028H
	DB	042H
	DB	049H
	DB	04aH
	DB	049H
	DB	04aH
	DB	049H
	DB	04aH
	DB	029H
	DB	04aH
	DB	049H
	DB	04aH
	DB	049H
	DB	04aH
	DB	08aH
	DB	052H
	DB	0cfH
	DB	07bH
	DB	0efH
	DB	07bH
	DB	08aH
	DB	052H
	DB	049H
	DB	04aH
	DB	049H
	DB	04aH
	DB	049H
	DB	04aH
	DB	029H
	DB	04aH
	DB	049H
	DB	04aH
	DB	049H
	DB	04aH
	DB	028H
	DB	042H
	DB	049H
	DB	04aH
	DB	049H
	DB	04aH
	DB	029H
	DB	04aH
	DB	048H
	DB	042H
	DB	049H
	DB	04aH
	DB	029H
	DB	04aH
	DB	028H
	DB	042H
	DB	049H
	DB	04aH
	DB	049H
	DB	04aH
	DB	049H
	DB	04aH
	DB	049H
	DB	04aH
	DB	049H
	DB	04aH
	DB	049H
	DB	04aH
	DB	049H
	DB	04aH
	DB	049H
	DB	04aH
	DB	049H
	DB	04aH
	DB	029H
	DB	04aH
	DB	049H
	DB	04aH
	DB	049H
	DB	04aH
	DB	049H
	DB	04aH
	DB	049H
	DB	04aH
	DB	029H
	DB	04aH
	DB	049H
	DB	04aH
	DB	049H
	DB	04aH
	DB	029H
	DB	04aH
	DB	049H
	DB	04aH
	DB	049H
	DB	04aH
	DB	049H
	DB	04aH
	DB	029H
	DB	04aH
	DB	0cbH
	DB	05aH
	DB	0ebH
	DB	05aH
	DB	049H
	DB	04aH
	DB	029H
	DB	04aH
	DB	049H
	DB	04aH
	DB	049H
	DB	04aH
	DB	049H
	DB	04aH
	DB	048H
	DB	042H
	DB	049H
	DB	04aH
	DB	049H
	DB	04aH
	DB	049H
	DB	04aH
	DB	049H
	DB	04aH
	DB	049H
	DB	04aH
	DB	049H
	DB	04aH
	DB	029H
	DB	04aH
	DB	049H
	DB	04aH
	DB	049H
	DB	04aH
	DB	049H
	DB	04aH
	DB	049H
	DB	04aH
	DB	049H
	DB	04aH
	DB	049H
	DB	04aH
	DB	049H
	DB	04aH
	DB	049H
	DB	04aH
	DB	049H
	DB	04aH
	DB	049H
	DB	04aH
	DB	029H
	DB	04aH
	DB	049H
	DB	04aH
	DB	049H
	DB	04aH
	DB	029H
	DB	04aH
	DB	049H
	DB	04aH
	DB	049H
	DB	04aH
	DB	029H
	DB	04aH
	DB	049H
	DB	04aH
	DB	029H
	DB	04aH
	DB	049H
	DB	04aH
	DB	049H
	DB	04aH
	DB	049H
	DB	04aH
	DB	049H
	DB	04aH
	DB	0cbH
	DB	05aH
	DB	0cbH
	DB	05aH
	DB	049H
	DB	04aH
	DB	049H
	DB	04aH
	DB	049H
	DB	04aH
	DB	049H
	DB	04aH
	DB	049H
	DB	04aH
	DB	048H
	DB	042H
	DB	049H
	DB	04aH
	DB	049H
	DB	04aH
	DB	029H
	DB	04aH
	DB	049H
	DB	04aH
	DB	049H
	DB	04aH
	DB	028H
	DB	042H
	DB	049H
	DB	04aH
	DB	029H
	DB	04aH
	DB	029H
	DB	04aH
	DB	048H
	DB	042H
	DB	049H
	DB	04aH
	DB	029H
	DB	04aH
	DB	029H
	DB	04aH
	DB	049H
	DB	04aH
	DB	049H
	DB	04aH
	DB	028H
	DB	042H
	DB	049H
	DB	04aH
	DB	049H
	DB	04aH
	DB	029H
	DB	04aH
	DB	049H
	DB	04aH
	DB	049H
	DB	04aH
	DB	029H
	DB	04aH
	DB	049H
	DB	04aH
	DB	049H
	DB	04aH
	DB	049H
	DB	04aH
	DB	049H
	DB	04aH
	DB	049H
	DB	04aH
	DB	049H
	DB	04aH
	DB	048H
	DB	042H
	DB	049H
	DB	04aH
	DB	0cbH
	DB	05aH
	DB	0cbH
	DB	05aH
	DB	049H
	DB	04aH
	DB	029H
	DB	04aH
	DB	049H
	DB	04aH
	DB	049H
	DB	04aH
	DB	049H
	DB	04aH
	DB	048H
	DB	042H
	DB	049H
	DB	04aH
	DB	049H
	DB	04aH
	DB	049H
	DB	04aH
	DB	049H
	DB	04aH
	DB	049H
	DB	04aH
	DB	048H
	DB	042H
	DB	049H
	DB	04aH
	DB	029H
	DB	04aH
	DB	049H
	DB	04aH
	DB	048H
	DB	042H
	DB	049H
	DB	04aH
	DB	049H
	DB	04aH
	DB	049H
	DB	04aH
	DB	049H
	DB	04aH
	DB	049H
	DB	04aH
	DB	048H
	DB	042H
	DB	049H
	DB	04aH
	DB	029H
	DB	04aH
	DB	049H
	DB	04aH
	DB	049H
	DB	04aH
	DB	049H
	DB	04aH
	DB	049H
	DB	04aH
	DB	049H
	DB	04aH
	DB	049H
	DB	04aH
	DB	029H
	DB	04aH
	DB	049H
	DB	04aH
	DB	049H
	DB	04aH
	DB	049H
	DB	04aH
	DB	048H
	DB	042H
	DB	049H
	DB	04aH
	DB	0ebH
	DB	05aH
	DB	0cbH
	DB	05aH
	DB	049H
	DB	04aH
	DB	049H
	DB	04aH
	DB	029H
	DB	04aH
	DB	049H
	DB	04aH
	DB	049H
	DB	04aH
	DB	048H
	DB	042H
	DB	049H
	DB	04aH
	DB	049H
	DB	04aH
	DB	049H
	DB	04aH
	DB	049H
	DB	04aH
	DB	049H
	DB	04aH
	DB	028H
	DB	042H
	DB	049H
	DB	04aH
	DB	049H
	DB	04aH
	DB	049H
	DB	04aH
	DB	048H
	DB	042H
	DB	029H
	DB	04aH
	DB	049H
	DB	04aH
	DB	049H
	DB	04aH
	DB	049H
	DB	04aH
	DB	049H
	DB	04aH
	DB	028H
	DB	042H
	DB	049H
	DB	04aH
	DB	049H
	DB	04aH
	DB	049H
	DB	04aH
	DB	049H
	DB	04aH
	DB	049H
	DB	04aH
	DB	049H
	DB	04aH
	DB	029H
	DB	04aH
	DB	049H
	DB	04aH
	DB	049H
	DB	04aH
	DB	029H
	DB	04aH
	DB	049H
	DB	04aH
	DB	049H
	DB	04aH
	DB	028H
	DB	042H
	DB	049H
	DB	04aH
	DB	0ebH
	DB	05aH
	DB	0cbH
	DB	05aH
	DB	049H
	DB	04aH
	DB	049H
	DB	04aH
	DB	029H
	DB	04aH
	DB	049H
	DB	04aH
	DB	049H
	DB	04aH
	DB	048H
	DB	042H
	DB	049H
	DB	04aH
	DB	049H
	DB	04aH
	DB	049H
	DB	04aH
	DB	049H
	DB	04aH
	DB	049H
	DB	04aH
	DB	028H
	DB	042H
	DB	049H
	DB	04aH
	DB	049H
	DB	04aH
	DB	049H
	DB	04aH
	DB	048H
	DB	042H
	DB	029H
	DB	04aH
	DB	049H
	DB	04aH
	DB	049H
	DB	04aH
	DB	049H
	DB	04aH
	DB	049H
	DB	04aH
	DB	028H
	DB	042H
	DB	049H
	DB	04aH
	DB	049H
	DB	04aH
	DB	049H
	DB	04aH
	DB	049H
	DB	04aH
	DB	049H
	DB	04aH
	DB	049H
	DB	04aH
	DB	029H
	DB	04aH
	DB	049H
	DB	04aH
	DB	049H
	DB	04aH
	DB	029H
	DB	04aH
	DB	049H
	DB	04aH
	DB	049H
	DB	04aH
	DB	028H
	DB	042H
	DB	049H
	DB	04aH
	DB	0ebH
	DB	05aH
	DB	0cbH
	DB	05aH
	DB	049H
	DB	04aH
	DB	049H
	DB	04aH
	DB	029H
	DB	04aH
	DB	049H
	DB	04aH
	DB	049H
	DB	04aH
	DB	048H
	DB	042H
	DB	049H
	DB	04aH
	DB	049H
	DB	04aH
	DB	049H
	DB	04aH
	DB	049H
	DB	04aH
	DB	049H
	DB	04aH
	DB	028H
	DB	042H
	DB	049H
	DB	04aH
	DB	049H
	DB	04aH
	DB	049H
	DB	04aH
	DB	048H
	DB	042H
	DB	029H
	DB	04aH
	DB	049H
	DB	04aH
	DB	049H
	DB	04aH
	DB	049H
	DB	04aH
	DB	049H
	DB	04aH
	DB	028H
	DB	042H
	DB	049H
	DB	04aH
	DB	049H
	DB	04aH
	DB	049H
	DB	04aH
	DB	049H
	DB	04aH
	DB	049H
	DB	04aH
	DB	049H
	DB	04aH
	DB	029H
	DB	04aH
	DB	049H
	DB	04aH
	DB	049H
	DB	04aH
	DB	029H
	DB	04aH
	DB	049H
	DB	04aH
	DB	049H
	DB	04aH
	DB	028H
	DB	042H
	DB	049H
	DB	04aH
	DB	0ebH
	DB	05aH
	DB	0cbH
	DB	05aH
	DB	049H
	DB	04aH
	DB	049H
	DB	04aH
	DB	029H
	DB	04aH
	DB	049H
	DB	04aH
	DB	049H
	DB	04aH
	DB	048H
	DB	042H
	DB	049H
	DB	04aH
	DB	029H
	DB	04aH
	DB	049H
	DB	04aH
	DB	049H
	DB	04aH
	DB	029H
	DB	04aH
	DB	049H
	DB	04aH
	DB	029H
	DB	04aH
	DB	049H
	DB	04aH
	DB	029H
	DB	04aH
	DB	048H
	DB	042H
	DB	049H
	DB	04aH
	DB	029H
	DB	04aH
	DB	048H
	DB	042H
	DB	049H
	DB	04aH
	DB	029H
	DB	04aH
	DB	049H
	DB	04aH
	DB	049H
	DB	04aH
	DB	048H
	DB	042H
	DB	049H
	DB	04aH
	DB	049H
	DB	04aH
	DB	029H
	DB	04aH
	DB	049H
	DB	04aH
	DB	049H
	DB	04aH
	DB	029H
	DB	04aH
	DB	049H
	DB	04aH
	DB	049H
	DB	04aH
	DB	049H
	DB	04aH
	DB	048H
	DB	042H
	DB	029H
	DB	04aH
	DB	049H
	DB	04aH
	DB	08aH
	DB	052H
	DB	0efH
	DB	07bH
	DB	0efH
	DB	07bH
	DB	08aH
	DB	052H
	DB	029H
	DB	04aH
	DB	049H
	DB	04aH
	DB	049H
	DB	04aH
	DB	049H
	DB	04aH
	DB	029H
	DB	04aH
	DB	049H
	DB	04aH
	DB	049H
	DB	04aH
	DB	049H
	DB	04aH
	DB	049H
	DB	04aH
	DB	029H
	DB	04aH
	DB	049H
	DB	04aH
	DB	049H
	DB	04aH
	DB	049H
	DB	04aH
	DB	049H
	DB	04aH
	DB	029H
	DB	04aH
	DB	048H
	DB	042H
	DB	029H
	DB	04aH
	DB	049H
	DB	04aH
	DB	028H
	DB	042H
	DB	049H
	DB	04aH
	DB	029H
	DB	04aH
	DB	049H
	DB	04aH
	DB	049H
	DB	04aH
	DB	048H
	DB	042H
	DB	029H
	DB	04aH
	DB	049H
	DB	04aH
	DB	048H
	DB	042H
	DB	029H
	DB	04aH
	DB	049H
	DB	04aH
	DB	048H
	DB	042H
	DB	049H
	DB	04aH
	DB	049H
	DB	04aH
	DB	029H
	DB	04aH
	DB	048H
	DB	042H
	DB	049H
	DB	04aH
	DB	049H
	DB	04aH
	DB	0cbH
	DB	05aH
	DB	0cbH
	DB	05aH
	DB	049H
	DB	04aH
	DB	049H
	DB	04aH
	DB	029H
	DB	04aH
	DB	049H
	DB	04aH
	DB	049H
	DB	04aH
	DB	029H
	DB	04aH
	DB	049H
	DB	04aH
	DB	048H
	DB	042H
	DB	029H
	DB	04aH
	DB	049H
	DB	04aH
	DB	048H
	DB	042H
	DB	049H
	DB	04aH
	DB	049H
	DB	04aH
	DB	049H
	DB	04aH
	DB	029H
	DB	04aH
	DB	029H
	DB	04aH
	DB	049H
	DB	04aH
	DB	049H
	DB	04aH
	DB	029H
	DB	04aH
	DB	048H
	DB	042H
	DB	029H
	DB	04aH
	DB	049H
	DB	04aH
	DB	049H
	DB	04aH
	DB	049H
	DB	04aH
	DB	049H
	DB	04aH
	DB	029H
	DB	04aH
	DB	049H
	DB	04aH
	DB	049H
	DB	04aH
	DB	049H
	DB	04aH
	DB	049H
	DB	04aH
	DB	049H
	DB	04aH
	DB	049H
	DB	04aH
	DB	028H
	DB	042H
	DB	049H
	DB	04aH
	DB	049H
	DB	04aH
	DB	049H
	DB	04aH
	DB	0cbH
	DB	05aH
	DB	0ebH
	DB	05aH
	DB	049H
	DB	04aH
	DB	029H
	DB	04aH
	DB	049H
	DB	04aH
	DB	049H
	DB	04aH
	DB	029H
	DB	04aH
	DB	049H
	DB	04aH
	DB	049H
	DB	04aH
	DB	049H
	DB	04aH
	DB	048H
	DB	042H
	DB	049H
	DB	04aH
	DB	049H
	DB	04aH
	DB	049H
	DB	04aH
	DB	049H
	DB	04aH
	DB	049H
	DB	04aH
	DB	049H
	DB	04aH
	DB	049H
	DB	04aH
	DB	029H
	DB	04aH
	DB	049H
	DB	04aH
	DB	049H
	DB	04aH
	DB	049H
	DB	04aH
	DB	029H
	DB	04aH
	DB	049H
	DB	04aH
	DB	049H
	DB	04aH
	DB	049H
	DB	04aH
	DB	029H
	DB	04aH
	DB	049H
	DB	04aH
	DB	049H
	DB	04aH
	DB	049H
	DB	04aH
	DB	028H
	DB	042H
	DB	049H
	DB	04aH
	DB	029H
	DB	04aH
	DB	049H
	DB	04aH
	DB	029H
	DB	04aH
	DB	049H
	DB	04aH
	DB	049H
	DB	04aH
	DB	049H
	DB	04aH
	DB	0cbH
	DB	05aH
	DB	0ebH
	DB	05aH
	DB	049H
	DB	04aH
	DB	049H
	DB	04aH
	DB	029H
	DB	04aH
	DB	049H
	DB	04aH
	DB	029H
	DB	04aH
	DB	049H
	DB	04aH
	DB	029H
	DB	04aH
	DB	049H
	DB	04aH
	DB	028H
	DB	042H
	DB	029H
	DB	04aH
	DB	049H
	DB	04aH
	DB	049H
	DB	04aH
	DB	049H
	DB	04aH
	DB	049H
	DB	04aH
	DB	029H
	DB	04aH
	DB	049H
	DB	04aH
	DB	029H
	DB	04aH
	DB	049H
	DB	04aH
	DB	029H
	DB	04aH
	DB	029H
	DB	04aH
	DB	049H
	DB	04aH
	DB	049H
	DB	04aH
	DB	049H
	DB	04aH
	DB	049H
	DB	04aH
	DB	049H
	DB	04aH
	DB	029H
	DB	04aH
	DB	049H
	DB	04aH
	DB	029H
	DB	04aH
	DB	048H
	DB	042H
	DB	049H
	DB	04aH
	DB	049H
	DB	04aH
	DB	049H
	DB	04aH
	DB	029H
	DB	04aH
	DB	049H
	DB	04aH
	DB	049H
	DB	04aH
	DB	049H
	DB	04aH
	DB	0cbH
	DB	05aH
	DB	0cbH
	DB	05aH
	DB	049H
	DB	04aH
	DB	049H
	DB	04aH
	DB	049H
	DB	04aH
	DB	049H
	DB	04aH
	DB	029H
	DB	04aH
	DB	029H
	DB	04aH
	DB	049H
	DB	04aH
	DB	029H
	DB	04aH
	DB	048H
	DB	042H
	DB	049H
	DB	04aH
	DB	029H
	DB	04aH
	DB	049H
	DB	04aH
	DB	049H
	DB	04aH
	DB	029H
	DB	04aH
	DB	049H
	DB	04aH
	DB	049H
	DB	04aH
	DB	049H
	DB	04aH
	DB	049H
	DB	04aH
	DB	029H
	DB	04aH
	DB	049H
	DB	04aH
	DB	049H
	DB	04aH
	DB	049H
	DB	04aH
	DB	029H
	DB	04aH
	DB	049H
	DB	04aH
	DB	049H
	DB	04aH
	DB	029H
	DB	04aH
	DB	049H
	DB	04aH
	DB	049H
	DB	04aH
	DB	048H
	DB	042H
	DB	049H
	DB	04aH
	DB	029H
	DB	04aH
	DB	049H
	DB	04aH
	DB	049H
	DB	04aH
	DB	049H
	DB	04aH
	DB	049H
	DB	04aH
	DB	049H
	DB	04aH
	DB	0cbH
	DB	05aH
	DB	0ebH
	DB	05aH
	DB	049H
	DB	04aH
	DB	049H
	DB	04aH
	DB	049H
	DB	04aH
	DB	049H
	DB	04aH
	DB	029H
	DB	04aH
	DB	029H
	DB	04aH
	DB	049H
	DB	04aH
	DB	029H
	DB	04aH
	DB	048H
	DB	042H
	DB	049H
	DB	04aH
	DB	029H
	DB	04aH
	DB	049H
	DB	04aH
	DB	049H
	DB	04aH
	DB	029H
	DB	04aH
	DB	049H
	DB	04aH
	DB	049H
	DB	04aH
	DB	049H
	DB	04aH
	DB	049H
	DB	04aH
	DB	029H
	DB	04aH
	DB	049H
	DB	04aH
	DB	049H
	DB	04aH
	DB	049H
	DB	04aH
	DB	029H
	DB	04aH
	DB	049H
	DB	04aH
	DB	049H
	DB	04aH
	DB	029H
	DB	04aH
	DB	049H
	DB	04aH
	DB	049H
	DB	04aH
	DB	048H
	DB	042H
	DB	049H
	DB	04aH
	DB	029H
	DB	04aH
	DB	049H
	DB	04aH
	DB	049H
	DB	04aH
	DB	049H
	DB	04aH
	DB	049H
	DB	04aH
	DB	049H
	DB	04aH
	DB	0cbH
	DB	05aH
	DB	0ebH
	DB	05aH
	DB	049H
	DB	04aH
	DB	049H
	DB	04aH
	DB	049H
	DB	04aH
	DB	049H
	DB	04aH
	DB	029H
	DB	04aH
	DB	029H
	DB	04aH
	DB	049H
	DB	04aH
	DB	029H
	DB	04aH
	DB	048H
	DB	042H
	DB	049H
	DB	04aH
	DB	029H
	DB	04aH
	DB	049H
	DB	04aH
	DB	049H
	DB	04aH
	DB	029H
	DB	04aH
	DB	049H
	DB	04aH
	DB	049H
	DB	04aH
	DB	049H
	DB	04aH
	DB	049H
	DB	04aH
	DB	029H
	DB	04aH
	DB	049H
	DB	04aH
	DB	049H
	DB	04aH
	DB	049H
	DB	04aH
	DB	029H
	DB	04aH
	DB	049H
	DB	04aH
	DB	049H
	DB	04aH
	DB	029H
	DB	04aH
	DB	049H
	DB	04aH
	DB	049H
	DB	04aH
	DB	048H
	DB	042H
	DB	049H
	DB	04aH
	DB	029H
	DB	04aH
	DB	049H
	DB	04aH
	DB	049H
	DB	04aH
	DB	049H
	DB	04aH
	DB	049H
	DB	04aH
	DB	049H
	DB	04aH
	DB	0cbH
	DB	05aH
	DB	0ebH
	DB	05aH
	DB	049H
	DB	04aH
	DB	049H
	DB	04aH
	DB	049H
	DB	04aH
	DB	049H
	DB	04aH
	DB	029H
	DB	04aH
	DB	049H
	DB	04aH
	DB	049H
	DB	04aH
	DB	049H
	DB	04aH
	DB	048H
	DB	042H
	DB	029H
	DB	04aH
	DB	049H
	DB	04aH
	DB	048H
	DB	042H
	DB	049H
	DB	04aH
	DB	029H
	DB	04aH
	DB	049H
	DB	04aH
	DB	049H
	DB	04aH
	DB	029H
	DB	04aH
	DB	049H
	DB	04aH
	DB	049H
	DB	04aH
	DB	029H
	DB	04aH
	DB	049H
	DB	04aH
	DB	049H
	DB	04aH
	DB	029H
	DB	04aH
	DB	029H
	DB	04aH
	DB	049H
	DB	04aH
	DB	049H
	DB	04aH
	DB	049H
	DB	04aH
	DB	049H
	DB	04aH
	DB	049H
	DB	04aH
	DB	049H
	DB	04aH
	DB	029H
	DB	04aH
	DB	049H
	DB	04aH
	DB	049H
	DB	04aH
	DB	029H
	DB	04aH
	DB	049H
	DB	04aH
	DB	049H
	DB	04aH
	DB	08aH
	DB	052H
	DB	0efH
	DB	07bH
	DB	0efH
	DB	07bH
	DB	08aH
	DB	052H
	DB	049H
	DB	04aH
	DB	029H
	DB	04aH
	DB	049H
	DB	04aH
	DB	048H
	DB	042H
	DB	049H
	DB	04aH
	DB	029H
	DB	04aH
	DB	049H
	DB	04aH
	DB	048H
	DB	042H
	DB	029H
	DB	04aH
	DB	049H
	DB	04aH
	DB	049H
	DB	04aH
	DB	029H
	DB	04aH
	DB	048H
	DB	042H
	DB	049H
	DB	04aH
	DB	049H
	DB	04aH
	DB	049H
	DB	04aH
	DB	049H
	DB	04aH
	DB	029H
	DB	04aH
	DB	049H
	DB	04aH
	DB	049H
	DB	04aH
	DB	048H
	DB	042H
	DB	029H
	DB	04aH
	DB	049H
	DB	04aH
	DB	049H
	DB	04aH
	DB	049H
	DB	04aH
	DB	029H
	DB	04aH
	DB	049H
	DB	04aH
	DB	049H
	DB	04aH
	DB	049H
	DB	04aH
	DB	029H
	DB	04aH
	DB	049H
	DB	04aH
	DB	049H
	DB	04aH
	DB	049H
	DB	04aH
	DB	029H
	DB	04aH
	DB	049H
	DB	04aH
	DB	049H
	DB	04aH
	DB	0cbH
	DB	05aH
	DB	0ebH
	DB	05aH
	DB	049H
	DB	04aH
	DB	049H
	DB	04aH
	DB	049H
	DB	04aH
	DB	048H
	DB	042H
	DB	029H
	DB	04aH
	DB	049H
	DB	04aH
	DB	049H
	DB	04aH
	DB	029H
	DB	04aH
	DB	049H
	DB	04aH
	DB	049H
	DB	04aH
	DB	029H
	DB	04aH
	DB	029H
	DB	04aH
	DB	049H
	DB	04aH
	DB	048H
	DB	042H
	DB	049H
	DB	04aH
	DB	049H
	DB	04aH
	DB	048H
	DB	042H
	DB	029H
	DB	04aH
	DB	049H
	DB	04aH
	DB	049H
	DB	04aH
	DB	049H
	DB	04aH
	DB	029H
	DB	04aH
	DB	048H
	DB	042H
	DB	049H
	DB	04aH
	DB	029H
	DB	04aH
	DB	048H
	DB	042H
	DB	049H
	DB	04aH
	DB	029H
	DB	04aH
	DB	048H
	DB	042H
	DB	029H
	DB	04aH
	DB	049H
	DB	04aH
	DB	049H
	DB	04aH
	DB	049H
	DB	04aH
	DB	029H
	DB	04aH
	DB	049H
	DB	04aH
	DB	049H
	DB	04aH
	DB	0cbH
	DB	05aH
	DB	0cbH
	DB	05aH
	DB	049H
	DB	04aH
	DB	049H
	DB	04aH
	DB	049H
	DB	04aH
	DB	028H
	DB	042H
	DB	049H
	DB	04aH
	DB	029H
	DB	04aH
	DB	049H
	DB	04aH
	DB	029H
	DB	04aH
	DB	049H
	DB	04aH
	DB	029H
	DB	04aH
	DB	029H
	DB	04aH
	DB	049H
	DB	04aH
	DB	049H
	DB	04aH
	DB	028H
	DB	042H
	DB	049H
	DB	04aH
	DB	049H
	DB	04aH
	DB	049H
	DB	04aH
	DB	049H
	DB	04aH
	DB	048H
	DB	042H
	DB	049H
	DB	04aH
	DB	049H
	DB	04aH
	DB	049H
	DB	04aH
	DB	049H
	DB	04aH
	DB	048H
	DB	042H
	DB	049H
	DB	04aH
	DB	049H
	DB	04aH
	DB	048H
	DB	042H
	DB	049H
	DB	04aH
	DB	049H
	DB	04aH
	DB	049H
	DB	04aH
	DB	049H
	DB	04aH
	DB	028H
	DB	042H
	DB	049H
	DB	04aH
	DB	029H
	DB	04aH
	DB	049H
	DB	04aH
	DB	049H
	DB	04aH
	DB	0cbH
	DB	05aH
	DB	0cbH
	DB	05aH
	DB	049H
	DB	04aH
	DB	049H
	DB	04aH
	DB	049H
	DB	04aH
	DB	049H
	DB	04aH
	DB	048H
	DB	042H
	DB	029H
	DB	04aH
	DB	049H
	DB	04aH
	DB	049H
	DB	04aH
	DB	049H
	DB	04aH
	DB	049H
	DB	04aH
	DB	029H
	DB	04aH
	DB	049H
	DB	04aH
	DB	049H
	DB	04aH
	DB	028H
	DB	042H
	DB	049H
	DB	04aH
	DB	049H
	DB	04aH
	DB	049H
	DB	04aH
	DB	049H
	DB	04aH
	DB	048H
	DB	042H
	DB	049H
	DB	04aH
	DB	029H
	DB	04aH
	DB	049H
	DB	04aH
	DB	029H
	DB	04aH
	DB	048H
	DB	042H
	DB	049H
	DB	04aH
	DB	049H
	DB	04aH
	DB	048H
	DB	042H
	DB	029H
	DB	04aH
	DB	049H
	DB	04aH
	DB	049H
	DB	04aH
	DB	029H
	DB	04aH
	DB	048H
	DB	042H
	DB	049H
	DB	04aH
	DB	029H
	DB	04aH
	DB	049H
	DB	04aH
	DB	049H
	DB	04aH
	DB	0cbH
	DB	05aH
	DB	0ebH
	DB	05aH
	DB	049H
	DB	04aH
	DB	049H
	DB	04aH
	DB	049H
	DB	04aH
	DB	049H
	DB	04aH
	DB	048H
	DB	042H
	DB	049H
	DB	04aH
	DB	049H
	DB	04aH
	DB	049H
	DB	04aH
	DB	029H
	DB	04aH
	DB	049H
	DB	04aH
	DB	049H
	DB	04aH
	DB	049H
	DB	04aH
	DB	049H
	DB	04aH
	DB	028H
	DB	042H
	DB	049H
	DB	04aH
	DB	049H
	DB	04aH
	DB	029H
	DB	04aH
	DB	049H
	DB	04aH
	DB	048H
	DB	042H
	DB	029H
	DB	04aH
	DB	049H
	DB	04aH
	DB	049H
	DB	04aH
	DB	049H
	DB	04aH
	DB	028H
	DB	042H
	DB	049H
	DB	04aH
	DB	049H
	DB	04aH
	DB	028H
	DB	042H
	DB	049H
	DB	04aH
	DB	049H
	DB	04aH
	DB	029H
	DB	04aH
	DB	049H
	DB	04aH
	DB	048H
	DB	042H
	DB	029H
	DB	04aH
	DB	049H
	DB	04aH
	DB	049H
	DB	04aH
	DB	029H
	DB	04aH
	DB	0cbH
	DB	05aH
	DB	0cbH
	DB	05aH
	DB	049H
	DB	04aH
	DB	049H
	DB	04aH
	DB	029H
	DB	04aH
	DB	049H
	DB	04aH
	DB	048H
	DB	042H
	DB	049H
	DB	04aH
	DB	049H
	DB	04aH
	DB	049H
	DB	04aH
	DB	029H
	DB	04aH
	DB	049H
	DB	04aH
	DB	049H
	DB	04aH
	DB	049H
	DB	04aH
	DB	049H
	DB	04aH
	DB	028H
	DB	042H
	DB	049H
	DB	04aH
	DB	049H
	DB	04aH
	DB	029H
	DB	04aH
	DB	049H
	DB	04aH
	DB	048H
	DB	042H
	DB	029H
	DB	04aH
	DB	049H
	DB	04aH
	DB	049H
	DB	04aH
	DB	049H
	DB	04aH
	DB	028H
	DB	042H
	DB	049H
	DB	04aH
	DB	049H
	DB	04aH
	DB	028H
	DB	042H
	DB	049H
	DB	04aH
	DB	049H
	DB	04aH
	DB	029H
	DB	04aH
	DB	049H
	DB	04aH
	DB	048H
	DB	042H
	DB	029H
	DB	04aH
	DB	049H
	DB	04aH
	DB	049H
	DB	04aH
	DB	029H
	DB	04aH
	DB	0cbH
	DB	05aH
	DB	0cbH
	DB	05aH
	DB	049H
	DB	04aH
	DB	049H
	DB	04aH
	DB	029H
	DB	04aH
	DB	049H
	DB	04aH
	DB	048H
	DB	042H
	DB	049H
	DB	04aH
	DB	049H
	DB	04aH
	DB	049H
	DB	04aH
	DB	029H
	DB	04aH
	DB	049H
	DB	04aH
	DB	049H
	DB	04aH
	DB	049H
	DB	04aH
	DB	049H
	DB	04aH
	DB	028H
	DB	042H
	DB	049H
	DB	04aH
	DB	049H
	DB	04aH
	DB	029H
	DB	04aH
	DB	049H
	DB	04aH
	DB	048H
	DB	042H
	DB	029H
	DB	04aH
	DB	049H
	DB	04aH
	DB	049H
	DB	04aH
	DB	049H
	DB	04aH
	DB	028H
	DB	042H
	DB	049H
	DB	04aH
	DB	049H
	DB	04aH
	DB	028H
	DB	042H
	DB	049H
	DB	04aH
	DB	049H
	DB	04aH
	DB	029H
	DB	04aH
	DB	049H
	DB	04aH
	DB	048H
	DB	042H
	DB	029H
	DB	04aH
	DB	049H
	DB	04aH
	DB	049H
	DB	04aH
	DB	029H
	DB	04aH
	DB	0cbH
	DB	05aH
	DB	0cbH
	DB	05aH
	DB	049H
	DB	04aH
	DB	049H
	DB	04aH
	DB	029H
	DB	04aH
	DB	049H
	DB	04aH
	DB	048H
	DB	042H
	DB	029H
	DB	04aH
	DB	049H
	DB	04aH
	DB	049H
	DB	04aH
	DB	029H
	DB	04aH
	DB	049H
	DB	04aH
	DB	049H
	DB	04aH
	DB	049H
	DB	04aH
	DB	049H
	DB	04aH
	DB	048H
	DB	042H
	DB	049H
	DB	04aH
	DB	049H
	DB	04aH
	DB	049H
	DB	04aH
	DB	049H
	DB	04aH
	DB	049H
	DB	04aH
	DB	049H
	DB	04aH
	DB	048H
	DB	042H
	DB	049H
	DB	04aH
	DB	049H
	DB	04aH
	DB	049H
	DB	04aH
	DB	029H
	DB	04aH
	DB	048H
	DB	042H
	DB	029H
	DB	04aH
	DB	049H
	DB	04aH
	DB	048H
	DB	042H
	DB	029H
	DB	04aH
	DB	049H
	DB	04aH
	DB	048H
	DB	042H
	DB	029H
	DB	04aH
	DB	049H
	DB	04aH
	DB	049H
	DB	04aH
	DB	029H
	DB	04aH
	DB	08aH
	DB	052H
	DB	0efH
	DB	07bH
	DB	0efH
	DB	07bH
	DB	08aH
	DB	052H
	DB	049H
	DB	04aH
	DB	049H
	DB	04aH
	DB	029H
	DB	04aH
	DB	049H
	DB	04aH
	DB	049H
	DB	04aH
	DB	049H
	DB	04aH
	DB	029H
	DB	04aH
	DB	049H
	DB	04aH
	DB	049H
	DB	04aH
	DB	048H
	DB	042H
	DB	049H
	DB	04aH
	DB	029H
	DB	04aH
	DB	049H
	DB	04aH
	DB	049H
	DB	04aH
	DB	029H
	DB	04aH
	DB	049H
	DB	04aH
	DB	049H
	DB	04aH
	DB	049H
	DB	04aH
	DB	049H
	DB	04aH
	DB	049H
	DB	04aH
	DB	049H
	DB	04aH
	DB	049H
	DB	04aH
	DB	029H
	DB	04aH
	DB	049H
	DB	04aH
	DB	049H
	DB	04aH
	DB	049H
	DB	04aH
	DB	029H
	DB	04aH
	DB	049H
	DB	04aH
	DB	049H
	DB	04aH
	DB	029H
	DB	04aH
	DB	048H
	DB	042H
	DB	049H
	DB	04aH
	DB	049H
	DB	04aH
	DB	049H
	DB	04aH
	DB	049H
	DB	04aH
	DB	049H
	DB	04aH
	DB	0cbH
	DB	05aH
	DB	0cbH
	DB	05aH
	DB	049H
	DB	04aH
	DB	049H
	DB	04aH
	DB	029H
	DB	04aH
	DB	049H
	DB	04aH
	DB	049H
	DB	04aH
	DB	049H
	DB	04aH
	DB	049H
	DB	04aH
	DB	049H
	DB	04aH
	DB	049H
	DB	04aH
	DB	049H
	DB	04aH
	DB	049H
	DB	04aH
	DB	049H
	DB	04aH
	DB	029H
	DB	04aH
	DB	049H
	DB	04aH
	DB	049H
	DB	04aH
	DB	049H
	DB	04aH
	DB	029H
	DB	04aH
	DB	049H
	DB	04aH
	DB	049H
	DB	04aH
	DB	049H
	DB	04aH
	DB	049H
	DB	04aH
	DB	029H
	DB	04aH
	DB	049H
	DB	04aH
	DB	049H
	DB	04aH
	DB	049H
	DB	04aH
	DB	049H
	DB	04aH
	DB	049H
	DB	04aH
	DB	049H
	DB	04aH
	DB	029H
	DB	04aH
	DB	049H
	DB	04aH
	DB	049H
	DB	04aH
	DB	028H
	DB	042H
	DB	049H
	DB	04aH
	DB	049H
	DB	04aH
	DB	049H
	DB	04aH
	DB	049H
	DB	04aH
	DB	0cbH
	DB	05aH
	DB	0ebH
	DB	05aH
	DB	049H
	DB	04aH
	DB	049H
	DB	04aH
	DB	049H
	DB	04aH
	DB	049H
	DB	04aH
	DB	049H
	DB	04aH
	DB	049H
	DB	04aH
	DB	048H
	DB	042H
	DB	049H
	DB	04aH
	DB	049H
	DB	04aH
	DB	049H
	DB	04aH
	DB	048H
	DB	042H
	DB	049H
	DB	04aH
	DB	029H
	DB	04aH
	DB	049H
	DB	04aH
	DB	049H
	DB	04aH
	DB	029H
	DB	04aH
	DB	048H
	DB	042H
	DB	029H
	DB	04aH
	DB	029H
	DB	04aH
	DB	049H
	DB	04aH
	DB	049H
	DB	04aH
	DB	028H
	DB	042H
	DB	029H
	DB	04aH
	DB	049H
	DB	04aH
	DB	029H
	DB	04aH
	DB	049H
	DB	04aH
	DB	029H
	DB	04aH
	DB	029H
	DB	04aH
	DB	049H
	DB	04aH
	DB	049H
	DB	04aH
	DB	049H
	DB	04aH
	DB	049H
	DB	04aH
	DB	049H
	DB	04aH
	DB	049H
	DB	04aH
	DB	049H
	DB	04aH
	DB	049H
	DB	04aH
	DB	0cbH
	DB	05aH
	DB	0ebH
	DB	05aH
	DB	049H
	DB	04aH
	DB	029H
	DB	04aH
	DB	049H
	DB	04aH
	DB	049H
	DB	04aH
	DB	049H
	DB	04aH
	DB	049H
	DB	04aH
	DB	049H
	DB	04aH
	DB	049H
	DB	04aH
	DB	049H
	DB	04aH
	DB	048H
	DB	042H
	DB	049H
	DB	04aH
	DB	029H
	DB	04aH
	DB	049H
	DB	04aH
	DB	049H
	DB	04aH
	DB	049H
	DB	04aH
	DB	049H
	DB	04aH
	DB	028H
	DB	042H
	DB	049H
	DB	04aH
	DB	049H
	DB	04aH
	DB	049H
	DB	04aH
	DB	049H
	DB	04aH
	DB	048H
	DB	042H
	DB	029H
	DB	04aH
	DB	049H
	DB	04aH
	DB	049H
	DB	04aH
	DB	029H
	DB	04aH
	DB	049H
	DB	04aH
	DB	049H
	DB	04aH
	DB	049H
	DB	04aH
	DB	029H
	DB	04aH
	DB	049H
	DB	04aH
	DB	049H
	DB	04aH
	DB	049H
	DB	04aH
	DB	029H
	DB	04aH
	DB	049H
	DB	04aH
	DB	049H
	DB	04aH
	DB	0cbH
	DB	05aH
	DB	0cbH
	DB	05aH
	DB	049H
	DB	04aH
	DB	029H
	DB	04aH
	DB	029H
	DB	04aH
	DB	049H
	DB	04aH
	DB	049H
	DB	04aH
	DB	029H
	DB	04aH
	DB	049H
	DB	04aH
	DB	049H
	DB	04aH
	DB	049H
	DB	04aH
	DB	028H
	DB	042H
	DB	049H
	DB	04aH
	DB	049H
	DB	04aH
	DB	049H
	DB	04aH
	DB	049H
	DB	04aH
	DB	049H
	DB	04aH
	DB	029H
	DB	04aH
	DB	048H
	DB	042H
	DB	049H
	DB	04aH
	DB	049H
	DB	04aH
	DB	049H
	DB	04aH
	DB	029H
	DB	04aH
	DB	048H
	DB	042H
	DB	049H
	DB	04aH
	DB	049H
	DB	04aH
	DB	049H
	DB	04aH
	DB	049H
	DB	04aH
	DB	049H
	DB	04aH
	DB	049H
	DB	04aH
	DB	029H
	DB	04aH
	DB	049H
	DB	04aH
	DB	049H
	DB	04aH
	DB	049H
	DB	04aH
	DB	029H
	DB	04aH
	DB	049H
	DB	04aH
	DB	049H
	DB	04aH
	DB	049H
	DB	04aH
	DB	0cbH
	DB	05aH
	DB	0ebH
	DB	05aH
	DB	049H
	DB	04aH
	DB	029H
	DB	04aH
	DB	049H
	DB	04aH
	DB	049H
	DB	04aH
	DB	049H
	DB	04aH
	DB	049H
	DB	04aH
	DB	049H
	DB	04aH
	DB	049H
	DB	04aH
	DB	049H
	DB	04aH
	DB	028H
	DB	042H
	DB	049H
	DB	04aH
	DB	049H
	DB	04aH
	DB	049H
	DB	04aH
	DB	049H
	DB	04aH
	DB	049H
	DB	04aH
	DB	029H
	DB	04aH
	DB	048H
	DB	042H
	DB	049H
	DB	04aH
	DB	049H
	DB	04aH
	DB	049H
	DB	04aH
	DB	029H
	DB	04aH
	DB	048H
	DB	042H
	DB	049H
	DB	04aH
	DB	049H
	DB	04aH
	DB	049H
	DB	04aH
	DB	049H
	DB	04aH
	DB	049H
	DB	04aH
	DB	049H
	DB	04aH
	DB	029H
	DB	04aH
	DB	049H
	DB	04aH
	DB	049H
	DB	04aH
	DB	049H
	DB	04aH
	DB	029H
	DB	04aH
	DB	049H
	DB	04aH
	DB	049H
	DB	04aH
	DB	049H
	DB	04aH
	DB	0cbH
	DB	05aH
	DB	0ebH
	DB	05aH
	DB	049H
	DB	04aH
	DB	029H
	DB	04aH
	DB	049H
	DB	04aH
	DB	049H
	DB	04aH
	DB	049H
	DB	04aH
	DB	049H
	DB	04aH
	DB	049H
	DB	04aH
	DB	049H
	DB	04aH
	DB	049H
	DB	04aH
	DB	028H
	DB	042H
	DB	049H
	DB	04aH
	DB	049H
	DB	04aH
	DB	049H
	DB	04aH
	DB	049H
	DB	04aH
	DB	049H
	DB	04aH
	DB	029H
	DB	04aH
	DB	048H
	DB	042H
	DB	049H
	DB	04aH
	DB	049H
	DB	04aH
	DB	049H
	DB	04aH
	DB	029H
	DB	04aH
	DB	048H
	DB	042H
	DB	049H
	DB	04aH
	DB	049H
	DB	04aH
	DB	049H
	DB	04aH
	DB	049H
	DB	04aH
	DB	049H
	DB	04aH
	DB	049H
	DB	04aH
	DB	029H
	DB	04aH
	DB	049H
	DB	04aH
	DB	049H
	DB	04aH
	DB	049H
	DB	04aH
	DB	029H
	DB	04aH
	DB	049H
	DB	04aH
	DB	049H
	DB	04aH
	DB	049H
	DB	04aH
	DB	0cbH
	DB	05aH
	DB	0ebH
	DB	05aH
	DB	049H
	DB	04aH
	DB	029H
	DB	04aH
	DB	049H
	DB	04aH
	DB	049H
	DB	04aH
	DB	049H
	DB	04aH
	DB	029H
	DB	04aH
	DB	049H
	DB	04aH
	DB	048H
	DB	042H
	DB	049H
	DB	04aH
	DB	049H
	DB	04aH
	DB	029H
	DB	04aH
	DB	029H
	DB	04aH
	DB	049H
	DB	04aH
	DB	049H
	DB	04aH
	DB	029H
	DB	04aH
	DB	049H
	DB	04aH
	DB	028H
	DB	042H
	DB	029H
	DB	04aH
	DB	049H
	DB	04aH
	DB	029H
	DB	04aH
	DB	049H
	DB	04aH
	DB	029H
	DB	04aH
	DB	049H
	DB	04aH
	DB	048H
	DB	042H
	DB	049H
	DB	04aH
	DB	049H
	DB	04aH
	DB	029H
	DB	04aH
	DB	049H
	DB	04aH
	DB	049H
	DB	04aH
	DB	049H
	DB	04aH
	DB	049H
	DB	04aH
	DB	049H
	DB	04aH
	DB	049H
	DB	04aH
	DB	049H
	DB	04aH
	DB	048H
	DB	042H
	DB	049H
	DB	04aH
	DB	08aH
	DB	052H
	DB	0efH
	DB	07bH
	DB	0cfH
	DB	07bH
	DB	04bH
	DB	05bH
	DB	0cbH
	DB	05aH
	DB	0cbH
	DB	05aH
	DB	0cbH
	DB	05aH
	DB	0cbH
	DB	05aH
	DB	0cbH
	DB	05aH
	DB	0cbH
	DB	05aH
	DB	0ebH
	DB	05aH
	DB	0cbH
	DB	05aH
	DB	0cbH
	DB	05aH
	DB	0cbH
	DB	05aH
	DB	0cbH
	DB	05aH
	DB	0ebH
	DB	05aH
	DB	0cbH
	DB	05aH
	DB	0cbH
	DB	05aH
	DB	0cbH
	DB	05aH
	DB	0cbH
	DB	05aH
	DB	0cbH
	DB	05aH
	DB	0cbH
	DB	05aH
	DB	0cbH
	DB	05aH
	DB	0cbH
	DB	05aH
	DB	0cbH
	DB	05aH
	DB	0cbH
	DB	05aH
	DB	0cbH
	DB	05aH
	DB	0cbH
	DB	05aH
	DB	0cbH
	DB	05aH
	DB	0cbH
	DB	05aH
	DB	0ebH
	DB	05aH
	DB	0cbH
	DB	05aH
	DB	0cbH
	DB	05aH
	DB	0cbH
	DB	05aH
	DB	0cbH
	DB	05aH
	DB	0cbH
	DB	05aH
	DB	0cbH
	DB	05aH
	DB	0cbH
	DB	05aH
	DB	0cbH
	DB	05aH
	DB	0cbH
	DB	05aH
	DB	0ebH
	DB	05aH
	DB	0cbH
	DB	05aH
	DB	0cbH
	DB	05aH
	DB	0cbH
	DB	05aH
	DB	0cbH
	DB	05aH
	DB	0cbH
	DB	05aH
	DB	0cbH
	DB	05aH
	DB	0cbH
	DB	05aH
	DB	0cbH
	DB	05aH
	DB	0cbH
	DB	05aH
	DB	0cbH
	DB	05aH
	DB	0cbH
	DB	05aH
	DB	0cbH
	DB	05aH
	DB	0ebH
	DB	05aH
	DB	0cbH
	DB	05aH
	DB	0cbH
	DB	05aH
	DB	0cbH
	DB	05aH
	DB	0cbH
	DB	05aH
	DB	0cbH
	DB	05aH
	DB	0cbH
	DB	05aH
	DB	0cbH
	DB	05aH
	DB	0cbH
	DB	05aH
	DB	0cbH
	DB	05aH
	DB	0cbH
	DB	05aH
	DB	0cbH
	DB	05aH
	DB	0cbH
	DB	05aH
	DB	0cbH
	DB	05aH
	DB	0cbH
	DB	05aH
	DB	0cbH
	DB	05aH
	DB	0cbH
	DB	05aH
	DB	0ebH
	DB	05aH
	DB	0cbH
	DB	05aH
	DB	0cbH
	DB	05aH
	DB	0cbH
	DB	05aH
	DB	0cbH
	DB	05aH
	DB	0cbH
	DB	05aH
	DB	0cbH
	DB	05aH
	DB	0cbH
	DB	05aH
	DB	0ebH
	DB	05aH
	DB	0cbH
	DB	05aH
	DB	0cbH
	DB	05aH
	DB	0cbH
	DB	05aH
	DB	0cbH
	DB	05aH
	DB	0cbH
	DB	05aH
	DB	0cbH
	DB	05aH
	DB	0cbH
	DB	05aH
	DB	0cbH
	DB	05aH
	DB	0cbH
	DB	05aH
	DB	0cbH
	DB	05aH
	DB	0cbH
	DB	05aH
	DB	0cbH
	DB	05aH
	DB	0cbH
	DB	05aH
	DB	0cbH
	DB	05aH
	DB	0ebH
	DB	05aH
	DB	0cbH
	DB	05aH
	DB	0cbH
	DB	05aH
	DB	0ebH
	DB	05aH
	DB	0cbH
	DB	05aH
	DB	0cbH
	DB	05aH
	DB	0cbH
	DB	05aH
	DB	0cbH
	DB	05aH
	DB	0cbH
	DB	05aH
	DB	0ebH
	DB	05aH
	DB	0cbH
	DB	05aH
	DB	0cbH
	DB	05aH
	DB	0cbH
	DB	05aH
	DB	0ebH
	DB	05aH
	DB	0cbH
	DB	05aH
	DB	0cbH
	DB	05aH
	DB	0cbH
	DB	05aH
	DB	0cbH
	DB	05aH
	DB	0cbH
	DB	05aH
	DB	0cbH
	DB	05aH
	DB	0cbH
	DB	05aH
	DB	0cbH
	DB	05aH
	DB	0cbH
	DB	05aH
	DB	0ebH
	DB	05aH
	DB	0cbH
	DB	05aH
	DB	0cbH
	DB	05aH
	DB	0cbH
	DB	05aH
	DB	0cbH
	DB	05aH
	DB	0cbH
	DB	05aH
	DB	0cbH
	DB	05aH
	DB	0cbH
	DB	05aH
	DB	0cbH
	DB	05aH
	DB	0cbH
	DB	05aH
	DB	0cbH
	DB	05aH
	DB	0cbH
	DB	05aH
	DB	0cbH
	DB	05aH
	DB	0cbH
	DB	05aH
	DB	0cbH
	DB	05aH
	DB	0cbH
	DB	05aH
	DB	0cbH
	DB	05aH
	DB	0cbH
	DB	05aH
	DB	0cbH
	DB	05aH
	DB	0cbH
	DB	05aH
	DB	0cbH
	DB	05aH
	DB	0cbH
	DB	05aH
	DB	0cbH
	DB	05aH
	DB	0cbH
	DB	05aH
	DB	0ebH
	DB	05aH
	DB	0cbH
	DB	05aH
	DB	0cbH
	DB	05aH
	DB	0cbH
	DB	05aH
	DB	0cbH
	DB	05aH
	DB	0ebH
	DB	05aH
	DB	0cbH
	DB	05aH
	DB	0cbH
	DB	05aH
	DB	0cbH
	DB	05aH
	DB	0cbH
	DB	05aH
	DB	0cbH
	DB	05aH
	DB	0ebH
	DB	05aH
	DB	0cbH
	DB	05aH
	DB	0cbH
	DB	05aH
	DB	0ebH
	DB	05aH
	DB	0cbH
	DB	05aH
	DB	0ebH
	DB	05aH
	DB	0cbH
	DB	05aH
	DB	0cbH
	DB	05aH
	DB	0cbH
	DB	05aH
	DB	0cbH
	DB	05aH
	DB	0cbH
	DB	05aH
	DB	0cbH
	DB	05aH
	DB	0cbH
	DB	05aH
	DB	0cbH
	DB	05aH
	DB	0cbH
	DB	05aH
	DB	0cbH
	DB	05aH
	DB	0cbH
	DB	05aH
	DB	0cbH
	DB	05aH
	DB	0cbH
	DB	05aH
	DB	0cbH
	DB	05aH
	DB	0cbH
	DB	05aH
	DB	0cbH
	DB	05aH
	DB	0cbH
	DB	05aH
	DB	0cbH
	DB	05aH
	DB	0cbH
	DB	05aH
	DB	0cbH
	DB	05aH
	DB	0cbH
	DB	05aH
	DB	0cbH
	DB	05aH
	DB	0cbH
	DB	05aH
	DB	0cbH
	DB	05aH
	DB	0cbH
	DB	05aH
	DB	0cbH
	DB	05aH
	DB	0cbH
	DB	05aH
	DB	0ebH
	DB	05aH
	DB	0cbH
	DB	05aH
	DB	0cbH
	DB	05aH
	DB	0cbH
	DB	05aH
	DB	0ebH
	DB	05aH
	DB	0cbH
	DB	05aH
	DB	0cbH
	DB	05aH
	DB	0ebH
	DB	05aH
	DB	0ebH
	DB	05aH
	DB	0cbH
	DB	05aH
	DB	0cbH
	DB	05aH
	DB	0ebH
	DB	05aH
	DB	0cbH
	DB	05aH
	DB	0cbH
	DB	05aH
	DB	0cbH
	DB	05aH
	DB	0cbH
	DB	05aH
	DB	0cbH
	DB	05aH
	DB	0cbH
	DB	05aH
	DB	0cbH
	DB	05aH
	DB	0cbH
	DB	05aH
	DB	0cbH
	DB	05aH
	DB	0cbH
	DB	05aH
	DB	0cbH
	DB	05aH
	DB	0cbH
	DB	05aH
	DB	0cbH
	DB	05aH
	DB	0cbH
	DB	05aH
	DB	0cbH
	DB	05aH
	DB	0cbH
	DB	05aH
	DB	0cbH
	DB	05aH
	DB	0cbH
	DB	05aH
	DB	0cbH
	DB	05aH
	DB	0cbH
	DB	05aH
	DB	0cbH
	DB	05aH
	DB	0cbH
	DB	05aH
	DB	0cbH
	DB	05aH
	DB	0cbH
	DB	05aH
	DB	0cbH
	DB	05aH
	DB	0cbH
	DB	05aH
	DB	0ebH
	DB	05aH
	DB	0cbH
	DB	05aH
	DB	0cbH
	DB	05aH
	DB	0cbH
	DB	05aH
	DB	0ebH
	DB	05aH
	DB	0cbH
	DB	05aH
	DB	0cbH
	DB	05aH
	DB	0ebH
	DB	05aH
	DB	0ebH
	DB	05aH
	DB	0cbH
	DB	05aH
	DB	0cbH
	DB	05aH
	DB	0ebH
	DB	05aH
	DB	0cbH
	DB	05aH
	DB	0cbH
	DB	05aH
	DB	0cbH
	DB	05aH
	DB	0cbH
	DB	05aH
	DB	0cbH
	DB	05aH
	DB	0cbH
	DB	05aH
	DB	0cbH
	DB	05aH
	DB	0cbH
	DB	05aH
	DB	0cbH
	DB	05aH
	DB	0cbH
	DB	05aH
	DB	0cbH
	DB	05aH
	DB	0cbH
	DB	05aH
	DB	0cbH
	DB	05aH
	DB	0cbH
	DB	05aH
	DB	0cbH
	DB	05aH
	DB	0cbH
	DB	05aH
	DB	0cbH
	DB	05aH
	DB	0cbH
	DB	05aH
	DB	0cbH
	DB	05aH
	DB	0cbH
	DB	05aH
	DB	0cbH
	DB	05aH
	DB	0cbH
	DB	05aH
	DB	0cbH
	DB	05aH
	DB	0cbH
	DB	05aH
	DB	0cbH
	DB	05aH
	DB	0cbH
	DB	05aH
	DB	0ebH
	DB	05aH
	DB	0cbH
	DB	05aH
	DB	0cbH
	DB	05aH
	DB	0cbH
	DB	05aH
	DB	0ebH
	DB	05aH
	DB	0cbH
	DB	05aH
	DB	0cbH
	DB	05aH
	DB	0ebH
	DB	05aH
	DB	0ebH
	DB	05aH
	DB	0cbH
	DB	05aH
	DB	0cbH
	DB	05aH
	DB	0ebH
	DB	05aH
	DB	0cbH
	DB	05aH
	DB	0cbH
	DB	05aH
	DB	0cbH
	DB	05aH
	DB	0ebH
	DB	05aH
	DB	0cbH
	DB	05aH
	DB	0cbH
	DB	05aH
	DB	0cbH
	DB	05aH
	DB	0cbH
	DB	05aH
	DB	0ebH
	DB	05aH
	DB	0cbH
	DB	05aH
	DB	0cbH
	DB	05aH
	DB	0cbH
	DB	05aH
	DB	0cbH
	DB	05aH
	DB	0ebH
	DB	05aH
	DB	0cbH
	DB	05aH
	DB	0cbH
	DB	05aH
	DB	0ebH
	DB	05aH
	DB	0cbH
	DB	05aH
	DB	0cbH
	DB	05aH
	DB	0cbH
	DB	05aH
	DB	0cbH
	DB	05aH
	DB	0cbH
	DB	05aH
	DB	0cbH
	DB	05aH
	DB	0cbH
	DB	05aH
	DB	0ebH
	DB	05aH
	DB	0cbH
	DB	05aH
	DB	0cbH
	DB	05aH
	DB	0cbH
	DB	05aH
	DB	0cbH
	DB	05aH
	DB	0cbH
	DB	05aH
	DB	0cbH
	DB	05aH
	DB	0cbH
	DB	05aH
	DB	0cbH
	DB	05aH
	DB	0cbH
	DB	05aH
	DB	04bH
	DB	05bH
	DB	0efH
	DB	07bH
	DB	0efH
	DB	07bH
	DB	0caH
	DB	052H
	DB	069H
	DB	04aH
	DB	069H
	DB	04aH
	DB	069H
	DB	04aH
	DB	069H
	DB	04aH
	DB	069H
	DB	04aH
	DB	069H
	DB	04aH
	DB	069H
	DB	04aH
	DB	069H
	DB	04aH
	DB	069H
	DB	04aH
	DB	069H
	DB	04aH
	DB	069H
	DB	04aH
	DB	069H
	DB	04aH
	DB	069H
	DB	04aH
	DB	069H
	DB	04aH
	DB	069H
	DB	04aH
	DB	069H
	DB	04aH
	DB	069H
	DB	04aH
	DB	069H
	DB	04aH
	DB	069H
	DB	04aH
	DB	069H
	DB	04aH
	DB	069H
	DB	04aH
	DB	069H
	DB	04aH
	DB	069H
	DB	04aH
	DB	069H
	DB	04aH
	DB	069H
	DB	04aH
	DB	069H
	DB	04aH
	DB	069H
	DB	04aH
	DB	069H
	DB	04aH
	DB	069H
	DB	04aH
	DB	069H
	DB	04aH
	DB	069H
	DB	04aH
	DB	069H
	DB	04aH
	DB	069H
	DB	04aH
	DB	069H
	DB	04aH
	DB	069H
	DB	04aH
	DB	069H
	DB	04aH
	DB	0ebH
	DB	05aH
	DB	0ebH
	DB	05aH
	DB	069H
	DB	04aH
	DB	069H
	DB	04aH
	DB	069H
	DB	04aH
	DB	069H
	DB	04aH
	DB	069H
	DB	04aH
	DB	069H
	DB	04aH
	DB	069H
	DB	04aH
	DB	069H
	DB	04aH
	DB	069H
	DB	04aH
	DB	069H
	DB	04aH
	DB	069H
	DB	04aH
	DB	069H
	DB	04aH
	DB	069H
	DB	04aH
	DB	069H
	DB	04aH
	DB	069H
	DB	04aH
	DB	069H
	DB	04aH
	DB	069H
	DB	04aH
	DB	069H
	DB	04aH
	DB	069H
	DB	04aH
	DB	069H
	DB	04aH
	DB	069H
	DB	04aH
	DB	069H
	DB	04aH
	DB	069H
	DB	04aH
	DB	069H
	DB	04aH
	DB	069H
	DB	04aH
	DB	069H
	DB	04aH
	DB	069H
	DB	04aH
	DB	069H
	DB	04aH
	DB	069H
	DB	04aH
	DB	069H
	DB	04aH
	DB	069H
	DB	04aH
	DB	069H
	DB	04aH
	DB	069H
	DB	04aH
	DB	069H
	DB	04aH
	DB	069H
	DB	04aH
	DB	069H
	DB	04aH
	DB	0ebH
	DB	05aH
	DB	0cbH
	DB	05aH
	DB	069H
	DB	04aH
	DB	069H
	DB	04aH
	DB	069H
	DB	04aH
	DB	069H
	DB	04aH
	DB	069H
	DB	04aH
	DB	069H
	DB	04aH
	DB	069H
	DB	04aH
	DB	069H
	DB	04aH
	DB	069H
	DB	04aH
	DB	069H
	DB	04aH
	DB	069H
	DB	04aH
	DB	069H
	DB	04aH
	DB	069H
	DB	04aH
	DB	069H
	DB	04aH
	DB	069H
	DB	04aH
	DB	069H
	DB	04aH
	DB	069H
	DB	04aH
	DB	069H
	DB	04aH
	DB	069H
	DB	04aH
	DB	069H
	DB	04aH
	DB	069H
	DB	04aH
	DB	069H
	DB	04aH
	DB	069H
	DB	04aH
	DB	069H
	DB	04aH
	DB	069H
	DB	04aH
	DB	069H
	DB	04aH
	DB	069H
	DB	04aH
	DB	069H
	DB	04aH
	DB	069H
	DB	04aH
	DB	069H
	DB	04aH
	DB	069H
	DB	04aH
	DB	069H
	DB	04aH
	DB	069H
	DB	04aH
	DB	069H
	DB	04aH
	DB	069H
	DB	04aH
	DB	069H
	DB	04aH
	DB	0ebH
	DB	05aH
	DB	0ebH
	DB	05aH
	DB	069H
	DB	04aH
	DB	069H
	DB	04aH
	DB	069H
	DB	04aH
	DB	069H
	DB	04aH
	DB	069H
	DB	04aH
	DB	069H
	DB	04aH
	DB	069H
	DB	04aH
	DB	069H
	DB	04aH
	DB	069H
	DB	04aH
	DB	069H
	DB	04aH
	DB	069H
	DB	04aH
	DB	069H
	DB	04aH
	DB	069H
	DB	04aH
	DB	069H
	DB	04aH
	DB	069H
	DB	04aH
	DB	069H
	DB	04aH
	DB	069H
	DB	04aH
	DB	069H
	DB	04aH
	DB	069H
	DB	04aH
	DB	069H
	DB	04aH
	DB	069H
	DB	04aH
	DB	069H
	DB	04aH
	DB	069H
	DB	04aH
	DB	069H
	DB	04aH
	DB	069H
	DB	04aH
	DB	069H
	DB	04aH
	DB	069H
	DB	04aH
	DB	069H
	DB	04aH
	DB	069H
	DB	04aH
	DB	069H
	DB	04aH
	DB	069H
	DB	04aH
	DB	069H
	DB	04aH
	DB	069H
	DB	04aH
	DB	069H
	DB	04aH
	DB	069H
	DB	04aH
	DB	069H
	DB	04aH
	DB	0ebH
	DB	05aH
	DB	0ebH
	DB	05aH
	DB	069H
	DB	04aH
	DB	069H
	DB	04aH
	DB	069H
	DB	04aH
	DB	069H
	DB	04aH
	DB	069H
	DB	04aH
	DB	069H
	DB	04aH
	DB	069H
	DB	04aH
	DB	069H
	DB	04aH
	DB	069H
	DB	04aH
	DB	069H
	DB	04aH
	DB	069H
	DB	04aH
	DB	069H
	DB	04aH
	DB	069H
	DB	04aH
	DB	069H
	DB	04aH
	DB	069H
	DB	04aH
	DB	069H
	DB	04aH
	DB	069H
	DB	04aH
	DB	069H
	DB	04aH
	DB	069H
	DB	04aH
	DB	069H
	DB	04aH
	DB	069H
	DB	04aH
	DB	069H
	DB	04aH
	DB	069H
	DB	04aH
	DB	069H
	DB	04aH
	DB	069H
	DB	04aH
	DB	069H
	DB	04aH
	DB	069H
	DB	04aH
	DB	069H
	DB	04aH
	DB	069H
	DB	04aH
	DB	069H
	DB	04aH
	DB	069H
	DB	04aH
	DB	069H
	DB	04aH
	DB	069H
	DB	04aH
	DB	069H
	DB	04aH
	DB	069H
	DB	04aH
	DB	069H
	DB	04aH
	DB	0cbH
	DB	05aH
	DB	0ebH
	DB	05aH
	DB	069H
	DB	04aH
	DB	069H
	DB	04aH
	DB	069H
	DB	04aH
	DB	069H
	DB	04aH
	DB	069H
	DB	04aH
	DB	069H
	DB	04aH
	DB	069H
	DB	04aH
	DB	069H
	DB	04aH
	DB	069H
	DB	04aH
	DB	069H
	DB	04aH
	DB	069H
	DB	04aH
	DB	069H
	DB	04aH
	DB	069H
	DB	04aH
	DB	069H
	DB	04aH
	DB	069H
	DB	04aH
	DB	069H
	DB	04aH
	DB	069H
	DB	04aH
	DB	069H
	DB	04aH
	DB	069H
	DB	04aH
	DB	069H
	DB	04aH
	DB	069H
	DB	04aH
	DB	069H
	DB	04aH
	DB	069H
	DB	04aH
	DB	069H
	DB	04aH
	DB	069H
	DB	04aH
	DB	069H
	DB	04aH
	DB	069H
	DB	04aH
	DB	069H
	DB	04aH
	DB	069H
	DB	04aH
	DB	069H
	DB	04aH
	DB	069H
	DB	04aH
	DB	069H
	DB	04aH
	DB	069H
	DB	04aH
	DB	069H
	DB	04aH
	DB	069H
	DB	04aH
	DB	069H
	DB	04aH
	DB	0cbH
	DB	05aH
	DB	0ebH
	DB	05aH
	DB	069H
	DB	04aH
	DB	069H
	DB	04aH
	DB	069H
	DB	04aH
	DB	069H
	DB	04aH
	DB	069H
	DB	04aH
	DB	069H
	DB	04aH
	DB	069H
	DB	04aH
	DB	069H
	DB	04aH
	DB	069H
	DB	04aH
	DB	069H
	DB	04aH
	DB	069H
	DB	04aH
	DB	069H
	DB	04aH
	DB	069H
	DB	04aH
	DB	069H
	DB	04aH
	DB	069H
	DB	04aH
	DB	069H
	DB	04aH
	DB	069H
	DB	04aH
	DB	069H
	DB	04aH
	DB	069H
	DB	04aH
	DB	069H
	DB	04aH
	DB	069H
	DB	04aH
	DB	069H
	DB	04aH
	DB	069H
	DB	04aH
	DB	069H
	DB	04aH
	DB	069H
	DB	04aH
	DB	069H
	DB	04aH
	DB	069H
	DB	04aH
	DB	069H
	DB	04aH
	DB	069H
	DB	04aH
	DB	069H
	DB	04aH
	DB	069H
	DB	04aH
	DB	069H
	DB	04aH
	DB	069H
	DB	04aH
	DB	069H
	DB	04aH
	DB	069H
	DB	04aH
	DB	069H
	DB	04aH
	DB	0cbH
	DB	05aH
	DB	0ebH
	DB	05aH
	DB	069H
	DB	04aH
	DB	069H
	DB	04aH
	DB	069H
	DB	04aH
	DB	069H
	DB	04aH
	DB	069H
	DB	04aH
	DB	069H
	DB	04aH
	DB	069H
	DB	04aH
	DB	069H
	DB	04aH
	DB	069H
	DB	04aH
	DB	069H
	DB	04aH
	DB	069H
	DB	04aH
	DB	069H
	DB	04aH
	DB	069H
	DB	04aH
	DB	069H
	DB	04aH
	DB	069H
	DB	04aH
	DB	069H
	DB	04aH
	DB	069H
	DB	04aH
	DB	069H
	DB	04aH
	DB	069H
	DB	04aH
	DB	069H
	DB	04aH
	DB	069H
	DB	04aH
	DB	069H
	DB	04aH
	DB	069H
	DB	04aH
	DB	069H
	DB	04aH
	DB	069H
	DB	04aH
	DB	069H
	DB	04aH
	DB	069H
	DB	04aH
	DB	069H
	DB	04aH
	DB	069H
	DB	04aH
	DB	069H
	DB	04aH
	DB	069H
	DB	04aH
	DB	069H
	DB	04aH
	DB	069H
	DB	04aH
	DB	069H
	DB	04aH
	DB	069H
	DB	04aH
	DB	069H
	DB	04aH
	DB	0caH
	DB	052H
	DB	0efH
	DB	07bH
	DB	0efH
	DB	07bH
	DB	08aH
	DB	052H
	DB	049H
	DB	04aH
	DB	049H
	DB	04aH
	DB	049H
	DB	04aH
	DB	049H
	DB	04aH
	DB	049H
	DB	04aH
	DB	049H
	DB	04aH
	DB	049H
	DB	04aH
	DB	049H
	DB	04aH
	DB	049H
	DB	04aH
	DB	049H
	DB	04aH
	DB	049H
	DB	04aH
	DB	049H
	DB	04aH
	DB	049H
	DB	04aH
	DB	049H
	DB	04aH
	DB	049H
	DB	04aH
	DB	049H
	DB	04aH
	DB	049H
	DB	04aH
	DB	049H
	DB	04aH
	DB	049H
	DB	04aH
	DB	049H
	DB	04aH
	DB	049H
	DB	04aH
	DB	049H
	DB	04aH
	DB	049H
	DB	04aH
	DB	049H
	DB	04aH
	DB	049H
	DB	04aH
	DB	049H
	DB	04aH
	DB	049H
	DB	04aH
	DB	049H
	DB	04aH
	DB	049H
	DB	04aH
	DB	049H
	DB	04aH
	DB	049H
	DB	04aH
	DB	049H
	DB	04aH
	DB	049H
	DB	04aH
	DB	049H
	DB	04aH
	DB	049H
	DB	04aH
	DB	049H
	DB	04aH
	DB	0cbH
	DB	05aH
	DB	0ebH
	DB	05aH
	DB	049H
	DB	04aH
	DB	049H
	DB	04aH
	DB	049H
	DB	04aH
	DB	049H
	DB	04aH
	DB	049H
	DB	04aH
	DB	049H
	DB	04aH
	DB	049H
	DB	04aH
	DB	049H
	DB	04aH
	DB	049H
	DB	04aH
	DB	049H
	DB	04aH
	DB	049H
	DB	04aH
	DB	049H
	DB	04aH
	DB	049H
	DB	04aH
	DB	049H
	DB	04aH
	DB	049H
	DB	04aH
	DB	049H
	DB	04aH
	DB	049H
	DB	04aH
	DB	049H
	DB	04aH
	DB	049H
	DB	04aH
	DB	049H
	DB	04aH
	DB	049H
	DB	04aH
	DB	049H
	DB	04aH
	DB	049H
	DB	04aH
	DB	049H
	DB	04aH
	DB	049H
	DB	04aH
	DB	049H
	DB	04aH
	DB	049H
	DB	04aH
	DB	049H
	DB	04aH
	DB	049H
	DB	04aH
	DB	049H
	DB	04aH
	DB	049H
	DB	04aH
	DB	049H
	DB	04aH
	DB	049H
	DB	04aH
	DB	049H
	DB	04aH
	DB	049H
	DB	04aH
	DB	049H
	DB	04aH
	DB	0cbH
	DB	05aH
	DB	0ebH
	DB	05aH
	DB	049H
	DB	04aH
	DB	049H
	DB	04aH
	DB	049H
	DB	04aH
	DB	049H
	DB	04aH
	DB	049H
	DB	04aH
	DB	049H
	DB	04aH
	DB	049H
	DB	04aH
	DB	049H
	DB	04aH
	DB	049H
	DB	04aH
	DB	049H
	DB	04aH
	DB	049H
	DB	04aH
	DB	049H
	DB	04aH
	DB	049H
	DB	04aH
	DB	049H
	DB	04aH
	DB	049H
	DB	04aH
	DB	049H
	DB	04aH
	DB	049H
	DB	04aH
	DB	049H
	DB	04aH
	DB	049H
	DB	04aH
	DB	049H
	DB	04aH
	DB	049H
	DB	04aH
	DB	049H
	DB	04aH
	DB	049H
	DB	04aH
	DB	049H
	DB	04aH
	DB	049H
	DB	04aH
	DB	049H
	DB	04aH
	DB	049H
	DB	04aH
	DB	049H
	DB	04aH
	DB	049H
	DB	04aH
	DB	049H
	DB	04aH
	DB	049H
	DB	04aH
	DB	049H
	DB	04aH
	DB	049H
	DB	04aH
	DB	049H
	DB	04aH
	DB	049H
	DB	04aH
	DB	049H
	DB	04aH
	DB	0cbH
	DB	05aH
	DB	0cbH
	DB	05aH
	DB	049H
	DB	04aH
	DB	049H
	DB	04aH
	DB	049H
	DB	04aH
	DB	049H
	DB	04aH
	DB	049H
	DB	04aH
	DB	049H
	DB	04aH
	DB	049H
	DB	04aH
	DB	049H
	DB	04aH
	DB	049H
	DB	04aH
	DB	049H
	DB	04aH
	DB	049H
	DB	04aH
	DB	049H
	DB	04aH
	DB	049H
	DB	04aH
	DB	049H
	DB	04aH
	DB	049H
	DB	04aH
	DB	049H
	DB	04aH
	DB	049H
	DB	04aH
	DB	049H
	DB	04aH
	DB	049H
	DB	04aH
	DB	049H
	DB	04aH
	DB	049H
	DB	04aH
	DB	049H
	DB	04aH
	DB	049H
	DB	04aH
	DB	049H
	DB	04aH
	DB	049H
	DB	04aH
	DB	049H
	DB	04aH
	DB	049H
	DB	04aH
	DB	049H
	DB	04aH
	DB	049H
	DB	04aH
	DB	049H
	DB	04aH
	DB	049H
	DB	04aH
	DB	049H
	DB	04aH
	DB	049H
	DB	04aH
	DB	049H
	DB	04aH
	DB	049H
	DB	04aH
	DB	049H
	DB	04aH
	DB	0cbH
	DB	05aH
	DB	0cbH
	DB	05aH
	DB	049H
	DB	04aH
	DB	049H
	DB	04aH
	DB	049H
	DB	04aH
	DB	049H
	DB	04aH
	DB	049H
	DB	04aH
	DB	049H
	DB	04aH
	DB	049H
	DB	04aH
	DB	049H
	DB	04aH
	DB	049H
	DB	04aH
	DB	049H
	DB	04aH
	DB	049H
	DB	04aH
	DB	049H
	DB	04aH
	DB	049H
	DB	04aH
	DB	049H
	DB	04aH
	DB	049H
	DB	04aH
	DB	049H
	DB	04aH
	DB	049H
	DB	04aH
	DB	049H
	DB	04aH
	DB	049H
	DB	04aH
	DB	049H
	DB	04aH
	DB	049H
	DB	04aH
	DB	049H
	DB	04aH
	DB	049H
	DB	04aH
	DB	049H
	DB	04aH
	DB	049H
	DB	04aH
	DB	049H
	DB	04aH
	DB	049H
	DB	04aH
	DB	049H
	DB	04aH
	DB	049H
	DB	04aH
	DB	049H
	DB	04aH
	DB	049H
	DB	04aH
	DB	049H
	DB	04aH
	DB	049H
	DB	04aH
	DB	049H
	DB	04aH
	DB	049H
	DB	04aH
	DB	049H
	DB	04aH
	DB	0cbH
	DB	05aH
	DB	0ebH
	DB	05aH
	DB	049H
	DB	04aH
	DB	049H
	DB	04aH
	DB	049H
	DB	04aH
	DB	049H
	DB	04aH
	DB	049H
	DB	04aH
	DB	049H
	DB	04aH
	DB	049H
	DB	04aH
	DB	049H
	DB	04aH
	DB	049H
	DB	04aH
	DB	049H
	DB	04aH
	DB	049H
	DB	04aH
	DB	049H
	DB	04aH
	DB	049H
	DB	04aH
	DB	049H
	DB	04aH
	DB	049H
	DB	04aH
	DB	049H
	DB	04aH
	DB	049H
	DB	04aH
	DB	049H
	DB	04aH
	DB	049H
	DB	04aH
	DB	049H
	DB	04aH
	DB	049H
	DB	04aH
	DB	049H
	DB	04aH
	DB	049H
	DB	04aH
	DB	049H
	DB	04aH
	DB	049H
	DB	04aH
	DB	049H
	DB	04aH
	DB	049H
	DB	04aH
	DB	049H
	DB	04aH
	DB	049H
	DB	04aH
	DB	049H
	DB	04aH
	DB	049H
	DB	04aH
	DB	049H
	DB	04aH
	DB	049H
	DB	04aH
	DB	049H
	DB	04aH
	DB	049H
	DB	04aH
	DB	049H
	DB	04aH
	DB	0cbH
	DB	05aH
	DB	0ebH
	DB	05aH
	DB	049H
	DB	04aH
	DB	049H
	DB	04aH
	DB	049H
	DB	04aH
	DB	049H
	DB	04aH
	DB	049H
	DB	04aH
	DB	049H
	DB	04aH
	DB	049H
	DB	04aH
	DB	049H
	DB	04aH
	DB	049H
	DB	04aH
	DB	049H
	DB	04aH
	DB	049H
	DB	04aH
