; Listing generated by Microsoft (R) Optimizing Compiler Version 19.28.29914.0 

	TITLE	D:\Oscilloscope\Project\Oscilloscope\Graphic\build\Debug\obj\rightButtonUnpress.obj
	.686P
	.XMM
	include listing.inc
	.model	flat

INCLUDELIB MSVCRTD
INCLUDELIB OLDNAMES

PUBLIC	?_rightButtonUnpress@@3QBEB			; _rightButtonUnpress
PUBLIC	?_rightButtonUnpress_alpha_channel@@3QBEB	; _rightButtonUnpress_alpha_channel
CONST	SEGMENT
?_rightButtonUnpress@@3QBEB DB 00H			; _rightButtonUnpress
	DB	00H
	DB	00H
	DB	00H
	DB	00H
	DB	00H
	DB	00H
	DB	00H
	DB	00H
	DB	00H
	DB	00H
	DB	00H
	DB	00H
	DB	00H
	DB	00H
	DB	00H
	DB	00H
	DB	00H
	DB	00H
	DB	00H
	DB	00H
	DB	00H
	DB	00H
	DB	00H
	DB	00H
	DB	00H
	DB	00H
	DB	00H
	DB	00H
	DB	00H
	DB	00H
	DB	00H
	DB	00H
	DB	00H
	DB	00H
	DB	00H
	DB	00H
	DB	00H
	DB	00H
	DB	00H
	DB	00H
	DB	00H
	DB	00H
	DB	00H
	DB	00H
	DB	00H
	DB	00H
	DB	00H
	DB	00H
	DB	00H
	DB	00H
	DB	00H
	DB	0cfH
	DB	07bH
	DB	0cfH
	DB	07bH
	DB	00H
	DB	00H
	DB	00H
	DB	00H
	DB	00H
	DB	00H
	DB	00H
	DB	00H
	DB	00H
	DB	00H
	DB	00H
	DB	00H
	DB	00H
	DB	00H
	DB	00H
	DB	00H
	DB	00H
	DB	00H
	DB	00H
	DB	00H
	DB	00H
	DB	00H
	DB	00H
	DB	00H
	DB	00H
	DB	00H
	DB	00H
	DB	00H
	DB	00H
	DB	00H
	DB	00H
	DB	00H
	DB	00H
	DB	00H
	DB	00H
	DB	00H
	DB	00H
	DB	00H
	DB	00H
	DB	00H
	DB	00H
	DB	00H
	DB	0cfH
	DB	07bH
	DB	0cfH
	DB	07bH
	DB	0cfH
	DB	07bH
	DB	0cfH
	DB	07bH
	DB	00H
	DB	00H
	DB	00H
	DB	00H
	DB	00H
	DB	00H
	DB	00H
	DB	00H
	DB	00H
	DB	00H
	DB	00H
	DB	00H
	DB	00H
	DB	00H
	DB	00H
	DB	00H
	DB	00H
	DB	00H
	DB	00H
	DB	00H
	DB	00H
	DB	00H
	DB	00H
	DB	00H
	DB	00H
	DB	00H
	DB	00H
	DB	00H
	DB	00H
	DB	00H
	DB	00H
	DB	00H
	DB	00H
	DB	00H
	DB	00H
	DB	00H
	DB	00H
	DB	00H
	DB	0cfH
	DB	07bH
	DB	0cfH
	DB	07bH
	DB	0cfH
	DB	07bH
	DB	0cfH
	DB	07bH
	DB	0cfH
	DB	07bH
	DB	00H
	DB	00H
	DB	00H
	DB	00H
	DB	00H
	DB	00H
	DB	00H
	DB	00H
	DB	00H
	DB	00H
	DB	00H
	DB	00H
	DB	00H
	DB	00H
	DB	00H
	DB	00H
	DB	00H
	DB	00H
	DB	00H
	DB	00H
	DB	00H
	DB	00H
	DB	00H
	DB	00H
	DB	00H
	DB	00H
	DB	00H
	DB	00H
	DB	00H
	DB	00H
	DB	00H
	DB	00H
	DB	00H
	DB	00H
	DB	00H
	DB	00H
	DB	0cfH
	DB	07bH
	DB	0cfH
	DB	07bH
	DB	0cfH
	DB	07bH
	DB	0cfH
	DB	07bH
	DB	0cfH
	DB	07bH
	DB	0cfH
	DB	07bH
	DB	00H
	DB	00H
	DB	00H
	DB	00H
	DB	00H
	DB	00H
	DB	00H
	DB	00H
	DB	00H
	DB	00H
	DB	00H
	DB	00H
	DB	00H
	DB	00H
	DB	00H
	DB	00H
	DB	00H
	DB	00H
	DB	00H
	DB	00H
	DB	00H
	DB	00H
	DB	00H
	DB	00H
	DB	00H
	DB	00H
	DB	00H
	DB	00H
	DB	00H
	DB	00H
	DB	00H
	DB	00H
	DB	00H
	DB	00H
	DB	0cfH
	DB	07bH
	DB	0cfH
	DB	07bH
	DB	0cfH
	DB	07bH
	DB	0cfH
	DB	07bH
	DB	0cfH
	DB	07bH
	DB	0cfH
	DB	07bH
	DB	0cfH
	DB	07bH
	DB	0cfH
	DB	07bH
	DB	00H
	DB	00H
	DB	00H
	DB	00H
	DB	00H
	DB	00H
	DB	00H
	DB	00H
	DB	00H
	DB	00H
	DB	00H
	DB	00H
	DB	00H
	DB	00H
	DB	00H
	DB	00H
	DB	00H
	DB	00H
	DB	00H
	DB	00H
	DB	00H
	DB	00H
	DB	00H
	DB	00H
	DB	00H
	DB	00H
	DB	00H
	DB	00H
	DB	00H
	DB	00H
	DB	0cfH
	DB	07bH
	DB	0cfH
	DB	07bH
	DB	0cfH
	DB	07bH
	DB	0cfH
	DB	07bH
	DB	0cfH
	DB	07bH
	DB	0cfH
	DB	07bH
	DB	0cfH
	DB	07bH
	DB	0cfH
	DB	07bH
	DB	0cfH
	DB	07bH
	DB	00H
	DB	00H
	DB	00H
	DB	00H
	DB	00H
	DB	00H
	DB	00H
	DB	00H
	DB	00H
	DB	00H
	DB	00H
	DB	00H
	DB	00H
	DB	00H
	DB	00H
	DB	00H
	DB	00H
	DB	00H
	DB	00H
	DB	00H
	DB	00H
	DB	00H
	DB	00H
	DB	00H
	DB	00H
	DB	00H
	DB	00H
	DB	00H
	DB	0cfH
	DB	07bH
	DB	0cfH
	DB	07bH
	DB	0cfH
	DB	07bH
	DB	0cfH
	DB	07bH
	DB	0cfH
	DB	07bH
	DB	0cfH
	DB	07bH
	DB	0cfH
	DB	07bH
	DB	0cfH
	DB	07bH
	DB	0cfH
	DB	07bH
	DB	0cfH
	DB	07bH
	DB	0cfH
	DB	07bH
	DB	00H
	DB	00H
	DB	00H
	DB	00H
	DB	00H
	DB	00H
	DB	00H
	DB	00H
	DB	00H
	DB	00H
	DB	00H
	DB	00H
	DB	00H
	DB	00H
	DB	00H
	DB	00H
	DB	00H
	DB	00H
	DB	00H
	DB	00H
	DB	00H
	DB	00H
	DB	00H
	DB	00H
	DB	0cfH
	DB	07bH
	DB	0cfH
	DB	07bH
	DB	0cfH
	DB	07bH
	DB	0cfH
	DB	07bH
	DB	0cfH
	DB	07bH
	DB	0cfH
	DB	07bH
	DB	0cfH
	DB	07bH
	DB	0cfH
	DB	07bH
	DB	0cfH
	DB	07bH
	DB	0cfH
	DB	07bH
	DB	0cfH
	DB	07bH
	DB	0cfH
	DB	07bH
	DB	00H
	DB	00H
	DB	00H
	DB	00H
	DB	00H
	DB	00H
	DB	00H
	DB	00H
	DB	00H
	DB	00H
	DB	00H
	DB	00H
	DB	00H
	DB	00H
	DB	00H
	DB	00H
	DB	00H
	DB	00H
	DB	00H
	DB	00H
	DB	00H
	DB	00H
	DB	0cfH
	DB	07bH
	DB	0cfH
	DB	07bH
	DB	0cfH
	DB	07bH
	DB	0cfH
	DB	07bH
	DB	0cfH
	DB	07bH
	DB	0cfH
	DB	07bH
	DB	0cfH
	DB	07bH
	DB	0cfH
	DB	07bH
	DB	0cfH
	DB	07bH
	DB	0cfH
	DB	07bH
	DB	0cfH
	DB	07bH
	DB	0cfH
	DB	07bH
	DB	0cfH
	DB	07bH
	DB	00H
	DB	00H
	DB	00H
	DB	00H
	DB	00H
	DB	00H
	DB	00H
	DB	00H
	DB	00H
	DB	00H
	DB	00H
	DB	00H
	DB	00H
	DB	00H
	DB	00H
	DB	00H
	DB	00H
	DB	00H
	DB	00H
	DB	00H
	DB	0cfH
	DB	07bH
	DB	0cfH
	DB	07bH
	DB	0cfH
	DB	07bH
	DB	0cfH
	DB	07bH
	DB	0cfH
	DB	07bH
	DB	0cfH
	DB	07bH
	DB	0cfH
	DB	07bH
	DB	0cfH
	DB	07bH
	DB	0cfH
	DB	07bH
	DB	0cfH
	DB	07bH
	DB	0cfH
	DB	07bH
	DB	0cfH
	DB	07bH
	DB	0cfH
	DB	07bH
	DB	0cfH
	DB	07bH
	DB	0cfH
	DB	07bH
	DB	00H
	DB	00H
	DB	00H
	DB	00H
	DB	00H
	DB	00H
	DB	00H
	DB	00H
	DB	00H
	DB	00H
	DB	00H
	DB	00H
	DB	00H
	DB	00H
	DB	00H
	DB	00H
	DB	0cfH
	DB	07bH
	DB	0cfH
	DB	07bH
	DB	0cfH
	DB	07bH
	DB	0cfH
	DB	07bH
	DB	0cfH
	DB	07bH
	DB	0cfH
	DB	07bH
	DB	0cfH
	DB	07bH
	DB	0cfH
	DB	07bH
	DB	0cfH
	DB	07bH
	DB	0cfH
	DB	07bH
	DB	0cfH
	DB	07bH
	DB	0cfH
	DB	07bH
	DB	0cfH
	DB	07bH
	DB	0cfH
	DB	07bH
	DB	0cfH
	DB	07bH
	DB	0cfH
	DB	07bH
	DB	00H
	DB	00H
	DB	00H
	DB	00H
	DB	00H
	DB	00H
	DB	00H
	DB	00H
	DB	00H
	DB	00H
	DB	00H
	DB	00H
	DB	00H
	DB	00H
	DB	0cfH
	DB	07bH
	DB	0cfH
	DB	07bH
	DB	0cfH
	DB	07bH
	DB	0cfH
	DB	07bH
	DB	0cfH
	DB	07bH
	DB	0cfH
	DB	07bH
	DB	0cfH
	DB	07bH
	DB	0cfH
	DB	07bH
	DB	0cfH
	DB	07bH
	DB	0cfH
	DB	07bH
	DB	0cfH
	DB	07bH
	DB	0cfH
	DB	07bH
	DB	0cfH
	DB	07bH
	DB	0cfH
	DB	07bH
	DB	0cfH
	DB	07bH
	DB	0cfH
	DB	07bH
	DB	0cfH
	DB	07bH
	DB	00H
	DB	00H
	DB	00H
	DB	00H
	DB	00H
	DB	00H
	DB	00H
	DB	00H
	DB	00H
	DB	00H
	DB	00H
	DB	00H
	DB	0cfH
	DB	07bH
	DB	0cfH
	DB	07bH
	DB	0cfH
	DB	07bH
	DB	0cfH
	DB	07bH
	DB	0cfH
	DB	07bH
	DB	0cfH
	DB	07bH
	DB	0cfH
	DB	07bH
	DB	0cfH
	DB	07bH
	DB	0cfH
	DB	07bH
	DB	0cfH
	DB	07bH
	DB	0cfH
	DB	07bH
	DB	0cfH
	DB	07bH
	DB	0cfH
	DB	07bH
	DB	0cfH
	DB	07bH
	DB	0cfH
	DB	07bH
	DB	0cfH
	DB	07bH
	DB	0cfH
	DB	07bH
	DB	0cfH
	DB	07bH
	DB	0cfH
	DB	07bH
	DB	00H
	DB	00H
	DB	00H
	DB	00H
	DB	00H
	DB	00H
	DB	00H
	DB	00H
	DB	0cfH
	DB	07bH
	DB	0cfH
	DB	07bH
	DB	0cfH
	DB	07bH
	DB	0cfH
	DB	07bH
	DB	0cfH
	DB	07bH
	DB	0cfH
	DB	07bH
	DB	0cfH
	DB	07bH
	DB	0cfH
	DB	07bH
	DB	0cfH
	DB	07bH
	DB	0cfH
	DB	07bH
	DB	0cfH
	DB	07bH
	DB	0cfH
	DB	07bH
	DB	0cfH
	DB	07bH
	DB	0cfH
	DB	07bH
	DB	0cfH
	DB	07bH
	DB	0cfH
	DB	07bH
	DB	0cfH
	DB	07bH
	DB	0cfH
	DB	07bH
	DB	0cfH
	DB	07bH
	DB	0cfH
	DB	07bH
	DB	00H
	DB	00H
	DB	00H
	DB	00H
	DB	00H
	DB	00H
	DB	0cfH
	DB	07bH
	DB	0cfH
	DB	07bH
	DB	0cfH
	DB	07bH
	DB	0cfH
	DB	07bH
	DB	0cfH
	DB	07bH
	DB	0cfH
	DB	07bH
	DB	0cfH
	DB	07bH
	DB	0cfH
	DB	07bH
	DB	0cfH
	DB	07bH
	DB	0cfH
	DB	07bH
	DB	0cfH
	DB	07bH
	DB	0cfH
	DB	07bH
	DB	0cfH
	DB	07bH
	DB	0cfH
	DB	07bH
	DB	0cfH
	DB	07bH
	DB	0cfH
	DB	07bH
	DB	0cfH
	DB	07bH
	DB	0cfH
	DB	07bH
	DB	0cfH
	DB	07bH
	DB	0cfH
	DB	07bH
	DB	00H
	DB	00H
	DB	00H
	DB	00H
	DB	00H
	DB	00H
	DB	0cfH
	DB	07bH
	DB	0cfH
	DB	07bH
	DB	0cfH
	DB	07bH
	DB	0cfH
	DB	07bH
	DB	0cfH
	DB	07bH
	DB	0cfH
	DB	07bH
	DB	0cfH
	DB	07bH
	DB	0cfH
	DB	07bH
	DB	0cfH
	DB	07bH
	DB	0cfH
	DB	07bH
	DB	0cfH
	DB	07bH
	DB	0cfH
	DB	07bH
	DB	0cfH
	DB	07bH
	DB	0cfH
	DB	07bH
	DB	0cfH
	DB	07bH
	DB	0cfH
	DB	07bH
	DB	0cfH
	DB	07bH
	DB	0cfH
	DB	07bH
	DB	0cfH
	DB	07bH
	DB	00H
	DB	00H
	DB	00H
	DB	00H
	DB	00H
	DB	00H
	DB	00H
	DB	00H
	DB	0cfH
	DB	07bH
	DB	0cfH
	DB	07bH
	DB	0cfH
	DB	07bH
	DB	0cfH
	DB	07bH
	DB	0cfH
	DB	07bH
	DB	0cfH
	DB	07bH
	DB	0cfH
	DB	07bH
	DB	0cfH
	DB	07bH
	DB	0cfH
	DB	07bH
	DB	0cfH
	DB	07bH
	DB	0cfH
	DB	07bH
	DB	0cfH
	DB	07bH
	DB	0cfH
	DB	07bH
	DB	0cfH
	DB	07bH
	DB	0cfH
	DB	07bH
	DB	0cfH
	DB	07bH
	DB	0cfH
	DB	07bH
	DB	00H
	DB	00H
	DB	00H
	DB	00H
	DB	00H
	DB	00H
	DB	00H
	DB	00H
	DB	00H
	DB	00H
	DB	00H
	DB	00H
	DB	0cfH
	DB	07bH
	DB	0cfH
	DB	07bH
	DB	0cfH
	DB	07bH
	DB	0cfH
	DB	07bH
	DB	0cfH
	DB	07bH
	DB	0cfH
	DB	07bH
	DB	0cfH
	DB	07bH
	DB	0cfH
	DB	07bH
	DB	0cfH
	DB	07bH
	DB	0cfH
	DB	07bH
	DB	0cfH
	DB	07bH
	DB	0cfH
	DB	07bH
	DB	0cfH
	DB	07bH
	DB	0cfH
	DB	07bH
	DB	0cfH
	DB	07bH
	DB	0cfH
	DB	07bH
	DB	00H
	DB	00H
	DB	00H
	DB	00H
	DB	00H
	DB	00H
	DB	00H
	DB	00H
	DB	00H
	DB	00H
	DB	00H
	DB	00H
	DB	00H
	DB	00H
	DB	0cfH
	DB	07bH
	DB	0cfH
	DB	07bH
	DB	0cfH
	DB	07bH
	DB	0cfH
	DB	07bH
	DB	0cfH
	DB	07bH
	DB	0cfH
	DB	07bH
	DB	0cfH
	DB	07bH
	DB	0cfH
	DB	07bH
	DB	0cfH
	DB	07bH
	DB	0cfH
	DB	07bH
	DB	0cfH
	DB	07bH
	DB	0cfH
	DB	07bH
	DB	0cfH
	DB	07bH
	DB	0cfH
	DB	07bH
	DB	0cfH
	DB	07bH
	DB	00H
	DB	00H
	DB	00H
	DB	00H
	DB	00H
	DB	00H
	DB	00H
	DB	00H
	DB	00H
	DB	00H
	DB	00H
	DB	00H
	DB	00H
	DB	00H
	DB	00H
	DB	00H
	DB	0cfH
	DB	07bH
	DB	0cfH
	DB	07bH
	DB	0cfH
	DB	07bH
	DB	0cfH
	DB	07bH
	DB	0cfH
	DB	07bH
	DB	0cfH
	DB	07bH
	DB	0cfH
	DB	07bH
	DB	0cfH
	DB	07bH
	DB	0cfH
	DB	07bH
	DB	0cfH
	DB	07bH
	DB	0cfH
	DB	07bH
	DB	0cfH
	DB	07bH
	DB	0cfH
	DB	07bH
	DB	00H
	DB	00H
	DB	00H
	DB	00H
	DB	00H
	DB	00H
	DB	00H
	DB	00H
	DB	00H
	DB	00H
	DB	00H
	DB	00H
	DB	00H
	DB	00H
	DB	00H
	DB	00H
	DB	00H
	DB	00H
	DB	00H
	DB	00H
	DB	0cfH
	DB	07bH
	DB	0cfH
	DB	07bH
	DB	0cfH
	DB	07bH
	DB	0cfH
	DB	07bH
	DB	0cfH
	DB	07bH
	DB	0cfH
	DB	07bH
	DB	0cfH
	DB	07bH
	DB	0cfH
	DB	07bH
	DB	0cfH
	DB	07bH
	DB	0cfH
	DB	07bH
	DB	0cfH
	DB	07bH
	DB	0cfH
	DB	07bH
	DB	00H
	DB	00H
	DB	00H
	DB	00H
	DB	00H
	DB	00H
	DB	00H
	DB	00H
	DB	00H
	DB	00H
	DB	00H
	DB	00H
	DB	00H
	DB	00H
	DB	00H
	DB	00H
	DB	00H
	DB	00H
	DB	00H
	DB	00H
	DB	00H
	DB	00H
	DB	0cfH
	DB	07bH
	DB	0cfH
	DB	07bH
	DB	0cfH
	DB	07bH
	DB	0cfH
	DB	07bH
	DB	0cfH
	DB	07bH
	DB	0cfH
	DB	07bH
	DB	0cfH
	DB	07bH
	DB	0cfH
	DB	07bH
	DB	0cfH
	DB	07bH
	DB	0cfH
	DB	07bH
	DB	0cfH
	DB	07bH
	DB	00H
	DB	00H
	DB	00H
	DB	00H
	DB	00H
	DB	00H
	DB	00H
	DB	00H
	DB	00H
	DB	00H
	DB	00H
	DB	00H
	DB	00H
	DB	00H
	DB	00H
	DB	00H
	DB	00H
	DB	00H
	DB	00H
	DB	00H
	DB	00H
	DB	00H
	DB	00H
	DB	00H
	DB	0cfH
	DB	07bH
	DB	0cfH
	DB	07bH
	DB	0cfH
	DB	07bH
	DB	0cfH
	DB	07bH
	DB	0cfH
	DB	07bH
	DB	0cfH
	DB	07bH
	DB	0cfH
	DB	07bH
	DB	0cfH
	DB	07bH
	DB	0cfH
	DB	07bH
	DB	00H
	DB	00H
	DB	00H
	DB	00H
	DB	00H
	DB	00H
	DB	00H
	DB	00H
	DB	00H
	DB	00H
	DB	00H
	DB	00H
	DB	00H
	DB	00H
	DB	00H
	DB	00H
	DB	00H
	DB	00H
	DB	00H
	DB	00H
	DB	00H
	DB	00H
	DB	00H
	DB	00H
	DB	00H
	DB	00H
	DB	00H
	DB	00H
	DB	0cfH
	DB	07bH
	DB	0cfH
	DB	07bH
	DB	0cfH
	DB	07bH
	DB	0cfH
	DB	07bH
	DB	0cfH
	DB	07bH
	DB	0cfH
	DB	07bH
	DB	0cfH
	DB	07bH
	DB	0cfH
	DB	07bH
	DB	00H
	DB	00H
	DB	00H
	DB	00H
	DB	00H
	DB	00H
	DB	00H
	DB	00H
	DB	00H
	DB	00H
	DB	00H
	DB	00H
	DB	00H
	DB	00H
	DB	00H
	DB	00H
	DB	00H
	DB	00H
	DB	00H
	DB	00H
	DB	00H
	DB	00H
	DB	00H
	DB	00H
	DB	00H
	DB	00H
	DB	00H
	DB	00H
	DB	00H
	DB	00H
	DB	0cfH
	DB	07bH
	DB	0cfH
	DB	07bH
	DB	0cfH
	DB	07bH
	DB	0cfH
	DB	07bH
	DB	0cfH
	DB	07bH
	DB	0cfH
	DB	07bH
	DB	00H
	DB	00H
	DB	00H
	DB	00H
	DB	00H
	DB	00H
	DB	00H
	DB	00H
	DB	00H
	DB	00H
	DB	00H
	DB	00H
	DB	00H
	DB	00H
	DB	00H
	DB	00H
	DB	00H
	DB	00H
	DB	00H
	DB	00H
	DB	00H
	DB	00H
	DB	00H
	DB	00H
	DB	00H
	DB	00H
	DB	00H
	DB	00H
	DB	00H
	DB	00H
	DB	00H
	DB	00H
	DB	00H
	DB	00H
	DB	0cfH
	DB	07bH
	DB	0cfH
	DB	07bH
	DB	0cfH
	DB	07bH
	DB	0cfH
	DB	07bH
	DB	0cfH
	DB	07bH
	DB	00H
	DB	00H
	DB	00H
	DB	00H
	DB	00H
	DB	00H
	DB	00H
	DB	00H
	DB	00H
	DB	00H
	DB	00H
	DB	00H
	DB	00H
	DB	00H
	DB	00H
	DB	00H
	DB	00H
	DB	00H
	DB	00H
	DB	00H
	DB	00H
	DB	00H
	DB	00H
	DB	00H
	DB	00H
	DB	00H
	DB	00H
	DB	00H
	DB	00H
	DB	00H
	DB	00H
	DB	00H
	DB	00H
	DB	00H
	DB	00H
	DB	00H
	DB	0cfH
	DB	07bH
	DB	0cfH
	DB	07bH
	DB	0cfH
	DB	07bH
	DB	0cfH
	DB	07bH
	DB	00H
	DB	00H
	DB	00H
	DB	00H
	DB	00H
	DB	00H
	DB	00H
	DB	00H
	DB	00H
	DB	00H
	DB	00H
	DB	00H
	DB	00H
	DB	00H
	DB	00H
	DB	00H
	DB	00H
	DB	00H
	DB	00H
	DB	00H
	DB	00H
	DB	00H
	DB	00H
	DB	00H
	DB	00H
	DB	00H
	DB	00H
	DB	00H
	DB	00H
	DB	00H
	DB	00H
	DB	00H
	DB	00H
	DB	00H
	DB	00H
	DB	00H
	DB	00H
	DB	00H
	DB	0cfH
	DB	07bH
	DB	0cfH
	DB	07bH
	DB	00H
	DB	00H
	DB	00H
	DB	00H
	DB	00H
	DB	00H
	DB	00H
	DB	00H
	DB	00H
	DB	00H
	DB	00H
	DB	00H
	DB	00H
	DB	00H
	DB	00H
	DB	00H
	DB	00H
	DB	00H
	DB	00H
	DB	00H
	DB	00H
	DB	00H
	DB	00H
	DB	00H
	DB	00H
	DB	00H
	DB	00H
	DB	00H
	DB	00H
	DB	00H
	DB	00H
	DB	00H
	DB	00H
	DB	00H
	DB	00H
	DB	00H
	DB	00H
	DB	00H
	DB	00H
	DB	00H
	DB	00H
	DB	00H
	DB	00H
	DB	00H
	DB	00H
	DB	00H
	DB	00H
	DB	00H
	DB	00H
	DB	00H
	DB	00H
	DB	00H
	DB	00H
	DB	00H
	DB	00H
	DB	00H
	DB	00H
	DB	00H
	DB	00H
	DB	00H
	DB	00H
	DB	00H
	DB	00H
	DB	00H
	DB	00H
	DB	00H
	DB	00H
	DB	00H
	DB	00H
	DB	00H
	DB	00H
	DB	00H
	DB	00H
	DB	00H
	DB	00H
	DB	00H
	DB	00H
	DB	00H
	DB	00H
	DB	00H
	DB	00H
	DB	00H
	ORG $+4
?_rightButtonUnpress_alpha_channel@@3QBEB DB 00H	; _rightButtonUnpress_alpha_channel
	DB	00H
	DB	00H
	DB	00H
	DB	00H
	DB	00H
	DB	00H
	DB	00H
	DB	00H
	DB	00H
	DB	00H
	DB	00H
	DB	00H
	DB	00H
	DB	00H
	DB	00H
	DB	00H
	DB	00H
	DB	00H
	DB	00H
	DB	00H
	DB	00H
	DB	00H
	DB	00H
	DB	00H
	DB	00H
	DB	0ffH
	DB	0ffH
	DB	00H
	DB	00H
	DB	00H
	DB	00H
	DB	00H
	DB	00H
	DB	00H
	DB	00H
	DB	00H
	DB	00H
	DB	00H
	DB	00H
	DB	00H
	DB	00H
	DB	00H
	DB	00H
	DB	00H
	DB	00H
	DB	00H
	DB	00H
	DB	00H
	DB	0ffH
	DB	0ffH
	DB	0ffH
	DB	0ffH
	DB	00H
	DB	00H
	DB	00H
	DB	00H
	DB	00H
	DB	00H
	DB	00H
	DB	00H
	DB	00H
	DB	00H
	DB	00H
	DB	00H
	DB	00H
	DB	00H
	DB	00H
	DB	00H
	DB	00H
	DB	00H
	DB	00H
	DB	0ffH
	DB	0ffH
	DB	0ffH
	DB	0ffH
	DB	0ffH
	DB	00H
	DB	00H
	DB	00H
	DB	00H
	DB	00H
	DB	00H
	DB	00H
	DB	00H
	DB	00H
	DB	00H
	DB	00H
	DB	00H
	DB	00H
	DB	00H
	DB	00H
	DB	00H
	DB	00H
	DB	00H
	DB	0ffH
	DB	0ffH
	DB	0ffH
	DB	0ffH
	DB	0ffH
	DB	0ffH
	DB	00H
	DB	00H
	DB	00H
	DB	00H
	DB	00H
	DB	00H
	DB	00H
	DB	00H
	DB	00H
	DB	00H
	DB	00H
	DB	00H
	DB	00H
	DB	00H
	DB	00H
	DB	00H
	DB	00H
	DB	0ffH
	DB	0ffH
	DB	0ffH
	DB	0ffH
	DB	0ffH
	DB	0ffH
	DB	0ffH
	DB	0ffH
	DB	00H
	DB	00H
	DB	00H
	DB	00H
	DB	00H
	DB	00H
	DB	00H
	DB	00H
	DB	00H
	DB	00H
	DB	00H
	DB	00H
	DB	00H
	DB	00H
	DB	00H
	DB	0ffH
	DB	0ffH
	DB	0ffH
	DB	0ffH
	DB	0ffH
	DB	0ffH
	DB	0ffH
	DB	0ffH
	DB	0ffH
	DB	00H
	DB	00H
	DB	00H
	DB	00H
	DB	00H
	DB	00H
	DB	00H
	DB	00H
	DB	00H
	DB	00H
	DB	00H
	DB	00H
	DB	00H
	DB	00H
	DB	0ffH
	DB	0ffH
	DB	0ffH
	DB	0ffH
	DB	0ffH
	DB	0ffH
	DB	0ffH
	DB	0ffH
	DB	0ffH
	DB	0ffH
	DB	0ffH
	DB	00H
	DB	00H
	DB	00H
	DB	00H
	DB	00H
	DB	00H
	DB	00H
	DB	00H
	DB	00H
	DB	00H
	DB	00H
	DB	00H
	DB	0ffH
	DB	0ffH
	DB	0ffH
	DB	0ffH
	DB	0ffH
	DB	0ffH
	DB	0ffH
	DB	0ffH
	DB	0ffH
	DB	0ffH
	DB	0ffH
	DB	0ffH
	DB	00H
	DB	00H
	DB	00H
	DB	00H
	DB	00H
	DB	00H
	DB	00H
	DB	00H
	DB	00H
	DB	00H
	DB	00H
	DB	0ffH
	DB	0ffH
	DB	0ffH
	DB	0ffH
	DB	0ffH
	DB	0ffH
	DB	0ffH
	DB	0ffH
	DB	0ffH
	DB	0ffH
	DB	0ffH
	DB	0ffH
	DB	0ffH
	DB	00H
	DB	00H
	DB	00H
	DB	00H
	DB	00H
	DB	00H
	DB	00H
	DB	00H
	DB	00H
	DB	00H
	DB	0ffH
	DB	0ffH
	DB	0ffH
	DB	0ffH
	DB	0ffH
	DB	0ffH
	DB	0ffH
	DB	0ffH
	DB	0ffH
	DB	0ffH
	DB	0ffH
	DB	0ffH
	DB	0ffH
	DB	0ffH
	DB	0ffH
	DB	00H
	DB	00H
	DB	00H
	DB	00H
	DB	00H
	DB	00H
	DB	00H
	DB	00H
	DB	0ffH
	DB	0ffH
	DB	0ffH
	DB	0ffH
	DB	0ffH
	DB	0ffH
	DB	0ffH
	DB	0ffH
	DB	0ffH
	DB	0ffH
	DB	0ffH
	DB	0ffH
	DB	0ffH
	DB	0ffH
	DB	0ffH
	DB	0ffH
	DB	00H
	DB	00H
	DB	00H
	DB	00H
	DB	00H
	DB	00H
	DB	00H
	DB	0ffH
	DB	0ffH
	DB	0ffH
	DB	0ffH
	DB	0ffH
	DB	0ffH
	DB	0ffH
	DB	0ffH
	DB	0ffH
	DB	0ffH
	DB	0ffH
	DB	0ffH
	DB	0ffH
	DB	0ffH
	DB	0ffH
	DB	0ffH
	DB	0ffH
	DB	00H
	DB	00H
	DB	00H
	DB	00H
	DB	00H
	DB	00H
	DB	0ffH
	DB	0ffH
	DB	0ffH
	DB	0ffH
	DB	0ffH
	DB	0ffH
	DB	0ffH
	DB	0ffH
	DB	0ffH
	DB	0ffH
	DB	0ffH
	DB	0ffH
	DB	0ffH
	DB	0ffH
	DB	0ffH
	DB	0ffH
	DB	0ffH
	DB	0ffH
	DB	0ffH
	DB	00H
	DB	00H
	DB	00H
	DB	00H
	DB	0ffH
	DB	0ffH
	DB	0ffH
	DB	0ffH
	DB	0ffH
	DB	0ffH
	DB	0ffH
	DB	0ffH
	DB	0ffH
	DB	0ffH
	DB	0ffH
	DB	0ffH
	DB	0ffH
	DB	0ffH
	DB	0ffH
	DB	0ffH
	DB	0ffH
	DB	0ffH
	DB	0ffH
	DB	0ffH
	DB	00H
	DB	00H
	DB	00H
	DB	0ffH
	DB	0ffH
	DB	0ffH
	DB	0ffH
	DB	0ffH
	DB	0ffH
	DB	0ffH
	DB	0ffH
	DB	0ffH
	DB	0ffH
	DB	0ffH
	DB	0ffH
	DB	0ffH
	DB	0ffH
	DB	0ffH
	DB	0ffH
	DB	0ffH
	DB	0ffH
	DB	0ffH
	DB	0ffH
	DB	00H
	DB	00H
	DB	00H
	DB	0ffH
	DB	0ffH
	DB	0ffH
	DB	0ffH
	DB	0ffH
	DB	0ffH
	DB	0ffH
	DB	0ffH
	DB	0ffH
	DB	0ffH
	DB	0ffH
	DB	0ffH
	DB	0ffH
	DB	0ffH
	DB	0ffH
	DB	0ffH
	DB	0ffH
	DB	0ffH
	DB	0ffH
	DB	00H
	DB	00H
	DB	00H
	DB	00H
	DB	0ffH
	DB	0ffH
	DB	0ffH
	DB	0ffH
	DB	0ffH
	DB	0ffH
	DB	0ffH
	DB	0ffH
	DB	0ffH
	DB	0ffH
	DB	0ffH
	DB	0ffH
	DB	0ffH
	DB	0ffH
	DB	0ffH
	DB	0ffH
	DB	0ffH
	DB	00H
	DB	00H
	DB	00H
	DB	00H
	DB	00H
	DB	00H
	DB	0ffH
	DB	0ffH
	DB	0ffH
	DB	0ffH
	DB	0ffH
	DB	0ffH
	DB	0ffH
	DB	0ffH
	DB	0ffH
	DB	0ffH
	DB	0ffH
	DB	0ffH
	DB	0ffH
	DB	0ffH
	DB	0ffH
	DB	0ffH
	DB	00H
	DB	00H
	DB	00H
	DB	00H
	DB	00H
	DB	00H
	DB	00H
	DB	0ffH
	DB	0ffH
	DB	0ffH
	DB	0ffH
	DB	0ffH
	DB	0ffH
	DB	0ffH
	DB	0ffH
	DB	0ffH
	DB	0ffH
	DB	0ffH
	DB	0ffH
	DB	0ffH
	DB	0ffH
	DB	0ffH
	DB	00H
	DB	00H
	DB	00H
	DB	00H
	DB	00H
	DB	00H
	DB	00H
	DB	00H
	DB	0ffH
	DB	0ffH
	DB	0ffH
	DB	0ffH
	DB	0ffH
	DB	0ffH
	DB	0ffH
	DB	0ffH
	DB	0ffH
	DB	0ffH
	DB	0ffH
	DB	0ffH
	DB	0ffH
	DB	00H
	DB	00H
	DB	00H
	DB	00H
	DB	00H
	DB	00H
	DB	00H
	DB	00H
	DB	00H
	DB	00H
	DB	0ffH
	DB	0ffH
	DB	0ffH
	DB	0ffH
	DB	0ffH
	DB	0ffH
	DB	0ffH
	DB	0ffH
	DB	0ffH
	DB	0ffH
	DB	0ffH
	DB	0ffH
	DB	00H
	DB	00H
	DB	00H
	DB	00H
	DB	00H
	DB	00H
	DB	00H
	DB	00H
	DB	00H
	DB	00H
	DB	00H
	DB	0ffH
	DB	0ffH
	DB	0ffH
	DB	0ffH
	DB	0ffH
	DB	0ffH
	DB	0ffH
	DB	0ffH
	DB	0ffH
	DB	0ffH
	DB	0ffH
	DB	00H
	DB	00H
	DB	00H
	DB	00H
	DB	00H
	DB	00H
	DB	00H
	DB	00H
	DB	00H
	DB	00H
	DB	00H
	DB	00H
	DB	0ffH
	DB	0ffH
	DB	0ffH
	DB	0ffH
	DB	0ffH
	DB	0ffH
	DB	0ffH
	DB	0ffH
	DB	0ffH
	DB	00H
	DB	00H
	DB	00H
	DB	00H
	DB	00H
	DB	00H
	DB	00H
	DB	00H
	DB	00H
	DB	00H
	DB	00H
	DB	00H
	DB	00H
	DB	00H
	DB	0ffH
	DB	0ffH
	DB	0ffH
	DB	0ffH
	DB	0ffH
	DB	0ffH
	DB	0ffH
	DB	0ffH
	DB	00H
	DB	00H
	DB	00H
	DB	00H
	DB	00H
	DB	00H
	DB	00H
	DB	00H
	DB	00H
	DB	00H
	DB	00H
	DB	00H
	DB	00H
	DB	00H
	DB	00H
	DB	0ffH
	DB	0ffH
	DB	0ffH
	DB	0ffH
	DB	0ffH
	DB	0ffH
	DB	00H
	DB	00H
	DB	00H
	DB	00H
	DB	00H
	DB	00H
	DB	00H
	DB	00H
	DB	00H
	DB	00H
	DB	00H
	DB	00H
	DB	00H
	DB	00H
	DB	00H
	DB	00H
	DB	00H
	DB	0ffH
	DB	0ffH
	DB	0ffH
	DB	0ffH
	DB	0ffH
	DB	00H
	DB	00H
	DB	00H
	DB	00H
	DB	00H
	DB	00H
	DB	00H
	DB	00H
	DB	00H
	DB	00H
	DB	00H
	DB	00H
	DB	00H
	DB	00H
	DB	00H
	DB	00H
	DB	00H
	DB	00H
	DB	0ffH
	DB	0ffH
	DB	0ffH
	DB	0ffH
	DB	00H
	DB	00H
	DB	00H
	DB	00H
	DB	00H
	DB	00H
	DB	00H
	DB	00H
	DB	00H
	DB	00H
	DB	00H
	DB	00H
	DB	00H
	DB	00H
	DB	00H
	DB	00H
	DB	00H
	DB	00H
	DB	00H
	DB	0ffH
	DB	0ffH
	DB	00H
	DB	00H
	DB	00H
	DB	00H
	DB	00H
	DB	00H
	DB	00H
	DB	00H
	DB	00H
	DB	00H
	DB	00H
	DB	00H
	DB	00H
	DB	00H
	DB	00H
	DB	00H
	DB	00H
	DB	00H
	DB	00H
	DB	00H
	DB	00H
	DB	00H
	DB	00H
	DB	00H
	DB	00H
	DB	00H
	DB	00H
	DB	00H
	DB	00H
	DB	00H
	DB	00H
	DB	00H
	DB	00H
	DB	00H
	DB	00H
	DB	00H
	DB	00H
	DB	00H
	DB	00H
	DB	00H
	DB	00H
CONST	ENDS
END
