; Listing generated by Microsoft (R) Optimizing Compiler Version 19.28.29914.0 

	TITLE	D:\Oscilloscope\Project\Oscilloscope\Graphic\build\Debug\obj\sideslidebutton_press.obj
	.686P
	.XMM
	include listing.inc
	.model	flat

INCLUDELIB MSVCRTD
INCLUDELIB OLDNAMES

PUBLIC	?_sideslidebutton_press@@3QBEB			; _sideslidebutton_press
CONST	SEGMENT
?_sideslidebutton_press@@3QBEB DB 0efH			; _sideslidebutton_press
	DB	07bH
	DB	0efH
	DB	07bH
	DB	0efH
	DB	07bH
	DB	0efH
	DB	07bH
	DB	0efH
	DB	07bH
	DB	0efH
	DB	07bH
	DB	0efH
	DB	07bH
	DB	0efH
	DB	07bH
	DB	0efH
	DB	07bH
	DB	0efH
	DB	07bH
	DB	0efH
	DB	07bH
	DB	0efH
	DB	07bH
	DB	0efH
	DB	07bH
	DB	0efH
	DB	07bH
	DB	0efH
	DB	07bH
	DB	0efH
	DB	07bH
	DB	0c3H
	DB	018H
	DB	0c4H
	DB	020H
	DB	0c3H
	DB	018H
	DB	0c3H
	DB	018H
	DB	0c4H
	DB	020H
	DB	0c3H
	DB	018H
	DB	0c3H
	DB	018H
	DB	0c4H
	DB	020H
	DB	0c3H
	DB	018H
	DB	0c3H
	DB	018H
	DB	0c4H
	DB	020H
	DB	0c3H
	DB	018H
	DB	0c3H
	DB	018H
	DB	0f0H
	DB	083H
	DB	0efH
	DB	07bH
	DB	0c3H
	DB	018H
	DB	0c4H
	DB	020H
	DB	0e3H
	DB	018H
	DB	0e3H
	DB	018H
	DB	0c4H
	DB	020H
	DB	0e3H
	DB	018H
	DB	0e3H
	DB	018H
	DB	0c4H
	DB	020H
	DB	0e3H
	DB	018H
	DB	0e3H
	DB	018H
	DB	0c4H
	DB	020H
	DB	0e3H
	DB	018H
	DB	0c3H
	DB	018H
	DB	0f0H
	DB	083H
	DB	0f0H
	DB	083H
	DB	0c3H
	DB	018H
	DB	0e3H
	DB	018H
	DB	0e3H
	DB	018H
	DB	0c3H
	DB	018H
	DB	0e3H
	DB	018H
	DB	0c3H
	DB	018H
	DB	0e3H
	DB	018H
	DB	0c3H
	DB	018H
	DB	0e3H
	DB	018H
	DB	0c3H
	DB	018H
	DB	0e3H
	DB	018H
	DB	0e3H
	DB	018H
	DB	0c3H
	DB	018H
	DB	0efH
	DB	07bH
	DB	0efH
	DB	07bH
	DB	0c3H
	DB	018H
	DB	0e4H
	DB	020H
	DB	0c3H
	DB	018H
	DB	0c4H
	DB	020H
	DB	0e3H
	DB	018H
	DB	0c4H
	DB	020H
	DB	0c4H
	DB	020H
	DB	0e3H
	DB	018H
	DB	0c4H
	DB	020H
	DB	0c3H
	DB	018H
	DB	0e4H
	DB	020H
	DB	0c3H
	DB	018H
	DB	0c3H
	DB	018H
	DB	0f0H
	DB	083H
	DB	0efH
	DB	07bH
	DB	0c3H
	DB	018H
	DB	0c3H
	DB	018H
	DB	0e3H
	DB	018H
	DB	0e3H
	DB	018H
	DB	0c3H
	DB	018H
	DB	0e3H
	DB	018H
	DB	0e3H
	DB	018H
	DB	0c3H
	DB	018H
	DB	0e3H
	DB	018H
	DB	0e4H
	DB	020H
	DB	0c3H
	DB	018H
	DB	0e3H
	DB	018H
	DB	0e4H
	DB	020H
	DB	0efH
	DB	07bH
	DB	0f0H
	DB	083H
	DB	0c3H
	DB	018H
	DB	0e3H
	DB	018H
	DB	0e4H
	DB	020H
	DB	0c3H
	DB	018H
	DB	0c3H
	DB	018H
	DB	0e4H
	DB	020H
	DB	0c3H
	DB	018H
	DB	0c3H
	DB	018H
	DB	0e3H
	DB	018H
	DB	0c3H
	DB	018H
	DB	0c3H
	DB	018H
	DB	0e3H
	DB	018H
	DB	0c3H
	DB	018H
	DB	0f0H
	DB	083H
	DB	0efH
	DB	07bH
	DB	0c3H
	DB	018H
	DB	0e4H
	DB	020H
	DB	014H
	DB	0a5H
	DB	051H
	DB	08cH
	DB	0e3H
	DB	018H
	DB	0c4H
	DB	020H
	DB	0e3H
	DB	018H
	DB	0e4H
	DB	020H
	DB	0c3H
	DB	018H
	DB	0e3H
	DB	018H
	DB	0e4H
	DB	020H
	DB	0c3H
	DB	018H
	DB	0c3H
	DB	018H
	DB	0efH
	DB	07bH
	DB	0efH
	DB	07bH
	DB	0c3H
	DB	018H
	DB	0c3H
	DB	018H
	DB	0fcH
	DB	0e6H
	DB	0bfH
	DB	0ffH
	DB	0e3H
	DB	018H
	DB	0c3H
	DB	018H
	DB	0e3H
	DB	018H
	DB	0c3H
	DB	018H
	DB	0c4H
	DB	020H
	DB	0e3H
	DB	018H
	DB	0e3H
	DB	018H
	DB	0c4H
	DB	020H
	DB	0e3H
	DB	018H
	DB	0f0H
	DB	083H
	DB	0f0H
	DB	083H
	DB	0c3H
	DB	018H
	DB	0e3H
	DB	018H
	DB	0c3H
	DB	018H
	DB	0ffH
	DB	0ffH
	DB	01cH
	DB	0e7H
	DB	0c3H
	DB	018H
	DB	0e3H
	DB	018H
	DB	0e3H
	DB	018H
	DB	0c3H
	DB	018H
	DB	0c3H
	DB	018H
	DB	0c3H
	DB	018H
	DB	0e3H
	DB	018H
	DB	0c3H
	DB	018H
	DB	0f0H
	DB	083H
	DB	0efH
	DB	07bH
	DB	0c3H
	DB	018H
	DB	0e4H
	DB	020H
	DB	0e3H
	DB	018H
	DB	014H
	DB	0a5H
	DB	0ffH
	DB	0ffH
	DB	0f8H
	DB	0c5H
	DB	0c4H
	DB	020H
	DB	0e3H
	DB	018H
	DB	0e4H
	DB	020H
	DB	0c4H
	DB	020H
	DB	0e3H
	DB	018H
	DB	0c3H
	DB	018H
	DB	0c3H
	DB	018H
	DB	0efH
	DB	07bH
	DB	0efH
	DB	07bH
	DB	0c3H
	DB	018H
	DB	0c3H
	DB	018H
	DB	0e4H
	DB	020H
	DB	0c3H
	DB	018H
	DB	079H
	DB	0ceH
	DB	0ffH
	DB	0ffH
	DB	092H
	DB	094H
	DB	0e3H
	DB	018H
	DB	0c3H
	DB	018H
	DB	0e3H
	DB	018H
	DB	0e4H
	DB	020H
	DB	0c3H
	DB	018H
	DB	0e4H
	DB	020H
	DB	0efH
	DB	07bH
	DB	0f0H
	DB	083H
	DB	0c3H
	DB	018H
	DB	0e3H
	DB	018H
	DB	0c3H
	DB	018H
	DB	0e3H
	DB	018H
	DB	0e3H
	DB	018H
	DB	05dH
	DB	0efH
	DB	0dfH
	DB	0ffH
	DB	0c3H
	DB	018H
	DB	0e3H
	DB	018H
	DB	0c3H
	DB	018H
	DB	0c3H
	DB	018H
	DB	0e3H
	DB	018H
	DB	0c3H
	DB	018H
	DB	0f0H
	DB	083H
	DB	0efH
	DB	07bH
	DB	0c3H
	DB	018H
	DB	0e4H
	DB	020H
	DB	0c3H
	DB	018H
	DB	0c4H
	DB	020H
	DB	0e3H
	DB	018H
	DB	0c4H
	DB	020H
	DB	0ffH
	DB	0ffH
	DB	03dH
	DB	0efH
	DB	0c4H
	DB	020H
	DB	0e3H
	DB	018H
	DB	0e3H
	DB	018H
	DB	0c4H
	DB	020H
	DB	0c3H
	DB	018H
	DB	0efH
	DB	07bH
	DB	0efH
	DB	07bH
	DB	0c3H
	DB	018H
	DB	0e3H
	DB	018H
	DB	0e4H
	DB	020H
	DB	0c3H
	DB	018H
	DB	0c3H
	DB	018H
	DB	0e3H
	DB	018H
	DB	0f4H
	DB	0a4H
	DB	0ffH
	DB	0ffH
	DB	018H
	DB	0c6H
	DB	0e3H
	DB	018H
	DB	0c4H
	DB	020H
	DB	0e3H
	DB	018H
	DB	0e3H
	DB	018H
	DB	0f0H
	DB	083H
	DB	0f0H
	DB	083H
	DB	0c3H
	DB	018H
	DB	0c3H
	DB	018H
	DB	0e3H
	DB	018H
	DB	0e3H
	DB	018H
	DB	0c3H
	DB	018H
	DB	0e3H
	DB	018H
	DB	0c3H
	DB	018H
	DB	039H
	DB	0ceH
	DB	0ffH
	DB	0ffH
	DB	0d3H
	DB	09cH
	DB	0c3H
	DB	018H
	DB	0c3H
	DB	018H
	DB	0e3H
	DB	018H
	DB	0f0H
	DB	083H
	DB	0efH
	DB	07bH
	DB	0c3H
	DB	018H
	DB	0e4H
	DB	020H
	DB	0c3H
	DB	018H
	DB	0c4H
	DB	020H
	DB	0e3H
	DB	018H
	DB	0e3H
	DB	018H
	DB	0c3H
	DB	018H
	DB	0e3H
	DB	018H
	DB	05dH
	DB	0efH
	DB	0dfH
	DB	0ffH
	DB	0e3H
	DB	018H
	DB	0c3H
	DB	018H
	DB	0c3H
	DB	018H
	DB	0efH
	DB	07bH
	DB	0efH
	DB	07bH
	DB	0c3H
	DB	018H
	DB	0e3H
	DB	018H
	DB	0e3H
	DB	018H
	DB	0c4H
	DB	020H
	DB	0e3H
	DB	018H
	DB	0c4H
	DB	020H
	DB	0c3H
	DB	018H
	DB	0e3H
	DB	018H
	DB	0c3H
	DB	018H
	DB	0dfH
	DB	0ffH
	DB	0fcH
	DB	0e6H
	DB	0e3H
	DB	018H
	DB	0c4H
	DB	020H
	DB	0efH
	DB	07bH
	DB	0f0H
	DB	083H
	DB	0c3H
	DB	018H
	DB	0c3H
	DB	018H
	DB	0e3H
	DB	018H
	DB	0c3H
	DB	018H
	DB	0e3H
	DB	018H
	DB	0c3H
	DB	018H
	DB	0e4H
	DB	020H
	DB	0e3H
	DB	018H
	DB	051H
	DB	08cH
	DB	0ffH
	DB	0ffH
	DB	09aH
	DB	0d6H
	DB	0c3H
	DB	018H
	DB	0e3H
	DB	018H
	DB	0f0H
	DB	083H
	DB	0efH
	DB	07bH
	DB	0c3H
	DB	018H
	DB	0e4H
	DB	020H
	DB	0c4H
	DB	020H
	DB	0e3H
	DB	018H
	DB	0c3H
	DB	018H
	DB	0e3H
	DB	018H
	DB	0c4H
	DB	020H
	DB	0c3H
	DB	018H
	DB	0bfH
	DB	0ffH
	DB	09eH
	DB	0f7H
	DB	0c3H
	DB	018H
	DB	0e3H
	DB	018H
	DB	0c3H
	DB	018H
	DB	0efH
	DB	07bH
	DB	0efH
	DB	07bH
	DB	0c3H
	DB	018H
	DB	0e3H
	DB	018H
	DB	0e3H
	DB	018H
	DB	0c4H
	DB	020H
	DB	0e3H
	DB	018H
	DB	0c3H
	DB	018H
	DB	0e3H
	DB	018H
	DB	0fcH
	DB	0e6H
	DB	0ffH
	DB	0ffH
	DB	0c3H
	DB	018H
	DB	0e3H
	DB	018H
	DB	0c4H
	DB	020H
	DB	0c3H
	DB	018H
	DB	0f0H
	DB	083H
	DB	0f0H
	DB	083H
	DB	0c3H
	DB	018H
	DB	0c3H
	DB	018H
	DB	0e3H
	DB	018H
	DB	0c3H
	DB	018H
	DB	0c4H
	DB	020H
	DB	0e3H
	DB	018H
	DB	0b7H
	DB	0bdH
	DB	0ffH
	DB	0ffH
	DB	055H
	DB	0adH
	DB	0e3H
	DB	018H
	DB	0c3H
	DB	018H
	DB	0e3H
	DB	018H
	DB	0e3H
	DB	018H
	DB	0f0H
	DB	083H
	DB	0efH
	DB	07bH
	DB	0c3H
	DB	018H
	DB	0e4H
	DB	020H
	DB	0e3H
	DB	018H
	DB	0c3H
	DB	018H
	DB	0e3H
	DB	018H
	DB	072H
	DB	094H
	DB	0ffH
	DB	0ffH
	DB	09aH
	DB	0d6H
	DB	0c3H
	DB	018H
	DB	0e3H
	DB	018H
	DB	0c4H
	DB	020H
	DB	0c3H
	DB	018H
	DB	0e3H
	DB	018H
	DB	0efH
	DB	07bH
	DB	0efH
	DB	07bH
	DB	0c3H
	DB	018H
	DB	0e4H
	DB	020H
	DB	0c3H
	DB	018H
	DB	0e3H
	DB	018H
	DB	0c3H
	DB	018H
	DB	0bfH
	DB	0ffH
	DB	07eH
	DB	0f7H
	DB	0e3H
	DB	018H
	DB	0e3H
	DB	018H
	DB	0c3H
	DB	018H
	DB	0e4H
	DB	020H
	DB	0c3H
	DB	018H
	DB	0c3H
	DB	018H
	DB	0f0H
	DB	083H
	DB	0efH
	DB	07bH
	DB	0c3H
	DB	018H
	DB	0c3H
	DB	018H
	DB	0e4H
	DB	020H
	DB	0c3H
	DB	018H
	DB	01cH
	DB	0e7H
	DB	0ffH
	DB	0ffH
	DB	0e3H
	DB	018H
	DB	0c3H
	DB	018H
	DB	0c3H
	DB	018H
	DB	0e3H
	DB	018H
	DB	0e3H
	DB	018H
	DB	0c3H
	DB	018H
	DB	0e3H
	DB	018H
	DB	0f0H
	DB	083H
	DB	0f0H
	DB	083H
	DB	0c3H
	DB	018H
	DB	0e3H
	DB	018H
	DB	0e3H
	DB	018H
	DB	0d8H
	DB	0c5H
	DB	0ffH
	DB	0ffH
	DB	034H
	DB	0a5H
	DB	0c3H
	DB	018H
	DB	0e4H
	DB	020H
	DB	0c3H
	DB	018H
	DB	0e4H
	DB	020H
	DB	0c3H
	DB	018H
	DB	0c3H
	DB	018H
	DB	0e4H
	DB	020H
	DB	0efH
	DB	07bH
	DB	0efH
	DB	07bH
	DB	0c3H
	DB	018H
	DB	0e4H
	DB	020H
	DB	092H
	DB	094H
	DB	0ffH
	DB	0ffH
	DB	07aH
	DB	0d6H
	DB	0c3H
	DB	018H
	DB	0e3H
	DB	018H
	DB	0e3H
	DB	018H
	DB	0c4H
	DB	020H
	DB	0e3H
	DB	018H
	DB	0c3H
	DB	018H
	DB	0e4H
	DB	020H
	DB	0c3H
	DB	018H
	DB	0efH
	DB	07bH
	DB	0efH
	DB	07bH
	DB	0c3H
	DB	018H
	DB	0c3H
	DB	018H
	DB	01cH
	DB	0e7H
	DB	05dH
	DB	0efH
	DB	0e3H
	DB	018H
	DB	0c3H
	DB	018H
	DB	0e3H
	DB	018H
	DB	0c3H
	DB	018H
	DB	0c3H
	DB	018H
	DB	0e3H
	DB	018H
	DB	0e3H
	DB	018H
	DB	0c3H
	DB	018H
	DB	0c3H
	DB	018H
	DB	0f0H
	DB	083H
	DB	0f0H
	DB	083H
	DB	0c3H
	DB	018H
	DB	0e3H
	DB	018H
	DB	0c3H
	DB	018H
	DB	0e3H
	DB	018H
	DB	0c3H
	DB	018H
	DB	0e4H
	DB	020H
	DB	0c4H
	DB	020H
	DB	0e3H
	DB	018H
	DB	0c4H
	DB	020H
	DB	0e3H
	DB	018H
	DB	0c4H
	DB	020H
	DB	0e3H
	DB	018H
	DB	0e3H
	DB	018H
	DB	0f0H
	DB	083H
	DB	0efH
	DB	07bH
	DB	0c3H
	DB	018H
	DB	0e4H
	DB	020H
	DB	0e3H
	DB	018H
	DB	0c3H
	DB	018H
	DB	0e4H
	DB	020H
	DB	0c3H
	DB	018H
	DB	0e3H
	DB	018H
	DB	0e3H
	DB	018H
	DB	0c3H
	DB	018H
	DB	0c4H
	DB	020H
	DB	0e3H
	DB	018H
	DB	0c3H
	DB	018H
	DB	0c3H
	DB	018H
	DB	0efH
	DB	07bH
	DB	0efH
	DB	07bH
	DB	0c3H
	DB	018H
	DB	0c4H
	DB	020H
	DB	0e3H
	DB	018H
	DB	0c3H
	DB	018H
	DB	0c3H
	DB	018H
	DB	0e3H
	DB	018H
	DB	0c3H
	DB	018H
	DB	0c3H
	DB	018H
	DB	0e3H
	DB	018H
	DB	0e3H
	DB	018H
	DB	0c3H
	DB	018H
	DB	0e4H
	DB	020H
	DB	0c3H
	DB	018H
	DB	0efH
	DB	07bH
	DB	0efH
	DB	07bH
	DB	0c3H
	DB	018H
	DB	0e3H
	DB	018H
	DB	0e4H
	DB	020H
	DB	0c3H
	DB	018H
	DB	0e3H
	DB	018H
	DB	0e4H
	DB	020H
	DB	0c4H
	DB	020H
	DB	0e3H
	DB	018H
	DB	0e4H
	DB	020H
	DB	0c3H
	DB	018H
	DB	0c3H
	DB	018H
	DB	0e4H
	DB	020H
	DB	0e3H
	DB	018H
	DB	0f0H
	DB	083H
	DB	0f0H
	DB	083H
	DB	0c3H
	DB	018H
	DB	0e3H
	DB	018H
	DB	0c3H
	DB	018H
	DB	0c4H
	DB	020H
	DB	0e3H
	DB	018H
	DB	0c3H
	DB	018H
	DB	0c3H
	DB	018H
	DB	0e3H
	DB	018H
	DB	0c3H
	DB	018H
	DB	0c4H
	DB	020H
	DB	0e3H
	DB	018H
	DB	0c3H
	DB	018H
	DB	0c3H
	DB	018H
	DB	0efH
	DB	07bH
	DB	0efH
	DB	07bH
	DB	0c3H
	DB	018H
	DB	0e4H
	DB	020H
	DB	0c3H
	DB	018H
	DB	0e3H
	DB	018H
	DB	0e3H
	DB	018H
	DB	0c3H
	DB	018H
	DB	0e4H
	DB	020H
	DB	0e3H
	DB	018H
	DB	0c3H
	DB	018H
	DB	0e3H
	DB	018H
	DB	0e3H
	DB	018H
	DB	0c3H
	DB	018H
	DB	0c4H
	DB	020H
	DB	0efH
	DB	07bH
	DB	0efH
	DB	07bH
	DB	0f0H
	DB	083H
	DB	0efH
	DB	07bH
	DB	0f0H
	DB	083H
	DB	0f0H
	DB	083H
	DB	0efH
	DB	07bH
	DB	0f0H
	DB	083H
	DB	0f0H
	DB	083H
	DB	0efH
	DB	07bH
	DB	0f0H
	DB	083H
	DB	0f0H
	DB	083H
	DB	0efH
	DB	07bH
	DB	0f0H
	DB	083H
	DB	0f0H
	DB	083H
	DB	0efH
	DB	07bH
CONST	ENDS
END
