; Listing generated by Microsoft (R) Optimizing Compiler Version 19.28.29914.0 

	TITLE	D:\Oscilloscope\Project\Oscilloscope\Graphic\build\Debug\obj\VChnControlButtonOff.obj
	.686P
	.XMM
	include listing.inc
	.model	flat

INCLUDELIB MSVCRTD
INCLUDELIB OLDNAMES

PUBLIC	?_VChnControlButtonOff@@3QBEB			; _VChnControlButtonOff
PUBLIC	?_VChnControlButtonOff_alpha_channel@@3QBEB	; _VChnControlButtonOff_alpha_channel
CONST	SEGMENT
?_VChnControlButtonOff@@3QBEB DB 0c7H			; _VChnControlButtonOff
	DB	039H
	DB	0c7H
	DB	039H
	DB	0e7H
	DB	031H
	DB	0c7H
	DB	039H
	DB	0c7H
	DB	039H
	DB	0e7H
	DB	031H
	DB	0c7H
	DB	039H
	DB	0c7H
	DB	039H
	DB	0e7H
	DB	031H
	DB	0c7H
	DB	039H
	DB	0c7H
	DB	039H
	DB	0e7H
	DB	031H
	DB	0c7H
	DB	039H
	DB	0c7H
	DB	039H
	DB	0e7H
	DB	031H
	DB	0c7H
	DB	039H
	DB	0c7H
	DB	039H
	DB	0e7H
	DB	031H
	DB	0c7H
	DB	039H
	DB	0c7H
	DB	039H
	DB	0e7H
	DB	031H
	DB	0c7H
	DB	039H
	DB	0c7H
	DB	039H
	DB	0e7H
	DB	031H
	DB	0c7H
	DB	039H
	DB	0c7H
	DB	039H
	DB	0e7H
	DB	031H
	DB	0c7H
	DB	039H
	DB	0c7H
	DB	039H
	DB	0e7H
	DB	031H
	DB	0c7H
	DB	039H
	DB	0c7H
	DB	039H
	DB	0e7H
	DB	031H
	DB	0c7H
	DB	039H
	DB	0c7H
	DB	039H
	DB	0e7H
	DB	031H
	DB	0c7H
	DB	039H
	DB	0c7H
	DB	039H
	DB	0e7H
	DB	031H
	DB	0c7H
	DB	039H
	DB	0c7H
	DB	039H
	DB	0e7H
	DB	031H
	DB	0c7H
	DB	031H
	DB	0e7H
	DB	039H
	DB	0e7H
	DB	039H
	DB	0c7H
	DB	031H
	DB	0e7H
	DB	039H
	DB	0c7H
	DB	039H
	DB	0e7H
	DB	031H
	DB	0c7H
	DB	039H
	DB	0e7H
	DB	039H
	DB	0c7H
	DB	031H
	DB	0e7H
	DB	039H
	DB	0e7H
	DB	039H
	DB	0c7H
	DB	031H
	DB	0e7H
	DB	039H
	DB	0c7H
	DB	039H
	DB	0e7H
	DB	031H
	DB	0c7H
	DB	039H
	DB	0e7H
	DB	039H
	DB	0c7H
	DB	031H
	DB	0e7H
	DB	039H
	DB	0e7H
	DB	039H
	DB	0c7H
	DB	031H
	DB	0e7H
	DB	039H
	DB	0c7H
	DB	039H
	DB	0e7H
	DB	031H
	DB	0c7H
	DB	039H
	DB	0e7H
	DB	039H
	DB	0c7H
	DB	031H
	DB	0e7H
	DB	039H
	DB	0e7H
	DB	039H
	DB	0c7H
	DB	031H
	DB	0e7H
	DB	039H
	DB	0c7H
	DB	039H
	DB	0e7H
	DB	031H
	DB	0c7H
	DB	039H
	DB	0e7H
	DB	039H
	DB	0c7H
	DB	031H
	DB	0e7H
	DB	039H
	DB	0e7H
	DB	039H
	DB	0c7H
	DB	031H
	DB	0c7H
	DB	039H
	DB	0e7H
	DB	039H
	DB	0c7H
	DB	039H
	DB	0e8H
	DB	031H
	DB	0c7H
	DB	039H
	DB	0e8H
	DB	031H
	DB	0c8H
	DB	039H
	DB	0e7H
	DB	039H
	DB	0c8H
	DB	031H
	DB	0e8H
	DB	039H
	DB	0c7H
	DB	039H
	DB	0e8H
	DB	031H
	DB	0c8H
	DB	039H
	DB	0c7H
	DB	039H
	DB	0e8H
	DB	031H
	DB	0c8H
	DB	039H
	DB	0e7H
	DB	039H
	DB	0c8H
	DB	031H
	DB	0e8H
	DB	039H
	DB	0c7H
	DB	039H
	DB	0e8H
	DB	031H
	DB	0c8H
	DB	039H
	DB	0c7H
	DB	039H
	DB	0e8H
	DB	031H
	DB	0c8H
	DB	039H
	DB	0e7H
	DB	039H
	DB	0c8H
	DB	031H
	DB	0e8H
	DB	039H
	DB	0c7H
	DB	039H
	DB	0e8H
	DB	031H
	DB	0c8H
	DB	039H
	DB	0c7H
	DB	039H
	DB	0e8H
	DB	031H
	DB	0c8H
	DB	039H
	DB	0e7H
	DB	039H
	DB	0c8H
	DB	031H
	DB	0e8H
	DB	039H
	DB	0c7H
	DB	039H
	DB	0e8H
	DB	031H
	DB	0c8H
	DB	039H
	DB	0e7H
	DB	039H
	DB	0e8H
	DB	031H
	DB	0c7H
	DB	039H
	DB	0c7H
	DB	039H
	DB	0e7H
	DB	039H
	DB	0c7H
	DB	039H
	DB	0c7H
	DB	031H
	DB	0e7H
	DB	039H
	DB	0e7H
	DB	031H
	DB	0c7H
	DB	039H
	DB	0e7H
	DB	031H
	DB	0c7H
	DB	039H
	DB	0e7H
	DB	031H
	DB	0e7H
	DB	039H
	DB	0c7H
	DB	031H
	DB	0e7H
	DB	039H
	DB	0c7H
	DB	031H
	DB	0e7H
	DB	039H
	DB	0c7H
	DB	031H
	DB	0e7H
	DB	039H
	DB	0c7H
	DB	031H
	DB	0e7H
	DB	039H
	DB	0e7H
	DB	031H
	DB	0c7H
	DB	039H
	DB	0e7H
	DB	031H
	DB	0c7H
	DB	039H
	DB	0e7H
	DB	031H
	DB	0c7H
	DB	039H
	DB	0e7H
	DB	031H
	DB	0c7H
	DB	039H
	DB	0e7H
	DB	031H
	DB	0e7H
	DB	039H
	DB	0c7H
	DB	031H
	DB	0e7H
	DB	039H
	DB	0c7H
	DB	031H
	DB	0e7H
	DB	039H
	DB	0c7H
	DB	031H
	DB	0e7H
	DB	039H
	DB	0c7H
	DB	031H
	DB	0e7H
	DB	039H
	DB	0c7H
	DB	031H
	DB	0c7H
	DB	039H
	DB	0c7H
	DB	031H
	DB	0e8H
	DB	039H
	DB	0e7H
	DB	031H
	DB	0c7H
	DB	031H
	DB	0c7H
	DB	031H
	DB	0e7H
	DB	039H
	DB	0c8H
	DB	039H
	DB	0c7H
	DB	031H
	DB	0e7H
	DB	039H
	DB	0c8H
	DB	039H
	DB	0c7H
	DB	039H
	DB	0e7H
	DB	031H
	DB	0c8H
	DB	039H
	DB	0c7H
	DB	039H
	DB	0e7H
	DB	031H
	DB	0e8H
	DB	039H
	DB	0c7H
	DB	039H
	DB	0e7H
	DB	031H
	DB	0e8H
	DB	039H
	DB	0c7H
	DB	039H
	DB	0c7H
	DB	031H
	DB	0e8H
	DB	039H
	DB	0c7H
	DB	039H
	DB	0e7H
	DB	031H
	DB	0c8H
	DB	039H
	DB	0e7H
	DB	039H
	DB	0c7H
	DB	031H
	DB	0e8H
	DB	039H
	DB	0c7H
	DB	039H
	DB	0e7H
	DB	031H
	DB	0c8H
	DB	039H
	DB	0c7H
	DB	039H
	DB	0e7H
	DB	031H
	DB	0e8H
	DB	039H
	DB	0c7H
	DB	039H
	DB	0e7H
	DB	031H
	DB	0e8H
	DB	039H
	DB	0c7H
	DB	039H
	DB	0e7H
	DB	031H
	DB	0e8H
	DB	039H
	DB	0e7H
	DB	039H
	DB	0c7H
	DB	031H
	DB	0e7H
	DB	039H
	DB	0c7H
	DB	039H
	DB	0e8H
	DB	039H
	DB	0e7H
	DB	039H
	DB	0c7H
	DB	039H
	DB	0e7H
	DB	031H
	DB	0e8H
	DB	039H
	DB	0c7H
	DB	039H
	DB	0e7H
	DB	031H
	DB	0e8H
	DB	039H
	DB	0c7H
	DB	031H
	DB	0e7H
	DB	039H
	DB	0e8H
	DB	039H
	DB	0c7H
	DB	031H
	DB	0c7H
	DB	039H
	DB	0e8H
	DB	039H
	DB	0c7H
	DB	031H
	DB	0c7H
	DB	039H
	DB	0e8H
	DB	039H
	DB	0c7H
	DB	031H
	DB	0e7H
	DB	039H
	DB	0c8H
	DB	039H
	DB	0c7H
	DB	031H
	DB	0e7H
	DB	039H
	DB	0e8H
	DB	039H
	DB	0c7H
	DB	031H
	DB	0e7H
	DB	039H
	DB	0c8H
	DB	039H
	DB	0e7H
	DB	031H
	DB	0e7H
	DB	039H
	DB	0c8H
	DB	039H
	DB	0c7H
	DB	031H
	DB	0e7H
	DB	039H
	DB	0c8H
	DB	039H
	DB	0c7H
	DB	031H
	DB	0e7H
	DB	039H
	DB	0c8H
	DB	039H
	DB	0c7H
	DB	031H
	DB	0c7H
	DB	039H
	DB	0e8H
	DB	039H
	DB	0c7H
	DB	031H
	DB	0e7H
	DB	039H
	DB	0e8H
	DB	039H
	DB	0c7H
	DB	031H
	DB	0c7H
	DB	031H
	DB	0c7H
	DB	039H
	DB	0c7H
	DB	039H
	DB	0e7H
	DB	031H
	DB	0c7H
	DB	039H
	DB	0e7H
	DB	039H
	DB	0c7H
	DB	031H
	DB	0e7H
	DB	039H
	DB	0c7H
	DB	039H
	DB	0c7H
	DB	031H
	DB	0e7H
	DB	039H
	DB	0e7H
	DB	031H
	DB	0c7H
	DB	039H
	DB	0e7H
	DB	031H
	DB	0c7H
	DB	039H
	DB	0e7H
	DB	039H
	DB	0c7H
	DB	031H
	DB	0e7H
	DB	039H
	DB	0e7H
	DB	039H
	DB	0c7H
	DB	031H
	DB	0e7H
	DB	039H
	DB	0c7H
	DB	039H
	DB	0c7H
	DB	031H
	DB	0e7H
	DB	039H
	DB	0c7H
	DB	039H
	DB	0c7H
	DB	031H
	DB	0e7H
	DB	039H
	DB	0c7H
	DB	039H
	DB	0e7H
	DB	031H
	DB	0e7H
	DB	039H
	DB	0c7H
	DB	039H
	DB	0e7H
	DB	031H
	DB	0c7H
	DB	039H
	DB	0e7H
	DB	039H
	DB	0e7H
	DB	031H
	DB	0c7H
	DB	039H
	DB	0e7H
	DB	039H
	DB	0c7H
	DB	031H
	DB	0c7H
	DB	039H
	DB	0e8H
	DB	031H
	DB	0c7H
	DB	039H
	DB	0e7H
	DB	039H
	DB	0e7H
	DB	031H
	DB	0c7H
	DB	039H
	DB	0e7H
	DB	039H
	DB	0c8H
	DB	031H
	DB	0e7H
	DB	039H
	DB	0c7H
	DB	031H
	DB	0c8H
	DB	039H
	DB	0e7H
	DB	039H
	DB	0e8H
	DB	031H
	DB	0c7H
	DB	039H
	DB	0c7H
	DB	039H
	DB	0e8H
	DB	039H
	DB	0c7H
	DB	031H
	DB	0e8H
	DB	039H
	DB	0e7H
	DB	039H
	DB	0c8H
	DB	031H
	DB	0e7H
	DB	031H
	DB	0c8H
	DB	039H
	DB	0c7H
	DB	031H
	DB	0e7H
	DB	039H
	DB	0e8H
	DB	031H
	DB	0c7H
	DB	039H
	DB	0e8H
	DB	031H
	DB	0e7H
	DB	039H
	DB	0c8H
	DB	031H
	DB	0e7H
	DB	031H
	DB	0c8H
	DB	039H
	DB	0c7H
	DB	031H
	DB	0e7H
	DB	039H
	DB	0c8H
	DB	031H
	DB	0e7H
	DB	039H
	DB	0c8H
	DB	031H
	DB	0e7H
	DB	039H
	DB	0c8H
	DB	031H
	DB	0e7H
	DB	031H
	DB	0e8H
	DB	039H
	DB	0c7H
	DB	031H
	DB	0e7H
	DB	039H
	DB	0e8H
	DB	039H
	DB	0c7H
	DB	031H
	DB	0c7H
	DB	039H
	DB	0e8H
	DB	039H
	DB	0c7H
	DB	031H
	DB	0e7H
	DB	039H
	DB	0c7H
	DB	039H
	DB	0e7H
	DB	039H
	DB	0c8H
	DB	031H
	DB	0e7H
	DB	039H
	DB	0e7H
	DB	031H
	DB	0c8H
	DB	039H
	DB	0e7H
	DB	031H
	DB	0e7H
	DB	031H
	DB	0c8H
	DB	039H
	DB	0c7H
	DB	031H
	DB	0e7H
	DB	039H
	DB	0c7H
	DB	039H
	DB	0c7H
	DB	031H
	DB	0e7H
	DB	039H
	DB	0c8H
	DB	039H
	DB	0e7H
	DB	039H
	DB	0c7H
	DB	031H
	DB	0e8H
	DB	039H
	DB	0c7H
	DB	039H
	DB	0c7H
	DB	031H
	DB	0e7H
	DB	039H
	DB	0c7H
	DB	039H
	DB	0e7H
	DB	039H
	DB	0e8H
	DB	039H
	DB	0c7H
	DB	031H
	DB	0e7H
	DB	039H
	DB	0c8H
	DB	039H
	DB	0e7H
	DB	031H
	DB	0c7H
	DB	039H
	DB	0e7H
	DB	039H
	DB	0c7H
	DB	031H
	DB	0c7H
	DB	039H
	DB	0c8H
	DB	039H
	DB	0e7H
	DB	039H
	DB	0c7H
	DB	031H
	DB	0c8H
	DB	039H
	DB	0e7H
	DB	039H
	DB	0c7H
	DB	031H
	DB	0e7H
	DB	039H
	DB	0c8H
	DB	031H
	DB	0c7H
	DB	039H
	DB	0e7H
	DB	039H
	DB	0c7H
	DB	031H
	DB	0e7H
	DB	039H
	DB	0c7H
	DB	039H
	DB	0c7H
	DB	031H
	DB	0e7H
	DB	039H
	DB	0c7H
	DB	039H
	DB	0c7H
	DB	039H
	DB	0e7H
	DB	039H
	DB	0e7H
	DB	031H
	DB	0c7H
	DB	039H
	DB	0e8H
	DB	039H
	DB	0e7H
	DB	031H
	DB	0c7H
	DB	039H
	DB	0e7H
	DB	039H
	DB	0e7H
	DB	031H
	DB	0c7H
	DB	039H
	DB	0e7H
	DB	039H
	DB	0c7H
	DB	031H
	DB	0e7H
	DB	039H
	DB	0e8H
	DB	039H
	DB	0c7H
	DB	031H
	DB	0c7H
	DB	031H
	DB	0e7H
	DB	039H
	DB	0c7H
	DB	039H
	DB	0e7H
	DB	031H
	DB	0e7H
	DB	039H
	DB	0c7H
	DB	039H
	DB	0e7H
	DB	031H
	DB	0c8H
	DB	039H
	DB	0e7H
	DB	039H
	DB	0e7H
	DB	031H
	DB	0c7H
	DB	039H
	DB	0e7H
	DB	039H
	DB	0e7H
	DB	031H
	DB	0c7H
	DB	039H
	DB	0e7H
	DB	031H
	DB	0c7H
	DB	039H
	DB	0e7H
	DB	039H
	DB	0e7H
	DB	031H
	DB	0c7H
	DB	039H
	DB	0e8H
	DB	031H
	DB	0c7H
	DB	039H
	DB	0e7H
	DB	039H
	DB	0c7H
	DB	031H
	DB	0e8H
	DB	039H
	DB	0e7H
	DB	039H
	DB	0c8H
	DB	031H
	DB	0e7H
	DB	039H
	DB	0c8H
	DB	039H
	DB	0c7H
	DB	031H
	DB	0e7H
	DB	039H
	DB	0c8H
	DB	039H
	DB	0c7H
	DB	031H
	DB	0e8H
	DB	031H
	DB	0c7H
	DB	039H
	DB	0c8H
	DB	031H
	DB	0e7H
	DB	031H
	DB	0c8H
	DB	039H
	DB	0e7H
	DB	039H
	DB	0c7H
	DB	031H
	DB	0c8H
	DB	039H
	DB	0e7H
	DB	039H
	DB	0e8H
	DB	031H
	DB	0c7H
	DB	039H
	DB	0c8H
	DB	039H
	DB	0e7H
	DB	031H
	DB	0c8H
	DB	039H
	DB	0c7H
	DB	039H
	DB	0e7H
	DB	031H
	DB	0c8H
	DB	039H
	DB	0e7H
	DB	039H
	DB	0c8H
	DB	031H
	DB	0e7H
	DB	039H
	DB	0c8H
	DB	039H
	DB	0e7H
	DB	031H
	DB	0c8H
	DB	039H
	DB	0e7H
	DB	039H
	DB	0c7H
	DB	031H
	DB	0e8H
	DB	039H
	DB	0c8H
	DB	039H
	DB	0c7H
	DB	031H
	DB	0e7H
	DB	039H
	DB	0e7H
	DB	039H
	DB	0c7H
	DB	031H
	DB	0c7H
	DB	039H
	DB	0c7H
	DB	031H
	DB	0e8H
	DB	039H
	DB	0c7H
	DB	039H
	DB	0e7H
	DB	031H
	DB	0e7H
	DB	031H
	DB	0c7H
	DB	039H
	DB	0e8H
	DB	031H
	DB	0e7H
	DB	039H
	DB	0c7H
	DB	039H
	DB	0e7H
	DB	031H
	DB	0e7H
	DB	039H
	DB	0c7H
	DB	039H
	DB	0e7H
	DB	039H
	DB	0c8H
	DB	039H
	DB	0e7H
	DB	031H
	DB	0c7H
	DB	039H
	DB	0e8H
	DB	031H
	DB	0c7H
	DB	039H
	DB	0e7H
	DB	039H
	DB	0c7H
	DB	031H
	DB	0e7H
	DB	039H
	DB	0e7H
	DB	039H
	DB	0c8H
	DB	031H
	DB	0e7H
	DB	039H
	DB	0c7H
	DB	031H
	DB	0e8H
	DB	039H
	DB	0c7H
	DB	039H
	DB	0c7H
	DB	031H
	DB	0e7H
	DB	031H
	DB	0c7H
	DB	039H
	DB	0e7H
	DB	039H
	DB	0c8H
	DB	031H
	DB	0c7H
	DB	039H
	DB	0e7H
	DB	039H
	DB	0e8H
	DB	031H
	DB	0c7H
	DB	039H
	DB	0e7H
	DB	031H
	DB	0c7H
	DB	039H
	DB	0e8H
	DB	039H
	DB	0c7H
	DB	031H
	DB	0c7H
	DB	039H
	DB	0c7H
	DB	039H
	DB	0e7H
	DB	031H
	DB	0c7H
	DB	039H
	DB	0c7H
	DB	039H
	DB	0e7H
	DB	031H
	DB	0c8H
	DB	039H
	DB	0c7H
	DB	039H
	DB	0e7H
	DB	031H
	DB	0c8H
	DB	039H
	DB	0c7H
	DB	039H
	DB	0e7H
	DB	031H
	DB	0c8H
	DB	039H
	DB	0e7H
	DB	039H
	DB	0c7H
	DB	031H
	DB	0e7H
	DB	039H
	DB	0c7H
	DB	039H
	DB	0e7H
	DB	031H
	DB	0e7H
	DB	039H
	DB	0c7H
	DB	031H
	DB	0c7H
	DB	039H
	DB	0e8H
	DB	039H
	DB	0c7H
	DB	031H
	DB	0e7H
	DB	039H
	DB	0c7H
	DB	039H
	DB	0e7H
	DB	031H
	DB	0e7H
	DB	039H
	DB	0c7H
	DB	031H
	DB	0e7H
	DB	039H
	DB	0e7H
	DB	039H
	DB	0c8H
	DB	031H
	DB	0e7H
	DB	039H
	DB	0e7H
	DB	031H
	DB	0c7H
	DB	039H
	DB	0e7H
	DB	031H
	DB	0c7H
	DB	039H
	DB	0c7H
	DB	039H
	DB	0e7H
	DB	031H
	DB	0c7H
	DB	039H
	DB	0e8H
	DB	039H
	DB	0c7H
	DB	031H
	DB	0e7H
	DB	039H
	DB	0e7H
	DB	039H
	DB	0e7H
	DB	039H
	DB	0e8H
	DB	031H
	DB	0c7H
	DB	039H
	DB	0e7H
	DB	039H
	DB	0e8H
	DB	031H
	DB	0c7H
	DB	039H
	DB	0e7H
	DB	039H
	DB	0e7H
	DB	031H
	DB	0c7H
	DB	039H
	DB	0e7H
	DB	031H
	DB	0c8H
	DB	039H
	DB	0e7H
	DB	039H
	DB	0c7H
	DB	031H
	DB	0e8H
	DB	031H
	DB	0c7H
	DB	039H
	DB	0c8H
	DB	039H
	DB	0e7H
	DB	031H
	DB	0c7H
	DB	039H
	DB	0e8H
	DB	039H
	DB	0e7H
	DB	031H
	DB	0c7H
	DB	039H
	DB	0e8H
	DB	031H
	DB	0c7H
	DB	039H
	DB	0c7H
	DB	039H
	DB	0e8H
	DB	031H
	DB	0c7H
	DB	039H
	DB	0c8H
	DB	039H
	DB	0e7H
	DB	031H
	DB	0c7H
	DB	039H
	DB	0c8H
	DB	039H
	DB	0e7H
	DB	031H
	DB	0c7H
	DB	039H
	DB	0e8H
	DB	039H
	DB	0e7H
	DB	031H
	DB	0c8H
	DB	039H
	DB	0c7H
	DB	031H
	DB	0c7H
	DB	031H
	DB	0c7H
	DB	031H
	DB	0c7H
	DB	031H
	DB	0a7H
	DB	031H
	DB	086H
	DB	029H
	DB	066H
	DB	029H
	DB	0c7H
	DB	039H
	DB	0c7H
	DB	031H
	DB	0e8H
	DB	039H
	DB	0c7H
	DB	031H
	DB	0c7H
	DB	039H
	DB	0e7H
	DB	039H
	DB	0c8H
	DB	031H
	DB	0c7H
	DB	039H
	DB	0e7H
	DB	039H
	DB	0e8H
	DB	039H
	DB	028H
	DB	042H
	DB	08H
	DB	042H
	DB	0e8H
	DB	039H
	DB	0e7H
	DB	039H
	DB	0e7H
	DB	039H
	DB	0c7H
	DB	031H
	DB	0e8H
	DB	039H
	DB	0c7H
	DB	039H
	DB	0c7H
	DB	031H
	DB	0e7H
	DB	039H
	DB	0c7H
	DB	039H
	DB	0e8H
	DB	031H
	DB	0e7H
	DB	039H
	DB	0c7H
	DB	031H
	DB	0e8H
	DB	039H
	DB	0e7H
	DB	039H
	DB	0c7H
	DB	031H
	DB	0e8H
	DB	039H
	DB	0e7H
	DB	039H
	DB	0c7H
	DB	031H
	DB	0c7H
	DB	031H
	DB	0a7H
	DB	031H
	DB	086H
	DB	029H
	DB	066H
	DB	029H
	DB	065H
	DB	029H
	DB	045H
	DB	021H
	DB	025H
	DB	021H
	DB	04H
	DB	021H
	DB	04H
	DB	021H
	DB	04H
	DB	019H
	DB	0e4H
	DB	018H
	DB	0e4H
	DB	018H
	DB	0c7H
	DB	039H
	DB	0e7H
	DB	039H
	DB	0e7H
	DB	031H
	DB	0c8H
	DB	039H
	DB	0e7H
	DB	039H
	DB	0e7H
	DB	031H
	DB	0c8H
	DB	039H
	DB	0e8H
	DB	039H
	DB	08aH
	DB	052H
	DB	0ecH
	DB	05aH
	DB	0ecH
	DB	05aH
	DB	0ecH
	DB	062H
	DB	0ecH
	DB	05aH
	DB	0abH
	DB	052H
	DB	08H
	DB	042H
	DB	0e7H
	DB	031H
	DB	0e7H
	DB	039H
	DB	0c8H
	DB	039H
	DB	029H
	DB	042H
	DB	0ecH
	DB	05aH
	DB	0ecH
	DB	062H
	DB	0ecH
	DB	062H
	DB	0ecH
	DB	05aH
	DB	0ecH
	DB	062H
	DB	0ecH
	DB	062H
	DB	0ecH
	DB	05aH
	DB	08H
	DB	042H
	DB	045H
	DB	021H
	DB	029H
	DB	042H
	DB	0ecH
	DB	062H
	DB	0ecH
	DB	062H
	DB	0ecH
	DB	062H
	DB	0ecH
	DB	062H
	DB	0ecH
	DB	062H
	DB	0ecH
	DB	062H
	DB	0ecH
	DB	062H
	DB	045H
	DB	029H
	DB	04H
	DB	019H
	DB	0e4H
	DB	018H
	DB	04H
	DB	019H
	DB	04H
	DB	019H
	DB	0e4H
	DB	018H
	DB	0c7H
	DB	031H
	DB	0e7H
	DB	039H
	DB	0c7H
	DB	039H
	DB	0c7H
	DB	031H
	DB	0e7H
	DB	039H
	DB	0c7H
	DB	031H
	DB	0e8H
	DB	039H
	DB	0cbH
	DB	05aH
	DB	0ebH
	DB	05aH
	DB	049H
	DB	042H
	DB	0e7H
	DB	039H
	DB	0e7H
	DB	039H
	DB	028H
	DB	042H
	DB	0abH
	DB	052H
	DB	0ecH
	DB	062H
	DB	08H
	DB	03aH
	DB	0a7H
	DB	031H
	DB	086H
	DB	029H
	DB	0e7H
	DB	039H
	DB	0ecH
	DB	062H
	DB	0e7H
	DB	039H
	DB	086H
	DB	031H
	DB	086H
	DB	029H
	DB	086H
	DB	029H
	DB	065H
	DB	029H
	DB	066H
	DB	029H
	DB	024H
	DB	021H
	DB	04H
	DB	019H
	DB	08H
	DB	042H
	DB	0ebH
	DB	05aH
	DB	065H
	DB	029H
	DB	066H
	DB	029H
	DB	065H
	DB	029H
	DB	085H
	DB	029H
	DB	066H
	DB	029H
	DB	065H
	DB	029H
	DB	04H
	DB	021H
	DB	04H
	DB	019H
	DB	0e4H
	DB	018H
	DB	0e3H
	DB	018H
	DB	04H
	DB	021H
	DB	04H
	DB	019H
	DB	0e7H
	DB	039H
	DB	0c8H
	DB	031H
	DB	0e7H
	DB	039H
	DB	0e8H
	DB	039H
	DB	0c7H
	DB	031H
	DB	0e7H
	DB	039H
	DB	06aH
	DB	04aH
	DB	0ebH
	DB	05aH
	DB	0e7H
	DB	039H
	DB	086H
	DB	031H
	DB	066H
	DB	029H
	DB	065H
	DB	029H
	DB	045H
	DB	021H
	DB	045H
	DB	021H
	DB	08aH
	DB	052H
	DB	0abH
	DB	05aH
	DB	04H
	DB	019H
	DB	04H
	DB	019H
	DB	086H
	DB	031H
	DB	0ecH
	DB	062H
	DB	065H
	DB	029H
	DB	04H
	DB	019H
	DB	04H
	DB	019H
	DB	0e3H
	DB	018H
	DB	04H
	DB	019H
	DB	04H
	DB	019H
	DB	0e4H
	DB	018H
	DB	04H
	DB	019H
	DB	08H
	DB	042H
	DB	0ebH
	DB	05aH
	DB	04H
	DB	019H
	DB	04H
	DB	019H
	DB	04H
	DB	019H
	DB	04H
	DB	019H
	DB	04H
	DB	019H
	DB	04H
	DB	019H
	DB	04H
	DB	019H
	DB	0e4H
	DB	018H
	DB	03H
	DB	019H
	DB	0e4H
	DB	020H
	DB	0e4H
	DB	018H
	DB	03H
	DB	019H
	DB	0a7H
	DB	031H
	DB	0a7H
	DB	031H
	DB	086H
	DB	029H
	DB	066H
	DB	029H
	DB	045H
	DB	021H
	DB	045H
	DB	021H
	DB	0ebH
	DB	062H
	DB	029H
	DB	042H
	DB	04H
	DB	019H
	DB	0e4H
	DB	018H
	DB	04H
	DB	019H
	DB	0e4H
	DB	018H
	DB	0e4H
	DB	018H
	DB	04H
	DB	019H
	DB	086H
	DB	031H
	DB	0ebH
	DB	062H
	DB	0a6H
	DB	031H
	DB	0e4H
	DB	018H
	DB	086H
	DB	031H
	DB	0ecH
	DB	062H
	DB	065H
	DB	029H
	DB	04H
	DB	019H
	DB	0e4H
	DB	018H
	DB	0e4H
	DB	020H
	DB	04H
	DB	019H
	DB	0e4H
	DB	020H
	DB	04H
	DB	019H
	DB	0e4H
	DB	018H
	DB	08H
	DB	042H
	DB	0ebH
	DB	062H
	DB	0e4H
	DB	018H
	DB	0e4H
	DB	018H
	DB	0e4H
	DB	020H
	DB	0e4H
	DB	018H
	DB	0e3H
	DB	018H
	DB	04H
	DB	019H
	DB	0e4H
	DB	020H
	DB	04H
	DB	019H
	DB	04H
	DB	019H
	DB	0e4H
	DB	018H
	DB	04H
	DB	019H
	DB	0e4H
	DB	018H
	DB	04H
	DB	019H
	DB	0e4H
	DB	018H
	DB	0e4H
	DB	018H
	DB	04H
	DB	019H
	DB	0e4H
	DB	018H
	DB	066H
	DB	029H
	DB	0ecH
	DB	062H
	DB	0a7H
	DB	031H
	DB	04H
	DB	019H
	DB	0e4H
	DB	018H
	DB	04H
	DB	021H
	DB	04H
	DB	019H
	DB	0e4H
	DB	018H
	DB	0e3H
	DB	018H
	DB	04H
	DB	021H
	DB	0ebH
	DB	05aH
	DB	028H
	DB	042H
	DB	04H
	DB	019H
	DB	086H
	DB	031H
	DB	0ebH
	DB	05aH
	DB	065H
	DB	029H
	DB	0e4H
	DB	018H
	DB	04H
	DB	019H
	DB	03H
	DB	019H
	DB	0e4H
	DB	018H
	DB	03H
	DB	021H
	DB	0e3H
	DB	018H
	DB	04H
	DB	019H
	DB	08H
	DB	042H
	DB	0ebH
	DB	062H
	DB	04H
	DB	019H
	DB	0e4H
	DB	018H
	DB	03H
	DB	019H
	DB	04H
	DB	021H
	DB	0e4H
	DB	018H
	DB	0e3H
	DB	018H
	DB	0e4H
	DB	020H
	DB	03H
	DB	019H
	DB	0e4H
	DB	018H
	DB	03H
	DB	021H
	DB	04H
	DB	019H
	DB	0e4H
	DB	018H
	DB	04H
	DB	019H
	DB	0e3H
	DB	018H
	DB	04H
	DB	021H
	DB	03H
	DB	019H
	DB	0e4H
	DB	018H
	DB	0a6H
	DB	031H
	DB	0ebH
	DB	062H
	DB	066H
	DB	029H
	DB	04H
	DB	019H
	DB	0e3H
	DB	020H
	DB	0e4H
	DB	018H
	DB	04H
	DB	019H
	DB	03H
	DB	021H
	DB	0e4H
	DB	018H
	DB	04H
	DB	019H
	DB	0cbH
	DB	05aH
	DB	049H
	DB	04aH
	DB	0e4H
	DB	018H
	DB	086H
	DB	031H
	DB	0ecH
	DB	062H
	DB	0ecH
	DB	062H
	DB	0ebH
	DB	062H
	DB	0ecH
	DB	062H
	DB	0ebH
	DB	062H
	DB	0ecH
	DB	062H
	DB	028H
	DB	042H
	DB	04H
	DB	019H
	DB	0e4H
	DB	018H
	DB	08H
	DB	042H
	DB	0ecH
	DB	062H
	DB	0ecH
	DB	062H
	DB	0ebH
	DB	062H
	DB	0ebH
	DB	062H
	DB	0ecH
	DB	062H
	DB	0ecH
	DB	062H
	DB	0a6H
	DB	031H
	DB	04H
	DB	019H
	DB	0e4H
	DB	018H
	DB	0e3H
	DB	020H
	DB	04H
	DB	019H
	DB	0e4H
	DB	018H
	DB	0e3H
	DB	020H
	DB	0e4H
	DB	018H
	DB	04H
	DB	019H
	DB	0e4H
	DB	018H
	DB	0e4H
	DB	020H
	DB	04H
	DB	019H
	DB	086H
	DB	031H
	DB	0ebH
	DB	062H
	DB	086H
	DB	029H
	DB	04H
	DB	019H
	DB	0e3H
	DB	020H
	DB	0e4H
	DB	018H
	DB	04H
	DB	019H
	DB	0e4H
	DB	018H
	DB	04H
	DB	021H
	DB	04H
	DB	021H
	DB	0cbH
	DB	05aH
	DB	049H
	DB	04aH
	DB	04H
	DB	019H
	DB	086H
	DB	031H
	DB	0cH
	DB	063H
	DB	0c7H
	DB	031H
	DB	066H
	DB	029H
	DB	065H
	DB	029H
	DB	066H
	DB	029H
	DB	066H
	DB	029H
	DB	045H
	DB	029H
	DB	04H
	DB	019H
	DB	0e4H
	DB	018H
	DB	08H
	DB	042H
	DB	0ebH
	DB	05aH
	DB	066H
	DB	029H
	DB	066H
	DB	029H
	DB	085H
	DB	029H
	DB	066H
	DB	029H
	DB	065H
	DB	029H
	DB	024H
	DB	021H
	DB	04H
	DB	019H
	DB	04H
	DB	019H
	DB	0e4H
	DB	018H
	DB	04H
	DB	019H
	DB	04H
	DB	019H
	DB	0e4H
	DB	018H
	DB	0e4H
	DB	018H
	DB	04H
	DB	019H
	DB	0e3H
	DB	018H
	DB	04H
	DB	019H
	DB	04H
	DB	019H
	DB	025H
	DB	029H
	DB	0ebH
	DB	062H
	DB	0c7H
	DB	039H
	DB	04H
	DB	019H
	DB	04H
	DB	019H
	DB	0e3H
	DB	018H
	DB	04H
	DB	019H
	DB	0e4H
	DB	018H
	DB	0e3H
	DB	018H
	DB	025H
	DB	021H
	DB	0ecH
	DB	062H
	DB	0e7H
	DB	039H
	DB	04H
	DB	019H
	DB	086H
	DB	031H
	DB	0ebH
	DB	062H
	DB	065H
	DB	029H
	DB	04H
	DB	019H
	DB	04H
	DB	019H
	DB	04H
	DB	019H
	DB	04H
	DB	019H
	DB	0e4H
	DB	018H
	DB	03H
	DB	021H
	DB	04H
	DB	019H
	DB	08H
	DB	042H
	DB	0ebH
	DB	062H
	DB	04H
	DB	019H
	DB	04H
	DB	019H
	DB	04H
	DB	019H
	DB	04H
	DB	019H
	DB	04H
	DB	019H
	DB	0e4H
	DB	018H
	DB	04H
	DB	021H
	DB	0e3H
	DB	018H
	DB	0e4H
	DB	020H
	DB	04H
	DB	019H
	DB	0e3H
	DB	018H
	DB	04H
	DB	019H
	DB	04H
	DB	019H
	DB	0e3H
	DB	020H
	DB	04H
	DB	021H
	DB	0e4H
	DB	018H
	DB	03H
	DB	019H
	DB	04H
	DB	019H
	DB	08aH
	DB	052H
	DB	08aH
	DB	052H
	DB	0e4H
	DB	020H
	DB	04H
	DB	019H
	DB	04H
	DB	021H
	DB	0e3H
	DB	020H
	DB	04H
	DB	019H
	DB	04H
	DB	019H
	DB	0e7H
	DB	041H
	DB	0ecH
	DB	062H
	DB	045H
	DB	021H
	DB	0e4H
	DB	018H
	DB	086H
	DB	031H
	DB	0ecH
	DB	05aH
	DB	065H
	DB	029H
	DB	0e4H
	DB	018H
	DB	04H
	DB	019H
	DB	0e3H
	DB	020H
	DB	0e4H
	DB	018H
	DB	04H
	DB	019H
	DB	0e4H
	DB	018H
	DB	04H
	DB	019H
	DB	08H
	DB	042H
	DB	0ebH
	DB	062H
	DB	0e4H
	DB	018H
	DB	0e4H
	DB	018H
	DB	0e3H
	DB	020H
	DB	04H
	DB	019H
	DB	0e4H
	DB	018H
	DB	0e4H
	DB	020H
	DB	04H
	DB	019H
	DB	03H
	DB	019H
	DB	0e4H
	DB	018H
	DB	04H
	DB	021H
	DB	0e3H
	DB	018H
	DB	0e4H
	DB	020H
	DB	0e4H
	DB	018H
	DB	04H
	DB	019H
	DB	0e4H
	DB	018H
	DB	0e4H
	DB	018H
	DB	0e4H
	DB	020H
	DB	04H
	DB	019H
	DB	086H
	DB	029H
	DB	0ebH
	DB	062H
	DB	028H
	DB	042H
	DB	04H
	DB	019H
	DB	0e4H
	DB	018H
	DB	0e4H
	DB	018H
	DB	04H
	DB	019H
	DB	086H
	DB	031H
	DB	0ebH
	DB	05aH
	DB	049H
	DB	04aH
	DB	04H
	DB	019H
	DB	0e4H
	DB	018H
	DB	086H
	DB	031H
	DB	0ecH
	DB	062H
	DB	065H
	DB	029H
	DB	04H
	DB	019H
	DB	0e4H
	DB	018H
	DB	03H
	DB	021H
	DB	0e4H
	DB	018H
	DB	03H
	DB	019H
	DB	0e4H
	DB	020H
	DB	0e4H
	DB	018H
	DB	08H
	DB	042H
	DB	0ebH
	DB	05aH
	DB	04H
	DB	019H
	DB	0e4H
	DB	018H
	DB	04H
	DB	021H
	DB	0e3H
	DB	018H
	DB	04H
	DB	019H
	DB	0e4H
	DB	018H
	DB	03H
	DB	019H
	DB	0e4H
	DB	018H
	DB	04H
	DB	021H
	DB	04H
	DB	019H
	DB	0e4H
	DB	018H
	DB	04H
	DB	019H
	DB	0e4H
	DB	018H
	DB	03H
	DB	019H
	DB	04H
	DB	019H
	DB	0e3H
	DB	018H
	DB	04H
	DB	019H
	DB	0e4H
	DB	018H
	DB	0e4H
	DB	018H
	DB	0a7H
	DB	031H
	DB	0ebH
	DB	062H
	DB	0aaH
	DB	05aH
	DB	08H
	DB	042H
	DB	08H
	DB	042H
	DB	069H
	DB	052H
	DB	0ecH
	DB	062H
	DB	049H
	DB	04aH
	DB	04H
	DB	019H
	DB	04H
	DB	019H
	DB	03H
	DB	019H
	DB	086H
	DB	031H
	DB	0ecH
	DB	062H
	DB	065H
	DB	029H
	DB	04H
	DB	019H
	DB	0e4H
	DB	018H
	DB	04H
	DB	019H
	DB	04H
	DB	019H
	DB	0e4H
	DB	020H
	DB	03H
	DB	019H
	DB	04H
	DB	019H
	DB	08H
	DB	042H
	DB	0ebH
	DB	062H
	DB	04H
	DB	019H
	DB	0e4H
	DB	018H
	DB	04H
	DB	019H
	DB	03H
	DB	021H
	DB	0e4H
	DB	018H
	DB	04H
	DB	019H
	DB	0e4H
	DB	020H
	DB	0e4H
	DB	018H
	DB	03H
	DB	019H
	DB	0e4H
	DB	018H
	DB	0e4H
	DB	018H
	DB	03H
	DB	019H
	DB	0e4H
	DB	018H
	DB	04H
	DB	021H
	DB	0e3H
	DB	020H
	DB	04H
	DB	019H
	DB	03H
	DB	021H
	DB	0e4H
	DB	018H
	DB	04H
	DB	019H
	DB	04H
	DB	019H
	DB	025H
	DB	029H
	DB	08H
	DB	042H
	DB	069H
	DB	04aH
	DB	06aH
	DB	04aH
	DB	028H
	DB	042H
	DB	086H
	DB	029H
	DB	0e4H
	DB	018H
	DB	0e4H
	DB	018H
	DB	0e4H
	DB	018H
	DB	04H
	DB	019H
	DB	045H
	DB	029H
	DB	0e7H
	DB	039H
	DB	024H
	DB	021H
	DB	0e4H
	DB	018H
	DB	0e4H
	DB	020H
	DB	03H
	DB	019H
	DB	0e4H
	DB	018H
	DB	0e4H
	DB	018H
	DB	04H
	DB	019H
	DB	04H
	DB	019H
	DB	086H
	DB	031H
	DB	0e7H
	DB	039H
	DB	0e4H
	DB	018H
	DB	0e4H
	DB	018H
	DB	03H
	DB	019H
	DB	0e4H
	DB	018H
	DB	0e4H
	DB	020H
	DB	03H
	DB	019H
	DB	04H
	DB	019H
	DB	0e4H
	DB	020H
	DB	03H
	DB	019H
	DB	0e4H
	DB	020H
	DB	04H
	DB	019H
	DB	0e4H
	DB	018H
	DB	04H
	DB	019H
	DB	0e4H
	DB	018H
	DB	0e4H
	DB	018H
	DB	04H
	DB	019H
	DB	0e4H
	DB	020H
	DB	0e3H
	DB	018H
	DB	04H
	DB	019H
	DB	03H
	DB	019H
	DB	0e4H
	DB	018H
	DB	04H
	DB	019H
	DB	04H
	DB	019H
	DB	0e4H
	DB	018H
	DB	04H
	DB	019H
	DB	04H
	DB	019H
	DB	03H
	DB	021H
	DB	0e4H
	DB	018H
	DB	03H
	DB	021H
	DB	0e4H
	DB	018H
	DB	04H
	DB	019H
	DB	04H
	DB	019H
	DB	0e4H
	DB	018H
	DB	04H
	DB	019H
	DB	04H
	DB	021H
	DB	0e3H
	DB	018H
	DB	04H
	DB	019H
	DB	0e4H
	DB	020H
	DB	0e3H
	DB	018H
	DB	0e4H
	DB	018H
	DB	0e4H
	DB	018H
	DB	04H
	DB	019H
	DB	0e4H
	DB	020H
	DB	04H
	DB	021H
	DB	04H
	DB	019H
	DB	0e4H
	DB	018H
	DB	04H
	DB	019H
	DB	0e3H
	DB	018H
	DB	04H
	DB	019H
	DB	0e4H
	DB	018H
	DB	04H
	DB	019H
	DB	03H
	DB	021H
	DB	0e4H
	DB	018H
	DB	04H
	DB	021H
	DB	04H
	DB	019H
	DB	0e4H
	DB	018H
	DB	03H
	DB	019H
	DB	04H
	DB	019H
	DB	0e4H
	DB	018H
	DB	04H
	DB	021H
	DB	0e4H
	DB	018H
	DB	0e4H
	DB	020H
	DB	03H
	DB	019H
	DB	0e4H
	DB	018H
	DB	0e4H
	DB	020H
	DB	03H
	DB	019H
	DB	0e4H
	DB	018H
	DB	0e4H
	DB	020H
	DB	04H
	DB	019H
	DB	03H
	DB	019H
	DB	0e4H
	DB	018H
	DB	0e4H
	DB	020H
	DB	03H
	DB	019H
	DB	0e4H
	DB	018H
	DB	04H
	DB	021H
	DB	04H
	DB	019H
	DB	0e3H
	DB	018H
	DB	04H
	DB	019H
	DB	04H
	DB	021H
	DB	04H
	DB	019H
	DB	0e3H
	DB	020H
	DB	04H
	DB	019H
	DB	04H
	DB	019H
	DB	0e3H
	DB	020H
	DB	04H
	DB	019H
	DB	0e3H
	DB	018H
	DB	0e4H
	DB	018H
	DB	04H
	DB	021H
	DB	0e3H
	DB	018H
	DB	04H
	DB	021H
	DB	0e4H
	DB	020H
	DB	0e4H
	DB	018H
	DB	04H
	DB	019H
	DB	0e4H
	DB	018H
	DB	0e3H
	DB	018H
	DB	04H
	DB	019H
	DB	04H
	DB	021H
	DB	0e4H
	DB	018H
	DB	03H
	DB	021H
	DB	0e4H
	DB	018H
	DB	04H
	DB	019H
	DB	03H
	DB	019H
	DB	0e4H
	DB	018H
	DB	04H
	DB	021H
	DB	0e4H
	DB	018H
	DB	04H
	DB	019H
	DB	0e4H
	DB	018H
	DB	03H
	DB	021H
	DB	0e4H
	DB	018H
	DB	0e4H
	DB	018H
	DB	04H
	DB	019H
	DB	0e4H
	DB	018H
	DB	04H
	DB	019H
	DB	04H
	DB	019H
	DB	0e4H
	DB	020H
	DB	0e3H
	DB	018H
	DB	0e4H
	DB	018H
	DB	0e4H
	DB	020H
	DB	0e4H
	DB	018H
	DB	0e4H
	DB	018H
	DB	04H
	DB	019H
	DB	0e3H
	DB	018H
	DB	04H
	DB	019H
	DB	04H
	DB	021H
	DB	0e3H
	DB	018H
	DB	0e4H
	DB	018H
	DB	04H
	DB	019H
	DB	03H
	DB	019H
	DB	0e4H
	DB	018H
	DB	04H
	DB	019H
	DB	04H
	DB	019H
	DB	0e4H
	DB	018H
	DB	03H
	DB	019H
	DB	03H
	DB	019H
	DB	0e4H
	DB	020H
	DB	04H
	DB	019H
	DB	04H
	DB	019H
	DB	04H
	DB	021H
	DB	04H
	DB	019H
	DB	0e4H
	DB	018H
	DB	0e4H
	DB	018H
	DB	04H
	DB	021H
	DB	0e3H
	DB	018H
	DB	0e4H
	DB	018H
	DB	04H
	DB	019H
	DB	0e3H
	DB	018H
	DB	04H
	DB	019H
	DB	0e4H
	DB	018H
	DB	03H
	DB	019H
	DB	04H
	DB	019H
	DB	0e4H
	DB	020H
	DB	03H
	DB	019H
	DB	0e4H
	DB	020H
	DB	0e3H
	DB	020H
	DB	04H
	DB	019H
	DB	0e4H
	DB	018H
	DB	03H
	DB	019H
	DB	04H
	DB	019H
	DB	04H
	DB	019H
	DB	03H
	DB	019H
	DB	04H
	DB	021H
	DB	0e4H
	DB	018H
	DB	0e3H
	DB	018H
	DB	0e4H
	DB	020H
	DB	04H
	DB	019H
	DB	0e4H
	DB	018H
	DB	0e4H
	DB	018H
	DB	04H
	DB	021H
	DB	0e4H
	DB	018H
	DB	04H
	DB	021H
	DB	0e3H
	DB	020H
	DB	0e4H
	DB	018H
	DB	04H
	DB	019H
	DB	0e4H
	DB	020H
	DB	0e4H
	DB	018H
	DB	04H
	DB	019H
	DB	0e3H
	DB	020H
	DB	0e4H
	DB	018H
	DB	04H
	DB	019H
	DB	04H
	DB	021H
	DB	04H
	DB	019H
	DB	0e3H
	DB	018H
	DB	04H
	DB	019H
	DB	04H
	DB	021H
	DB	0e4H
	DB	018H
	DB	04H
	DB	021H
	DB	0e4H
	DB	020H
	DB	03H
	DB	019H
	DB	0e4H
	DB	020H
	DB	0e4H
	DB	020H
	DB	04H
	DB	019H
	DB	0e4H
	DB	018H
	DB	04H
	DB	019H
	DB	04H
	DB	019H
	DB	0e3H
	DB	018H
	DB	04H
	DB	019H
	DB	0e4H
	DB	020H
	DB	0e3H
	DB	018H
	DB	04H
	DB	019H
	DB	0e4H
	DB	020H
	DB	0e4H
	DB	018H
	DB	03H
	DB	019H
	DB	04H
	DB	019H
	DB	04H
	DB	021H
	DB	0e3H
	DB	018H
	DB	04H
	DB	019H
	DB	04H
	DB	021H
	DB	0e3H
	DB	018H
	DB	04H
	DB	019H
	DB	03H
	DB	019H
	DB	0e4H
	DB	018H
	DB	0e4H
	DB	018H
	DB	04H
	DB	019H
	DB	03H
	DB	019H
	DB	0e3H
	DB	020H
	DB	04H
	DB	019H
	DB	0e4H
	DB	018H
	DB	04H
	DB	019H
	DB	04H
	DB	019H
	DB	0e3H
	DB	018H
	DB	0e4H
	DB	018H
	DB	04H
	DB	019H
	DB	04H
	DB	021H
	DB	0e4H
	DB	018H
	DB	03H
	DB	019H
	DB	0e4H
	DB	018H
	DB	04H
	DB	019H
	DB	0e3H
	DB	018H
	DB	04H
	DB	019H
	DB	04H
	DB	019H
	DB	0e3H
	DB	018H
	DB	04H
	DB	019H
	DB	0e4H
	DB	020H
	DB	0e3H
	DB	018H
	DB	04H
	DB	019H
	DB	0e4H
	DB	020H
	DB	04H
	DB	019H
	DB	04H
	DB	019H
	DB	0e4H
	DB	018H
	DB	04H
	DB	021H
	DB	04H
	DB	019H
	DB	0e4H
	DB	018H
	DB	0e3H
	DB	020H
	DB	0e4H
	DB	018H
	DB	0e4H
	DB	018H
	DB	04H
	DB	019H
	DB	0e4H
	DB	018H
	DB	04H
	DB	019H
	DB	0e4H
	DB	018H
	DB	0e4H
	DB	020H
	DB	03H
	DB	019H
	DB	0e4H
	DB	018H
	DB	04H
	DB	021H
	DB	03H
	DB	019H
	DB	0e4H
	DB	018H
	DB	0e4H
	DB	018H
	DB	04H
	DB	019H
	DB	03H
	DB	021H
	DB	0e4H
	DB	018H
	DB	0e4H
	DB	018H
	DB	03H
	DB	021H
	DB	04H
	DB	019H
	DB	0e4H
	DB	018H
	DB	04H
	DB	021H
	DB	04H
	DB	019H
	DB	0e4H
	DB	018H
	DB	0e4H
	DB	020H
	DB	03H
	DB	019H
	DB	0e4H
	DB	018H
	DB	0e4H
	DB	018H
	DB	04H
	DB	019H
	DB	0e4H
	DB	020H
	DB	04H
	DB	019H
	DB	03H
	DB	019H
	DB	0e4H
	DB	018H
	DB	04H
	DB	019H
	DB	0e3H
	DB	020H
	DB	0e4H
	DB	018H
	DB	04H
	DB	019H
	DB	0e3H
	DB	018H
	DB	0e4H
	DB	018H
	DB	03H
	DB	019H
	DB	04H
	DB	019H
	DB	0e4H
	DB	018H
	DB	04H
	DB	021H
	DB	04H
	DB	019H
	DB	0e3H
	DB	018H
	DB	0e4H
	DB	020H
	DB	03H
	DB	019H
	DB	0e4H
	DB	018H
	DB	04H
	DB	021H
	DB	04H
	DB	019H
	DB	0e4H
	DB	018H
	DB	0e4H
	DB	020H
	DB	04H
	DB	019H
	DB	04H
	DB	019H
	DB	0e4H
	DB	020H
	DB	0e4H
	DB	018H
	DB	04H
	DB	019H
	DB	0e4H
	DB	020H
	DB	03H
	DB	019H
	DB	0e4H
	DB	018H
	DB	0e4H
	DB	020H
	DB	04H
	DB	019H
	DB	0e3H
	DB	018H
	DB	04H
	DB	021H
	DB	04H
	DB	019H
	DB	0e4H
	DB	018H
	DB	04H
	DB	021H
	DB	04H
	DB	019H
	DB	0e3H
	DB	020H
	DB	04H
	DB	021H
	DB	0e3H
	DB	018H
	DB	0e4H
	DB	018H
	DB	04H
	DB	021H
	DB	0e4H
	DB	018H
	DB	04H
	DB	019H
	DB	04H
	DB	021H
	DB	0e3H
	DB	018H
	DB	04H
	DB	019H
	DB	04H
	DB	021H
	DB	0e3H
	DB	020H
	DB	04H
	DB	019H
	DB	0e4H
	DB	020H
	DB	0e3H
	DB	018H
	DB	04H
	DB	019H
	DB	04H
	DB	019H
	DB	0e3H
	DB	018H
	DB	04H
	DB	021H
	DB	04H
	DB	019H
	DB	0e4H
	DB	018H
	DB	03H
	DB	021H
	DB	0e3H
	DB	018H
	DB	04H
	DB	019H
	DB	0e3H
	DB	018H
	DB	04H
	DB	019H
	DB	0e3H
	DB	018H
	DB	0e4H
	DB	018H
	DB	03H
	DB	021H
	DB	04H
	DB	019H
	DB	0e4H
	DB	018H
	DB	04H
	DB	019H
	DB	04H
	DB	019H
	DB	0e3H
	DB	018H
	DB	04H
	DB	019H
	DB	0e4H
	DB	018H
	DB	04H
	DB	019H
	DB	04H
	DB	019H
	DB	04H
	DB	019H
	DB	0e3H
	DB	018H
	DB	04H
	DB	019H
	DB	0e4H
	DB	018H
	DB	04H
	DB	019H
	DB	04H
	DB	019H
	DB	0e4H
	DB	018H
	DB	03H
	DB	019H
	DB	0e4H
	DB	018H
	DB	0e3H
	DB	018H
	DB	04H
	DB	021H
	DB	0e4H
	DB	018H
	DB	04H
	DB	019H
	DB	0e4H
	DB	018H
	DB	0e4H
	DB	018H
	DB	04H
	DB	019H
	DB	04H
	DB	019H
	DB	0e4H
	DB	018H
	DB	0e3H
	DB	020H
	DB	04H
	DB	019H
	DB	0e4H
	DB	018H
	DB	0e3H
	DB	020H
	DB	04H
	DB	019H
	DB	0e4H
	DB	018H
	DB	04H
	DB	019H
	DB	0e4H
	DB	018H
	DB	0e4H
	DB	018H
	DB	04H
	DB	021H
	DB	04H
	DB	019H
	DB	0e3H
	DB	018H
	DB	04H
	DB	021H
	DB	0e4H
	DB	018H
	DB	04H
	DB	019H
	DB	0e3H
	DB	020H
	DB	0e3H
	DB	018H
	DB	04H
	DB	019H
	DB	0e4H
	DB	020H
	DB	04H
	DB	021H
	DB	03H
	DB	019H
	DB	0e4H
	DB	020H
	DB	0e4H
	DB	018H
	DB	04H
	DB	021H
	DB	04H
	DB	021H
	DB	0e4H
	DB	018H
	DB	0e3H
	DB	018H
	DB	04H
	DB	021H
	DB	0e4H
	DB	018H
	DB	0e3H
	DB	018H
	DB	04H
	DB	021H
	DB	04H
	DB	019H
	DB	0e4H
	DB	018H
	DB	03H
	DB	021H
	DB	0e4H
	DB	018H
	DB	04H
	DB	019H
	DB	0e3H
	DB	018H
	DB	03H
	DB	021H
	DB	0e4H
	DB	018H
	DB	04H
	DB	019H
	DB	0e3H
	DB	018H
	DB	04H
	DB	019H
	DB	04H
	DB	021H
	DB	0e4H
	DB	018H
	DB	04H
	DB	019H
	DB	04H
	DB	019H
	DB	0e3H
	DB	018H
	DB	04H
	DB	021H
	DB	0e4H
	DB	018H
	DB	03H
	DB	019H
	DB	04H
	DB	021H
	DB	0e4H
	DB	018H
	DB	0e4H
	DB	018H
	DB	04H
	DB	021H
	DB	04H
	DB	019H
	DB	0e4H
	DB	018H
	DB	04H
	DB	019H
	DB	04H
	DB	019H
	DB	0e4H
	DB	020H
	DB	0e3H
	DB	018H
	DB	04H
	DB	019H
	DB	0e4H
	DB	018H
	DB	0e4H
	DB	018H
	DB	03H
	DB	019H
	DB	0e4H
	DB	018H
	DB	04H
	DB	021H
	DB	04H
	DB	019H
	DB	0e4H
	DB	018H
	DB	04H
	DB	021H
	DB	03H
	DB	019H
	DB	0e4H
	DB	018H
	DB	04H
	DB	021H
	DB	0e3H
	DB	018H
	DB	04H
	DB	019H
	DB	04H
	DB	021H
	DB	0e4H
	DB	018H
	DB	04H
	DB	019H
	DB	0e4H
	DB	018H
	DB	04H
	DB	021H
	DB	04H
	DB	019H
	DB	0e3H
	DB	018H
	DB	0e4H
	DB	020H
	DB	04H
	DB	019H
	DB	0e3H
	DB	018H
	DB	04H
	DB	019H
	DB	0e4H
	DB	020H
	DB	0e3H
	DB	018H
	DB	04H
	DB	019H
	DB	0e4H
	DB	020H
	DB	04H
	DB	019H
	DB	0e3H
	DB	018H
	DB	0e4H
	DB	020H
	DB	04H
	DB	019H
	DB	0e3H
	DB	018H
	DB	0e3H
	DB	018H
	DB	04H
	DB	019H
	DB	0e3H
	DB	020H
	DB	0e4H
	DB	018H
	DB	03H
	DB	019H
	DB	04H
	DB	019H
	DB	0e4H
	DB	018H
	DB	04H
	DB	019H
	DB	03H
	DB	019H
	DB	0e4H
	DB	020H
	DB	04H
	DB	019H
	DB	04H
	DB	019H
	DB	0e3H
	DB	018H
	DB	04H
	DB	019H
	DB	04H
	DB	019H
	DB	0e4H
	DB	018H
	DB	04H
	DB	019H
	DB	0e4H
	DB	018H
	DB	04H
	DB	019H
	DB	0e4H
	DB	018H
	DB	0e4H
	DB	018H
	DB	03H
	DB	019H
	DB	0e4H
	DB	018H
	DB	0e4H
	DB	018H
	DB	03H
	DB	019H
	DB	0e3H
	DB	020H
	DB	0e4H
	DB	018H
	DB	04H
	DB	019H
	DB	04H
	DB	019H
	DB	0e4H
	DB	020H
	DB	04H
	DB	019H
	DB	0e4H
	DB	018H
	DB	03H
	DB	021H
	DB	04H
	DB	019H
	DB	0e4H
	DB	018H
	DB	0e3H
	DB	020H
	DB	04H
	DB	019H
	DB	04H
	DB	019H
	DB	0e4H
	DB	018H
	DB	04H
	DB	019H
	DB	04H
	DB	019H
	DB	0e4H
	DB	020H
	DB	04H
	DB	019H
	DB	04H
	DB	019H
	DB	0e4H
	DB	018H
	DB	0e4H
	DB	020H
	DB	04H
	DB	019H
	DB	0e3H
	DB	020H
	DB	0e4H
	DB	018H
	DB	04H
	DB	019H
	DB	0e4H
	DB	020H
	DB	0e3H
	DB	018H
	DB	04H
	DB	019H
	DB	0e4H
	DB	020H
	DB	0e4H
	DB	018H
	DB	04H
	DB	021H
	DB	04H
	DB	021H
	DB	04H
	DB	021H
	DB	04H
	DB	021H
	DB	0e3H
	DB	018H
	DB	04H
	DB	021H
	DB	04H
	DB	019H
	DB	0e3H
	DB	020H
	DB	04H
	DB	019H
	DB	0e4H
	DB	020H
	DB	04H
	DB	019H
	DB	04H
	DB	019H
	DB	0e4H
	DB	018H
	DB	0e3H
	DB	018H
	DB	04H
	DB	019H
	DB	0e4H
	DB	020H
	DB	03H
	DB	019H
	DB	0e4H
	DB	018H
	DB	0e4H
	DB	020H
	DB	04H
	DB	019H
	DB	04H
	DB	019H
	DB	0e4H
	DB	018H
	DB	04H
	DB	019H
	DB	0e3H
	DB	018H
	DB	0e4H
	DB	020H
	DB	04H
	DB	019H
	DB	0e3H
	DB	018H
	DB	04H
	DB	021H
	DB	0e4H
	DB	018H
	DB	03H
	DB	019H
	DB	04H
	DB	021H
	DB	0e4H
	DB	018H
	DB	03H
	DB	019H
	DB	04H
	DB	019H
	DB	0e4H
	DB	020H
	DB	03H
	DB	019H
	DB	04H
	DB	019H
	DB	0e4H
	DB	020H
	DB	04H
	DB	019H
	DB	03H
	DB	019H
	DB	04H
	DB	021H
	DB	04H
	DB	019H
	DB	04H
	DB	021H
	DB	00H
	DB	00H
	DB	00H
	DB	00H
	DB	04H
	DB	021H
	DB	04H
	DB	021H
	DB	04H
	DB	019H
	DB	04H
	DB	021H
	DB	04H
	DB	021H
	DB	04H
	DB	019H
	DB	0e3H
	DB	018H
	DB	04H
	DB	021H
	DB	04H
	DB	019H
	DB	0e4H
	DB	020H
	DB	04H
	DB	019H
	DB	03H
	DB	019H
	DB	0e4H
	DB	020H
	DB	04H
	DB	019H
	DB	03H
	DB	019H
	DB	0e4H
	DB	018H
	DB	0e3H
	DB	018H
	DB	0e4H
	DB	020H
	DB	04H
	DB	019H
	DB	03H
	DB	019H
	DB	0e4H
	DB	020H
	DB	04H
	DB	019H
	DB	0e3H
	DB	018H
	DB	04H
	DB	021H
	DB	0e4H
	DB	018H
	DB	0e3H
	DB	018H
	DB	0e4H
	DB	018H
	DB	04H
	DB	019H
	DB	0e3H
	DB	020H
	DB	0e4H
	DB	018H
	DB	04H
	DB	019H
	DB	0e4H
	DB	018H
	DB	04H
	DB	019H
	DB	04H
	DB	021H
	DB	04H
	DB	019H
	DB	04H
	DB	021H
	DB	04H
	DB	021H
	DB	04H
	DB	021H
	DB	00H
	DB	00H
	DB	00H
	DB	00H
	DB	00H
	DB	00H
	DB	00H
	DB	00H
	DB	00H
	DB	00H
	DB	00H
	DB	00H
	DB	00H
	DB	00H
	DB	00H
	DB	00H
	DB	00H
	DB	00H
	DB	00H
	DB	00H
	DB	00H
	DB	00H
	DB	00H
	DB	00H
	DB	00H
	DB	00H
	DB	00H
	DB	00H
	DB	00H
	DB	00H
	DB	00H
	DB	00H
	DB	00H
	DB	00H
	DB	00H
	DB	00H
	DB	00H
	DB	00H
	DB	00H
	DB	00H
	DB	00H
	DB	00H
	DB	00H
	DB	00H
	DB	00H
	DB	00H
	DB	00H
	DB	00H
	DB	00H
	DB	00H
	DB	00H
	DB	00H
	DB	00H
	DB	00H
	DB	00H
	DB	00H
	DB	00H
	DB	00H
	DB	00H
	DB	00H
	DB	00H
	DB	00H
	DB	00H
	DB	00H
	DB	00H
	DB	00H
	DB	00H
	DB	00H
	DB	00H
	DB	00H
	DB	00H
	DB	00H
	DB	00H
	DB	00H
	DB	00H
	DB	00H
	DB	00H
	DB	00H
	DB	00H
	DB	00H
	DB	00H
	DB	00H
	DB	00H
	DB	00H
	DB	00H
	DB	00H
	DB	00H
	DB	00H
?_VChnControlButtonOff_alpha_channel@@3QBEB DB 04H	; _VChnControlButtonOff_alpha_channel
	DB	018H
	DB	059H
	DB	086H
	DB	0baH
	DB	0dbH
	DB	0efH
	DB	0fbH
	DB	0ffH
	DB	0ffH
	DB	0ffH
	DB	0ffH
	DB	0ffH
	DB	0ffH
	DB	0ffH
	DB	0ffH
	DB	0ffH
	DB	0ffH
	DB	0ffH
	DB	0ffH
	DB	0ffH
	DB	0ffH
	DB	0ffH
	DB	0ffH
	DB	0ffH
	DB	0ffH
	DB	0ffH
	DB	0ffH
	DB	0ffH
	DB	0ffH
	DB	0ffH
	DB	0ffH
	DB	0ffH
	DB	0ffH
	DB	0fbH
	DB	0f3H
	DB	0dfH
	DB	0c3H
	DB	092H
	DB	065H
	DB	020H
	DB	08H
	DB	079H
	DB	0c7H
	DB	0fbH
	DB	0ffH
	DB	0ffH
	DB	0ffH
	DB	0ffH
	DB	0ffH
	DB	0ffH
	DB	0ffH
	DB	0ffH
	DB	0ffH
	DB	0ffH
	DB	0ffH
	DB	0ffH
	DB	0ffH
	DB	0ffH
	DB	0ffH
	DB	0ffH
	DB	0ffH
	DB	0ffH
	DB	0ffH
	DB	0ffH
	DB	0ffH
	DB	0ffH
	DB	0ffH
	DB	0ffH
	DB	0ffH
	DB	0ffH
	DB	0ffH
	DB	0ffH
	DB	0ffH
	DB	0ffH
	DB	0ffH
	DB	0ffH
	DB	0ffH
	DB	0ffH
	DB	0ffH
	DB	0ffH
	DB	0fbH
	DB	0d7H
	DB	09aH
	DB	0e7H
	DB	0f7H
	DB	0ffH
	DB	0ffH
	DB	0ffH
	DB	0ffH
	DB	0ffH
	DB	0ffH
	DB	0ffH
	DB	0ffH
	DB	0ffH
	DB	0ffH
	DB	0ffH
	DB	0ffH
	DB	0ffH
	DB	0ffH
	DB	0ffH
	DB	0ffH
	DB	0ffH
	DB	0ffH
	DB	0ffH
	DB	0ffH
	DB	0ffH
	DB	0ffH
	DB	0ffH
	DB	0ffH
	DB	0ffH
	DB	0ffH
	DB	0ffH
	DB	0ffH
	DB	0ffH
	DB	0ffH
	DB	0ffH
	DB	0ffH
	DB	0ffH
	DB	0ffH
	DB	0ffH
	DB	0ffH
	DB	0ffH
	DB	0ffH
	DB	0ffH
	DB	0f7H
	DB	0ebH
	DB	0fbH
	DB	0ffH
	DB	0ffH
	DB	0ffH
	DB	0ffH
	DB	0ffH
	DB	0ffH
	DB	0ffH
	DB	0ffH
	DB	0ffH
	DB	0ffH
	DB	0ffH
	DB	0ffH
	DB	0ffH
	DB	0ffH
	DB	0ffH
	DB	0ffH
	DB	0ffH
	DB	0ffH
	DB	0ffH
	DB	0ffH
	DB	0ffH
	DB	0ffH
	DB	0ffH
	DB	0ffH
	DB	0ffH
	DB	0ffH
	DB	0ffH
	DB	0ffH
	DB	0ffH
	DB	0ffH
	DB	0ffH
	DB	0ffH
	DB	0ffH
	DB	0ffH
	DB	0ffH
	DB	0ffH
	DB	0ffH
	DB	0ffH
	DB	0ffH
	DB	0fbH
	DB	0ebH
	DB	0fbH
	DB	0ffH
	DB	0ffH
	DB	0ffH
	DB	0ffH
	DB	0ffH
	DB	0ffH
	DB	0ffH
	DB	0ffH
	DB	0ffH
	DB	0ffH
	DB	0ffH
	DB	0ffH
	DB	0ffH
	DB	0ffH
	DB	0ffH
	DB	0ffH
	DB	0ffH
	DB	0ffH
	DB	0ffH
	DB	0ffH
	DB	0ffH
	DB	0ffH
	DB	0ffH
	DB	0ffH
	DB	0ffH
	DB	0ffH
	DB	0ffH
	DB	0ffH
	DB	0ffH
	DB	0ffH
	DB	0ffH
	DB	0ffH
	DB	0ffH
	DB	0ffH
	DB	0ffH
	DB	0ffH
	DB	0ffH
	DB	0ffH
	DB	0ffH
	DB	0fbH
	DB	0ebH
	DB	0fbH
	DB	0ffH
	DB	0ffH
	DB	0ffH
	DB	0ffH
	DB	0ffH
	DB	0ffH
	DB	0ffH
	DB	0ffH
	DB	0ffH
	DB	0ffH
	DB	0ffH
	DB	0ffH
	DB	0ffH
	DB	0ffH
	DB	0ffH
	DB	0ffH
	DB	0ffH
	DB	0ffH
	DB	0ffH
	DB	0ffH
	DB	0ffH
	DB	0ffH
	DB	0ffH
	DB	0ffH
	DB	0ffH
	DB	0ffH
	DB	0ffH
	DB	0ffH
	DB	0ffH
	DB	0ffH
	DB	0ffH
	DB	0ffH
	DB	0ffH
	DB	0ffH
	DB	0ffH
	DB	0ffH
	DB	0ffH
	DB	0ffH
	DB	0ffH
	DB	0fbH
	DB	0ebH
	DB	0fbH
	DB	0ffH
	DB	0ffH
	DB	0ffH
	DB	0ffH
	DB	0ffH
	DB	0ffH
	DB	0ffH
	DB	0ffH
	DB	0ffH
	DB	0ffH
	DB	0ffH
	DB	0ffH
	DB	0ffH
	DB	0ffH
	DB	0ffH
	DB	0ffH
	DB	0ffH
	DB	0ffH
	DB	0ffH
	DB	0ffH
	DB	0ffH
	DB	0ffH
	DB	0ffH
	DB	0ffH
	DB	0ffH
	DB	0ffH
	DB	0ffH
	DB	0ffH
	DB	0ffH
	DB	0ffH
	DB	0ffH
	DB	0ffH
	DB	0ffH
	DB	0ffH
	DB	0ffH
	DB	0ffH
	DB	0ffH
	DB	0ffH
	DB	0ffH
	DB	0fbH
	DB	0ebH
	DB	0fbH
	DB	0ffH
	DB	0ffH
	DB	0ffH
	DB	0ffH
	DB	0ffH
	DB	0ffH
	DB	0ffH
	DB	0ffH
	DB	0ffH
	DB	0ffH
	DB	0ffH
	DB	0ffH
	DB	0ffH
	DB	0ffH
	DB	0ffH
	DB	0ffH
	DB	0ffH
	DB	0ffH
	DB	0ffH
	DB	0ffH
	DB	0ffH
	DB	0ffH
	DB	0ffH
	DB	0ffH
	DB	0ffH
	DB	0ffH
	DB	0ffH
	DB	0ffH
	DB	0ffH
	DB	0ffH
	DB	0ffH
	DB	0ffH
	DB	0ffH
	DB	0ffH
	DB	0ffH
	DB	0ffH
	DB	0ffH
	DB	0ffH
	DB	0ffH
	DB	0fbH
	DB	0ebH
	DB	0fbH
	DB	0ffH
	DB	0ffH
	DB	0ffH
	DB	0ffH
	DB	0ffH
	DB	0ffH
	DB	0ffH
	DB	0ffH
	DB	0ffH
	DB	0ffH
	DB	0ffH
	DB	0ffH
	DB	0ffH
	DB	0ffH
	DB	0ffH
	DB	0ffH
	DB	0ffH
	DB	0ffH
	DB	0ffH
	DB	0ffH
	DB	0ffH
	DB	0ffH
	DB	0ffH
	DB	0ffH
	DB	0ffH
	DB	0ffH
	DB	0ffH
	DB	0ffH
	DB	0ffH
	DB	0ffH
	DB	0ffH
	DB	0ffH
	DB	0ffH
	DB	0ffH
	DB	0ffH
	DB	0ffH
	DB	0ffH
	DB	0ffH
	DB	0ffH
	DB	0fbH
	DB	0ebH
	DB	0f7H
	DB	0ffH
	DB	0ffH
	DB	0ffH
	DB	0ffH
	DB	0ffH
	DB	0ffH
	DB	0ffH
	DB	0ffH
	DB	0ffH
	DB	0ffH
	DB	0ffH
	DB	0ffH
	DB	0ffH
	DB	0ffH
	DB	0ffH
	DB	0ffH
	DB	0ffH
	DB	0ffH
	DB	0ffH
	DB	0ffH
	DB	0ffH
	DB	0ffH
	DB	0ffH
	DB	0ffH
	DB	0ffH
	DB	0ffH
	DB	0ffH
	DB	0ffH
	DB	0ffH
	DB	0ffH
	DB	0ffH
	DB	0ffH
	DB	0ffH
	DB	0ffH
	DB	0ffH
	DB	0ffH
	DB	0ffH
	DB	0ffH
	DB	0ffH
	DB	0fbH
	DB	0ebH
	DB	0fbH
	DB	0ffH
	DB	0ffH
	DB	0ffH
	DB	0ffH
	DB	0ffH
	DB	0ffH
	DB	0ffH
	DB	0ffH
	DB	0ffH
	DB	0ffH
	DB	0ffH
	DB	0ffH
	DB	0ffH
	DB	0ffH
	DB	0ffH
	DB	0ffH
	DB	0ffH
	DB	0ffH
	DB	0ffH
	DB	0ffH
	DB	0ffH
	DB	0ffH
	DB	0ffH
	DB	0ffH
	DB	0ffH
	DB	0ffH
	DB	0ffH
	DB	0ffH
	DB	0ffH
	DB	0ffH
	DB	0ffH
	DB	0ffH
	DB	0ffH
	DB	0ffH
	DB	0ffH
	DB	0ffH
	DB	0ffH
	DB	0ffH
	DB	0fbH
	DB	0fbH
	DB	0ebH
	DB	0fbH
	DB	0ffH
	DB	0ffH
	DB	0ffH
	DB	0ffH
	DB	0ffH
	DB	0ffH
	DB	0ffH
	DB	0ffH
	DB	0ffH
	DB	0ffH
	DB	0ffH
	DB	0ffH
	DB	0ffH
	DB	0ffH
	DB	0ffH
	DB	0ffH
	DB	0ffH
	DB	0ffH
	DB	0ffH
	DB	0ffH
	DB	0ffH
	DB	0ffH
	DB	0ffH
	DB	0ffH
	DB	0ffH
	DB	0ffH
	DB	0ffH
	DB	0ffH
	DB	0ffH
	DB	0ffH
	DB	0ffH
	DB	0ffH
	DB	0ffH
	DB	0ffH
	DB	0ffH
	DB	0ffH
	DB	0ffH
	DB	0ffH
	DB	0ffH
	DB	0fbH
	DB	0ebH
	DB	0fbH
	DB	0ffH
	DB	0ffH
	DB	0ffH
	DB	0ffH
	DB	0ffH
	DB	0ffH
	DB	0ffH
	DB	0ffH
	DB	0ffH
	DB	0ffH
	DB	0ffH
	DB	0ffH
	DB	0ffH
	DB	0ffH
	DB	0ffH
	DB	0ffH
	DB	0ffH
	DB	0ffH
	DB	0ffH
	DB	0ffH
	DB	0ffH
	DB	0ffH
	DB	0ffH
	DB	0ffH
	DB	0ffH
	DB	0ffH
	DB	0ffH
	DB	0ffH
	DB	0ffH
	DB	0ffH
	DB	0ffH
	DB	0ffH
	DB	0ffH
	DB	0ffH
	DB	0ffH
	DB	0ffH
	DB	0ffH
	DB	0ffH
	DB	0ffH
	DB	0fbH
	DB	0f7H
	DB	0fbH
	DB	0ffH
	DB	0ffH
	DB	0ffH
	DB	0ffH
	DB	0ffH
	DB	0ffH
	DB	0ffH
	DB	0ffH
	DB	0ffH
	DB	0ffH
	DB	0ffH
	DB	0ffH
	DB	0ffH
	DB	0ffH
	DB	0ffH
	DB	0ffH
	DB	0ffH
	DB	0ffH
	DB	0ffH
	DB	0ffH
	DB	0ffH
	DB	0ffH
	DB	0ffH
	DB	0ffH
	DB	0ffH
	DB	0ffH
	DB	0ffH
	DB	0ffH
	DB	0ffH
	DB	0ffH
	DB	0ffH
	DB	0ffH
	DB	0ffH
	DB	0ffH
	DB	0ffH
	DB	0ffH
	DB	0ffH
	DB	0ffH
	DB	0ffH
	DB	0fbH
	DB	0ffH
	DB	0ffH
	DB	0ffH
	DB	0ffH
	DB	0ffH
	DB	0ffH
	DB	0ffH
	DB	0ffH
	DB	0ffH
	DB	0ffH
	DB	0ffH
	DB	0ffH
	DB	0ffH
	DB	0ffH
	DB	0ffH
	DB	0ffH
	DB	0ffH
	DB	0ffH
	DB	0ffH
	DB	0ffH
	DB	0ffH
	DB	0ffH
	DB	0ffH
	DB	0ffH
	DB	0ffH
	DB	0ffH
	DB	0ffH
	DB	0ffH
	DB	0ffH
	DB	0ffH
	DB	0ffH
	DB	0ffH
	DB	0ffH
	DB	0ffH
	DB	0ffH
	DB	0ffH
	DB	0ffH
	DB	0ffH
	DB	0ffH
	DB	0ffH
	DB	0ffH
	DB	0ffH
	DB	0ffH
	DB	0ffH
	DB	0ffH
	DB	0ffH
	DB	0ffH
	DB	0ffH
	DB	0ffH
	DB	0ffH
	DB	0ffH
	DB	0ffH
	DB	0ffH
	DB	0ffH
	DB	0ffH
	DB	0ffH
	DB	0ffH
	DB	0ffH
	DB	0ffH
	DB	0ffH
	DB	0ffH
	DB	0ffH
	DB	0ffH
	DB	0ffH
	DB	0ffH
	DB	0ffH
	DB	0ffH
	DB	0ffH
	DB	0ffH
	DB	0ffH
	DB	0ffH
	DB	0ffH
	DB	0ffH
	DB	0ffH
	DB	0ffH
	DB	0ffH
	DB	0ffH
	DB	0ffH
	DB	0ffH
	DB	0ffH
	DB	0ffH
	DB	0ffH
	DB	0ffH
	DB	0ffH
	DB	0ffH
	DB	0ffH
	DB	0ffH
	DB	0ffH
	DB	0ffH
	DB	0ffH
	DB	0ffH
	DB	0ffH
	DB	0ffH
	DB	0ffH
	DB	0ffH
	DB	0ffH
	DB	0ffH
	DB	0ffH
	DB	0ffH
	DB	0ffH
	DB	0ffH
	DB	0ffH
	DB	0ffH
	DB	0ffH
	DB	0ffH
	DB	0ffH
	DB	0ffH
	DB	0ffH
	DB	0ffH
	DB	0ffH
	DB	0ffH
	DB	0ffH
	DB	0ffH
	DB	0ffH
	DB	0ffH
	DB	0ffH
	DB	0ffH
	DB	0ffH
	DB	0ffH
	DB	0ffH
	DB	0ffH
	DB	0ffH
	DB	0ffH
	DB	0ffH
	DB	0ffH
	DB	0ffH
	DB	0ffH
	DB	0ffH
	DB	0ffH
	DB	0ffH
	DB	0ffH
	DB	0ffH
	DB	0ffH
	DB	0ffH
	DB	0ffH
	DB	0ffH
	DB	0ffH
	DB	0ffH
	DB	0ffH
	DB	0ffH
	DB	0ffH
	DB	0ffH
	DB	0ffH
	DB	0ffH
	DB	0ffH
	DB	0ffH
	DB	0ffH
	DB	0ffH
	DB	0ffH
	DB	0ffH
	DB	0ffH
	DB	0ffH
	DB	0ffH
	DB	0ffH
	DB	0ffH
	DB	0ffH
	DB	0ffH
	DB	0ffH
	DB	0ffH
	DB	0ffH
	DB	0ffH
	DB	0ffH
	DB	0ffH
	DB	0ffH
	DB	0ffH
	DB	0ffH
	DB	0ffH
	DB	0ffH
	DB	0ffH
	DB	0ffH
	DB	0ffH
	DB	0ffH
	DB	0ffH
	DB	0ffH
	DB	0ffH
	DB	0ffH
	DB	0ffH
	DB	0ffH
	DB	0ffH
	DB	0ffH
	DB	0ffH
	DB	0ffH
	DB	0ffH
	DB	0ffH
	DB	0ffH
	DB	0ffH
	DB	0ffH
	DB	0ffH
	DB	0ffH
	DB	0ffH
	DB	0ffH
	DB	0ffH
	DB	0ffH
	DB	0ffH
	DB	0ffH
	DB	0ffH
	DB	0ffH
	DB	0ffH
	DB	0ffH
	DB	0ffH
	DB	0ffH
	DB	0ffH
	DB	0ffH
	DB	0ffH
	DB	0ffH
	DB	0ffH
	DB	0ffH
	DB	0ffH
	DB	0ffH
	DB	0ffH
	DB	0ffH
	DB	0ffH
	DB	0ffH
	DB	0ffH
	DB	0ffH
	DB	0ffH
	DB	0ffH
	DB	0ffH
	DB	0ffH
	DB	0ffH
	DB	0ffH
	DB	0ffH
	DB	0ffH
	DB	0ffH
	DB	0ffH
	DB	0ffH
	DB	0ffH
	DB	0ffH
	DB	0ffH
	DB	0ffH
	DB	0ffH
	DB	0ffH
	DB	0ffH
	DB	0ffH
	DB	0ffH
	DB	0ffH
	DB	0ffH
	DB	0ffH
	DB	0ffH
	DB	0ffH
	DB	0ffH
	DB	0ffH
	DB	0ffH
	DB	0ffH
	DB	0ffH
	DB	0ffH
	DB	0ffH
	DB	0ffH
	DB	0ffH
	DB	0ffH
	DB	0ffH
	DB	0ffH
	DB	0ffH
	DB	0ffH
	DB	0ffH
	DB	0ffH
	DB	0ffH
	DB	0ffH
	DB	0ffH
	DB	0ffH
	DB	0ffH
	DB	0ffH
	DB	0ffH
	DB	0ffH
	DB	0ffH
	DB	0ffH
	DB	0ffH
	DB	0ffH
	DB	0ffH
	DB	0ffH
	DB	0ffH
	DB	0ffH
	DB	0ffH
	DB	0ffH
	DB	0ffH
	DB	0ffH
	DB	0ffH
	DB	0ffH
	DB	0ffH
	DB	0ffH
	DB	0ffH
	DB	0ffH
	DB	0ffH
	DB	0ffH
	DB	0ffH
	DB	0ffH
	DB	0ffH
	DB	0ffH
	DB	0ffH
	DB	0ffH
	DB	0ffH
	DB	0ffH
	DB	0ffH
	DB	0ffH
	DB	0ffH
	DB	0ffH
	DB	0ffH
	DB	0ffH
	DB	0ffH
	DB	0ffH
	DB	0ffH
	DB	0ffH
	DB	0ffH
	DB	0ffH
	DB	0ffH
	DB	0ffH
	DB	0ffH
	DB	0ffH
	DB	0ffH
	DB	0ffH
	DB	0ffH
	DB	0ffH
	DB	0ffH
	DB	0ffH
	DB	0ffH
	DB	0ffH
	DB	0ffH
	DB	0ffH
	DB	0ffH
	DB	0ffH
	DB	0ffH
	DB	0ffH
	DB	0ffH
	DB	0ffH
	DB	0ffH
	DB	0ffH
	DB	0ffH
	DB	0ffH
	DB	0ffH
	DB	0ffH
	DB	0ffH
	DB	0ffH
	DB	0ffH
	DB	0ffH
	DB	0ffH
	DB	0ffH
	DB	0ffH
	DB	0ffH
	DB	0ffH
	DB	0ffH
	DB	0ffH
	DB	0ffH
	DB	0ffH
	DB	0ffH
	DB	0ffH
	DB	0ffH
	DB	0ffH
	DB	0ffH
	DB	0ffH
	DB	0ffH
	DB	0ffH
	DB	0ffH
	DB	0ffH
	DB	0ffH
	DB	0ffH
	DB	0ffH
	DB	0ffH
	DB	0ffH
	DB	0ffH
	DB	0ffH
	DB	0ffH
	DB	0ffH
	DB	0ffH
	DB	0ffH
	DB	0ffH
	DB	0ffH
	DB	0ffH
	DB	0ffH
	DB	0ffH
	DB	0ffH
	DB	0ffH
	DB	0ffH
	DB	0ffH
	DB	0ffH
	DB	0ffH
	DB	0ffH
	DB	0ffH
	DB	0ffH
	DB	0ffH
	DB	0ffH
	DB	0ffH
	DB	0ffH
	DB	0ffH
	DB	0ffH
	DB	0ffH
	DB	0ffH
	DB	0ffH
	DB	0ffH
	DB	0ffH
	DB	0ffH
	DB	0ffH
	DB	0ffH
	DB	0ffH
	DB	0ffH
	DB	0ffH
	DB	0ffH
	DB	0ffH
	DB	0ffH
	DB	0ffH
	DB	0ffH
	DB	0ffH
	DB	0ffH
	DB	0ffH
	DB	0ffH
	DB	0ffH
	DB	0ffH
	DB	0ffH
	DB	0ffH
	DB	0ffH
	DB	0ffH
	DB	0ffH
	DB	0ffH
	DB	0ffH
	DB	0ffH
	DB	0ffH
	DB	0ffH
	DB	0ffH
	DB	0ffH
	DB	0ffH
	DB	0ffH
	DB	0ffH
	DB	0ffH
	DB	0ffH
	DB	0ffH
	DB	0ffH
	DB	0ffH
	DB	0ffH
	DB	0ffH
	DB	0ffH
	DB	0ffH
	DB	0ffH
	DB	0ffH
	DB	0ffH
	DB	0ffH
	DB	0ffH
	DB	0ffH
	DB	0ffH
	DB	0ffH
	DB	0ffH
	DB	0ffH
	DB	0ffH
	DB	0ffH
	DB	0ffH
	DB	0ffH
	DB	0ffH
	DB	0ffH
	DB	0ffH
	DB	0ffH
	DB	0ffH
	DB	0ffH
	DB	0ffH
	DB	0ffH
	DB	0ffH
	DB	0ffH
	DB	0ffH
	DB	0ffH
	DB	0ffH
	DB	0ffH
	DB	0ffH
	DB	0ffH
	DB	0ffH
	DB	0ffH
	DB	0ffH
	DB	0ffH
	DB	0ffH
	DB	0ffH
	DB	0ffH
	DB	0ffH
	DB	0ffH
	DB	0ffH
	DB	0ffH
	DB	0ffH
	DB	0ffH
	DB	0ffH
	DB	0ffH
	DB	0ffH
	DB	0ffH
	DB	0ffH
	DB	0ffH
	DB	0ffH
	DB	0ffH
	DB	0ffH
	DB	0ffH
	DB	0ffH
	DB	0ffH
	DB	0ffH
	DB	0ffH
	DB	0ffH
	DB	0ffH
	DB	0ffH
	DB	0ffH
	DB	0ffH
	DB	0ffH
	DB	0ffH
	DB	0ffH
	DB	0ffH
	DB	0ffH
	DB	0ffH
	DB	0ffH
	DB	0ffH
	DB	0ffH
	DB	0ffH
	DB	0ffH
	DB	0ffH
	DB	0fbH
	DB	0ffH
	DB	0ffH
	DB	0ffH
	DB	0ffH
	DB	0ffH
	DB	0ffH
	DB	0ffH
	DB	0ffH
	DB	0ffH
	DB	0ffH
	DB	0ffH
	DB	0ffH
	DB	0ffH
	DB	0ffH
	DB	0ffH
	DB	0ffH
	DB	0ffH
	DB	0ffH
	DB	0ffH
	DB	0ffH
	DB	0ffH
	DB	0ffH
	DB	0ffH
	DB	0ffH
	DB	0ffH
	DB	0ffH
	DB	0ffH
	DB	0ffH
	DB	0ffH
	DB	0ffH
	DB	0ffH
	DB	0ffH
	DB	0ffH
	DB	0ffH
	DB	0ffH
	DB	0ffH
	DB	0ffH
	DB	0ffH
	DB	0ffH
	DB	0ffH
	DB	0fbH
	DB	0efH
	DB	0fbH
	DB	0ffH
	DB	0ffH
	DB	0ffH
	DB	0ffH
	DB	0ffH
	DB	0ffH
	DB	0ffH
	DB	0ffH
	DB	0ffH
	DB	0ffH
	DB	0ffH
	DB	0ffH
	DB	0ffH
	DB	0ffH
	DB	0ffH
	DB	0ffH
	DB	0ffH
	DB	0ffH
	DB	0ffH
	DB	0ffH
	DB	0ffH
	DB	0ffH
	DB	0ffH
	DB	0ffH
	DB	0ffH
	DB	0ffH
	DB	0ffH
	DB	0ffH
	DB	0ffH
	DB	0ffH
	DB	0ffH
	DB	0ffH
	DB	0ffH
	DB	0ffH
	DB	0ffH
	DB	0ffH
	DB	0ffH
	DB	0ffH
	DB	0fbH
	DB	0efH
	DB	0efH
	DB	0fbH
	DB	0ffH
	DB	0ffH
	DB	0ffH
	DB	0ffH
	DB	0ffH
	DB	0ffH
	DB	0ffH
	DB	0ffH
	DB	0ffH
	DB	0ffH
	DB	0ffH
	DB	0ffH
	DB	0ffH
	DB	0ffH
	DB	0ffH
	DB	0ffH
	DB	0ffH
	DB	0ffH
	DB	0ffH
	DB	0ffH
	DB	0ffH
	DB	0ffH
	DB	0ffH
	DB	0ffH
	DB	0ffH
	DB	0ffH
	DB	0ffH
	DB	0ffH
	DB	0ffH
	DB	0ffH
	DB	0ffH
	DB	0ffH
	DB	0ffH
	DB	0ffH
	DB	0ffH
	DB	0ffH
	DB	0ffH
	DB	0ffH
	DB	0fbH
	DB	0ebH
	DB	0efH
	DB	0fbH
	DB	0ffH
	DB	0ffH
	DB	0ffH
	DB	0ffH
	DB	0ffH
	DB	0ffH
	DB	0ffH
	DB	0ffH
	DB	0ffH
	DB	0ffH
	DB	0ffH
	DB	0ffH
	DB	0ffH
	DB	0ffH
	DB	0ffH
	DB	0ffH
	DB	0ffH
	DB	0ffH
	DB	0ffH
	DB	0ffH
	DB	0ffH
	DB	0ffH
	DB	0ffH
	DB	0ffH
	DB	0ffH
	DB	0ffH
	DB	0ffH
	DB	0ffH
	DB	0ffH
	DB	0ffH
	DB	0ffH
	DB	0ffH
	DB	0ffH
	DB	0ffH
	DB	0ffH
	DB	0ffH
	DB	0ffH
	DB	0ffH
	DB	0fbH
	DB	0ebH
	DB	0efH
	DB	0fbH
	DB	0ffH
	DB	0ffH
	DB	0ffH
	DB	0ffH
	DB	0ffH
	DB	0ffH
	DB	0ffH
	DB	0ffH
	DB	0ffH
	DB	0ffH
	DB	0ffH
	DB	0ffH
	DB	0ffH
	DB	0ffH
	DB	0ffH
	DB	0ffH
	DB	0ffH
	DB	0ffH
	DB	0ffH
	DB	0ffH
	DB	0ffH
	DB	0ffH
	DB	0ffH
	DB	0ffH
	DB	0ffH
	DB	0ffH
	DB	0ffH
	DB	0ffH
	DB	0ffH
	DB	0ffH
	DB	0ffH
	DB	0ffH
	DB	0ffH
	DB	0ffH
	DB	0ffH
	DB	0ffH
	DB	0ffH
	DB	0ffH
	DB	0fbH
	DB	0efH
	DB	0efH
	DB	0fbH
	DB	0ffH
	DB	0ffH
	DB	0ffH
	DB	0ffH
	DB	0ffH
	DB	0ffH
	DB	0ffH
	DB	0ffH
	DB	0ffH
	DB	0ffH
	DB	0ffH
	DB	0ffH
	DB	0ffH
	DB	0ffH
	DB	0ffH
	DB	0ffH
	DB	0ffH
	DB	0ffH
	DB	0ffH
	DB	0ffH
	DB	0ffH
	DB	0ffH
	DB	0ffH
	DB	0ffH
	DB	0ffH
	DB	0ffH
	DB	0ffH
	DB	0ffH
	DB	0ffH
	DB	0ffH
	DB	0ffH
	DB	0ffH
	DB	0ffH
	DB	0ffH
	DB	0ffH
	DB	0ffH
	DB	0ffH
	DB	0ffH
	DB	0fbH
	DB	0ebH
	DB	0efH
	DB	0fbH
	DB	0ffH
	DB	0ffH
	DB	0ffH
	DB	0ffH
	DB	0ffH
	DB	0ffH
	DB	0ffH
	DB	0ffH
	DB	0ffH
	DB	0ffH
	DB	0ffH
	DB	0ffH
	DB	0ffH
	DB	0ffH
	DB	0ffH
	DB	0ffH
	DB	0ffH
	DB	0ffH
	DB	0ffH
	DB	0ffH
	DB	0ffH
	DB	0ffH
	DB	0ffH
	DB	0ffH
	DB	0ffH
	DB	0ffH
	DB	0ffH
	DB	0ffH
	DB	0ffH
	DB	0ffH
	DB	0ffH
	DB	0ffH
	DB	0ffH
	DB	0ffH
	DB	0ffH
	DB	0ffH
	DB	0ffH
	DB	0ffH
	DB	0fbH
	DB	0ebH
	DB	0ebH
	DB	0fbH
	DB	0ffH
	DB	0ffH
	DB	0ffH
	DB	0ffH
	DB	0ffH
	DB	0ffH
	DB	0ffH
	DB	0ffH
	DB	0ffH
	DB	0ffH
	DB	0ffH
	DB	0ffH
	DB	0ffH
	DB	0ffH
	DB	0ffH
	DB	0ffH
	DB	0ffH
	DB	0ffH
	DB	0ffH
	DB	0ffH
	DB	0ffH
	DB	0ffH
	DB	0ffH
	DB	0ffH
	DB	0ffH
	DB	0ffH
	DB	0ffH
	DB	0ffH
	DB	0ffH
	DB	0ffH
	DB	0ffH
	DB	0ffH
	DB	0ffH
	DB	0ffH
	DB	0ffH
	DB	0ffH
	DB	0ffH
	DB	0ffH
	DB	0fbH
	DB	0efH
	DB	0efH
	DB	0fbH
	DB	0ffH
	DB	0ffH
	DB	0ffH
	DB	0ffH
	DB	0ffH
	DB	0ffH
	DB	0ffH
	DB	0ffH
	DB	0ffH
	DB	0ffH
	DB	0ffH
	DB	0ffH
	DB	0ffH
	DB	0ffH
	DB	0ffH
	DB	0ffH
	DB	0ffH
	DB	0ffH
	DB	0ffH
	DB	0ffH
	DB	0ffH
	DB	0ffH
	DB	0ffH
	DB	0ffH
	DB	0ffH
	DB	0ffH
	DB	0ffH
	DB	0ffH
	DB	0ffH
	DB	0ffH
	DB	0ffH
	DB	0ffH
	DB	0ffH
	DB	0ffH
	DB	0ffH
	DB	0ffH
	DB	0ffH
	DB	0ffH
	DB	0fbH
	DB	0ebH
	DB	0efH
	DB	0fbH
	DB	0ffH
	DB	0ffH
	DB	0ffH
	DB	0ffH
	DB	0ffH
	DB	0ffH
	DB	0ffH
	DB	0ffH
	DB	0ffH
	DB	0ffH
	DB	0ffH
	DB	0ffH
	DB	0ffH
	DB	0ffH
	DB	0ffH
	DB	0ffH
	DB	0ffH
	DB	0ffH
	DB	0ffH
	DB	0ffH
	DB	0ffH
	DB	0ffH
	DB	0ffH
	DB	0ffH
	DB	0ffH
	DB	0ffH
	DB	0ffH
	DB	0ffH
	DB	0ffH
	DB	0ffH
	DB	0ffH
	DB	0ffH
	DB	0ffH
	DB	0ffH
	DB	0ffH
	DB	0ffH
	DB	0ffH
	DB	0ffH
	DB	0fbH
	DB	0ebH
	DB	0efH
	DB	0fbH
	DB	0ffH
	DB	0ffH
	DB	0ffH
	DB	0ffH
	DB	0ffH
	DB	0ffH
	DB	0ffH
	DB	0ffH
	DB	0ffH
	DB	0ffH
	DB	0ffH
	DB	0ffH
	DB	0ffH
	DB	0ffH
	DB	0ffH
	DB	0ffH
	DB	0ffH
	DB	0ffH
	DB	0ffH
	DB	0ffH
	DB	0ffH
	DB	0ffH
	DB	0ffH
	DB	0ffH
	DB	0ffH
	DB	0ffH
	DB	0ffH
	DB	0ffH
	DB	0ffH
	DB	0ffH
	DB	0ffH
	DB	0ffH
	DB	0ffH
	DB	0ffH
	DB	0ffH
	DB	0ffH
	DB	0ffH
	DB	0ffH
	DB	0fbH
	DB	0efH
	DB	0efH
	DB	0fbH
	DB	0ffH
	DB	0ffH
	DB	0ffH
	DB	0ffH
	DB	0ffH
	DB	0ffH
	DB	0ffH
	DB	0ffH
	DB	0ffH
	DB	0ffH
	DB	0ffH
	DB	0ffH
	DB	0ffH
	DB	0ffH
	DB	0ffH
	DB	0ffH
	DB	0ffH
	DB	0ffH
	DB	0ffH
	DB	0ffH
	DB	0ffH
	DB	0ffH
	DB	0ffH
	DB	0ffH
	DB	0ffH
	DB	0ffH
	DB	0ffH
	DB	0ffH
	DB	0ffH
	DB	0ffH
	DB	0ffH
	DB	0ffH
	DB	0ffH
	DB	0ffH
	DB	0ffH
	DB	0ffH
	DB	0ffH
	DB	0ffH
	DB	0fbH
	DB	0ebH
	DB	0baH
	DB	0ebH
	DB	0ffH
	DB	0ffH
	DB	0ffH
	DB	0ffH
	DB	0ffH
	DB	0ffH
	DB	0ffH
	DB	0ffH
	DB	0ffH
	DB	0ffH
	DB	0ffH
	DB	0ffH
	DB	0ffH
	DB	0ffH
	DB	0ffH
	DB	0ffH
	DB	0ffH
	DB	0ffH
	DB	0ffH
	DB	0ffH
	DB	0ffH
	DB	0ffH
	DB	0ffH
	DB	0ffH
	DB	0ffH
	DB	0ffH
	DB	0ffH
	DB	0ffH
	DB	0ffH
	DB	0ffH
	DB	0ffH
	DB	0ffH
	DB	0ffH
	DB	0ffH
	DB	0ffH
	DB	0ffH
	DB	0ffH
	DB	0ffH
	DB	0ebH
	DB	0baH
	DB	014H
	DB	049H
	DB	0aaH
	DB	0cfH
	DB	0efH
	DB	0f7H
	DB	0fbH
	DB	0ffH
	DB	0ffH
	DB	0ffH
	DB	0ffH
	DB	0ffH
	DB	0ffH
	DB	0ffH
	DB	0ffH
	DB	0ffH
	DB	0ffH
	DB	0ffH
	DB	0ffH
	DB	0ffH
	DB	0ffH
	DB	0ffH
	DB	0ffH
	DB	0ffH
	DB	0ffH
	DB	0ffH
	DB	0ffH
	DB	0ffH
	DB	0ffH
	DB	0ffH
	DB	0ffH
	DB	0ffH
	DB	0ffH
	DB	0ffH
	DB	0ffH
	DB	0fbH
	DB	0f7H
	DB	0efH
	DB	0d3H
	DB	0a6H
	DB	049H
	DB	014H
	DB	00H
	DB	00H
	DB	04H
	DB	0cH
	DB	024H
	DB	038H
	DB	049H
	DB	051H
	DB	051H
	DB	051H
	DB	051H
	DB	051H
	DB	051H
	DB	051H
	DB	051H
	DB	051H
	DB	051H
	DB	051H
	DB	051H
	DB	051H
	DB	051H
	DB	051H
	DB	051H
	DB	051H
	DB	051H
	DB	051H
	DB	051H
	DB	051H
	DB	051H
	DB	051H
	DB	051H
	DB	051H
	DB	051H
	DB	051H
	DB	051H
	DB	049H
	DB	038H
	DB	024H
	DB	0cH
	DB	04H
	DB	00H
	DB	00H
	DB	00H
	DB	00H
	DB	00H
	DB	00H
	DB	00H
	DB	00H
	DB	00H
	DB	00H
	DB	00H
	DB	00H
	DB	00H
	DB	00H
	DB	00H
	DB	00H
	DB	00H
	DB	00H
	DB	00H
	DB	00H
	DB	00H
	DB	00H
	DB	00H
	DB	00H
	DB	00H
	DB	00H
	DB	00H
	DB	00H
	DB	00H
	DB	00H
	DB	00H
	DB	00H
	DB	00H
	DB	00H
	DB	00H
	DB	00H
	DB	00H
	DB	00H
	DB	00H
	DB	00H
	DB	00H
	DB	00H
	DB	00H
	DB	00H
CONST	ENDS
END
